ARM GAS  C:\Users\TERENC~1\AppData\Local\Temp\ccJLpd8B.s 			page 1


   1              		.syntax unified
   2              		.cpu cortex-m0
   3              		.fpu softvfp
   4              		.eabi_attribute 20, 1
   5              		.eabi_attribute 21, 1
   6              		.eabi_attribute 23, 3
   7              		.eabi_attribute 24, 1
   8              		.eabi_attribute 25, 1
   9              		.eabi_attribute 26, 1
  10              		.eabi_attribute 30, 1
  11              		.eabi_attribute 34, 0
  12              		.eabi_attribute 18, 4
  13              		.thumb
  14              		.syntax unified
  15              		.file	"Application.c"
  16              		.text
  17              	.Ltext0:
  18              		.cfi_sections	.debug_frame
  19              		.global	__aeabi_idiv
  20              		.section	.text.Update_VolumeAudioOut,"ax",%progbits
  21              		.align	2
  22              		.global	Update_VolumeAudioOut
  23              		.code	16
  24              		.thumb_func
  25              		.type	Update_VolumeAudioOut, %function
  26              	Update_VolumeAudioOut:
  27              	.LFB325:
  28              		.file 1 "Application.c"
   1:Application.c **** /*******************************************************************************
   2:Application.c **** * File Name: Application.c
   3:Application.c **** *
   4:Application.c **** * Version 1.0
   5:Application.c **** *
   6:Application.c **** *  Description: This file contains all the application layer code which performs
   7:Application.c **** *               the user interface handling
   8:Application.c **** *
   9:Application.c **** *******************************************************************************
  10:Application.c **** * Copyright (2018), Cypress Semiconductor Corporation. All rights reserved.
  11:Application.c **** *******************************************************************************
  12:Application.c **** * This software, including source code, documentation and related materials
  13:Application.c **** * (“Software”), is owned by Cypress Semiconductor Corporation or one of its
  14:Application.c **** * subsidiaries (“Cypress”) and is protected by and subject to worldwide patent
  15:Application.c **** * protection (United States and foreign), United States copyright laws and
  16:Application.c **** * international treaty provisions. Therefore, you may use this Software only
  17:Application.c **** * as provided in the license agreement accompanying the software package from
  18:Application.c **** * which you obtained this Software (“EULA”).
  19:Application.c **** *
  20:Application.c **** * If no EULA applies, Cypress hereby grants you a personal, nonexclusive,
  21:Application.c **** * non-transferable license to copy, modify, and compile the Software source
  22:Application.c **** * code solely for use in connection with Cypress’s integrated circuit products.
  23:Application.c **** * Any reproduction, modification, translation, compilation, or representation
  24:Application.c **** * of this Software except as specified above is prohibited without the express
  25:Application.c **** * written permission of Cypress.
  26:Application.c **** *
  27:Application.c **** * Disclaimer: THIS SOFTWARE IS PROVIDED AS-IS, WITH NO WARRANTY OF ANY KIND, 
  28:Application.c **** * EXPRESS OR IMPLIED, INCLUDING, BUT NOT LIMITED TO, NONINFRINGEMENT, IMPLIED 
  29:Application.c **** * WARRANTIES OF MERCHANTABILITY AND FITNESS FOR A PARTICULAR PURPOSE. Cypress 
ARM GAS  C:\Users\TERENC~1\AppData\Local\Temp\ccJLpd8B.s 			page 2


  30:Application.c **** * reserves the right to make changes to the Software without notice. Cypress 
  31:Application.c **** * does not assume any liability arising out of the application or use of the 
  32:Application.c **** * Software or any product or circuit described in the Software. Cypress does 
  33:Application.c **** * not authorize its products for use in any products where a malfunction or 
  34:Application.c **** * failure of the Cypress product may reasonably be expected to result in 
  35:Application.c **** * significant property damage, injury or death (“High Risk Product”). By 
  36:Application.c **** * including Cypress’s product in a High Risk Product, the manufacturer of such 
  37:Application.c **** * system or application assumes all risk of such use and in doing so agrees to 
  38:Application.c **** * indemnify Cypress against all liability.
  39:Application.c **** *******************************************************************************/
  40:Application.c **** #include <Application.h>
  41:Application.c **** #include <AudioControl.h>
  42:Application.c **** #include <Config.h>
  43:Application.c **** #include <project.h>
  44:Application.c **** #include <Interrupts.h>
  45:Application.c **** #include <stdio.h>
  46:Application.c **** #include <USBInterface.h>
  47:Application.c **** #include <Codec.h>
  48:Application.c **** 
  49:Application.c **** extern CYPDATA uint8 audioSource;
  50:Application.c **** extern CYDATA uint8 auxConfigured;
  51:Application.c **** 
  52:Application.c **** extern uint32 accSliderDelta;
  53:Application.c **** 
  54:Application.c **** uint8 playlistControlReport;
  55:Application.c **** uint8 prevReport = 0;
  56:Application.c **** uint8 audioControlStatus;
  57:Application.c **** uint8 reportClearFlag;
  58:Application.c **** 
  59:Application.c **** extern volatile uint8 USBFS_currentVolume[];
  60:Application.c **** extern volatile uint8 USBFS_currentMute;
  61:Application.c **** extern CYPDATA uint8 newRate;
  62:Application.c **** 
  63:Application.c **** /*******************************************************************************
  64:Application.c **** * Function Name: InitApp
  65:Application.c **** ********************************************************************************
  66:Application.c **** * Summary:
  67:Application.c **** *        This function configures the application layer hardware modules and
  68:Application.c **** *        clocks to be in sync with the audio clock updates done in 
  69:Application.c **** *        InitializeAudioPath API
  70:Application.c **** *
  71:Application.c **** * Parameters:
  72:Application.c **** *  void
  73:Application.c **** *
  74:Application.c **** * Return:
  75:Application.c **** *  void
  76:Application.c **** *
  77:Application.c **** *******************************************************************************/
  78:Application.c **** void InitApp(void)
  79:Application.c **** {
  80:Application.c ****     /* Configure CPU/DMA to be in round robin mode while accessing memory */
  81:Application.c **** 	CY_SET_REG32((void *) 0x40100038, CY_GET_REG32((void *) 0x40100038) | 0x22222222);     
  82:Application.c **** 	
  83:Application.c **** 	CyGlobalIntEnable;
  84:Application.c **** 	
  85:Application.c ****     #ifdef TXDEBUG
  86:Application.c **** 		UART_Start();
ARM GAS  C:\Users\TERENC~1\AppData\Local\Temp\ccJLpd8B.s 			page 3


  87:Application.c **** 		if(CySysGetResetReason(CY_SYS_RESET_SW) != CY_SYS_RESET_SW)
  88:Application.c **** 		{
  89:Application.c **** 			PRINT("\r\nApp Started...\r\n");
  90:Application.c **** 		}
  91:Application.c **** 		else
  92:Application.c **** 		{
  93:Application.c **** 			PRINT("\r\nApp Restarted after SW reset...\r\n");
  94:Application.c **** 		}
  95:Application.c **** 	#endif /* #ifdef TXDEBUG */
  96:Application.c **** 
  97:Application.c ****     /* Start I2C Master */
  98:Application.c ****     CodecI2CM_Start();	
  99:Application.c **** 	
 100:Application.c **** 	if(Codec_Init() == 0)
 101:Application.c **** 	{
 102:Application.c **** 		PRINT("Codec comm works!... \r\n");
 103:Application.c **** 	}
 104:Application.c **** 	else
 105:Application.c **** 	{
 106:Application.c **** 		PRINT("Codec comm DOESN'T work!... \r\n");
 107:Application.c **** 	}
 108:Application.c **** 	
 109:Application.c **** 	Update_VolumeAudioOut();
 110:Application.c **** 	
 111:Application.c **** 	I2S_Start();	
 112:Application.c **** 	
 113:Application.c **** 	USBFS_Start(PC_MAC_AUDIO_WITH_VOLUME_DEVICE, USBFS_5V_OPERATION);
 114:Application.c ****     USBDeviceState = USB_INIT_AFTER_ENUMERATION_REQUIRED;
 115:Application.c **** 	
 116:Application.c **** 	/* Enables SOF interrupt source */
 117:Application.c ****     USBFS_INTR_SIE_MASK_REG |= USBFS_INTR_SIE_SOF_INTR;
 118:Application.c **** 
 119:Application.c **** 	while(USBFS_GetConfiguration());
 120:Application.c **** 	
 121:Application.c **** 	CyIntSetPriority(CYDMA_INTR_NUMBER, 0);
 122:Application.c **** 	
 123:Application.c **** 	USBFS_LoadInEP(MAC_PC_HID_CONTROL_ENDPOINT, &playlistControlReport, sizeof(playlistControlReport))
 124:Application.c **** 	USBFS_LoadInEP(MAC_PC_HID_CONTROL_ENDPOINT, USBFS_NULL, sizeof(playlistControlReport) );	
 125:Application.c **** 	
 126:Application.c **** 	Async_Feedback_Counter_Start();
 127:Application.c **** }
 128:Application.c **** 
 129:Application.c **** 
 130:Application.c **** /*******************************************************************************
 131:Application.c **** * Function Name: RunApplication
 132:Application.c **** ********************************************************************************
 133:Application.c **** * Summary:
 134:Application.c **** *      This function runs the application layer firmware of handling CapSense and
 135:Application.c **** *       volume control.
 136:Application.c **** *   
 137:Application.c **** * Parameters:
 138:Application.c **** *  void
 139:Application.c **** *
 140:Application.c **** * Return:
 141:Application.c **** *  void
 142:Application.c **** *
 143:Application.c **** *******************************************************************************/
ARM GAS  C:\Users\TERENC~1\AppData\Local\Temp\ccJLpd8B.s 			page 4


 144:Application.c **** void RunApplication(void)
 145:Application.c **** {  
 146:Application.c **** 	if(USBFS_GetConfiguration() == TRUE)
 147:Application.c **** 	{
 148:Application.c **** 		/* Update the volume data */
 149:Application.c **** 		Update_VolumeAudioOut();		
 150:Application.c **** 	}
 151:Application.c **** }
 152:Application.c **** 
 153:Application.c **** /*******************************************************************************
 154:Application.c **** * Function Name: Update_VolumeAudioOut
 155:Application.c **** ********************************************************************************
 156:Application.c **** * Summary:  Updates the volume from PC to codec
 157:Application.c **** *
 158:Application.c **** * Parameters:
 159:Application.c **** *  void
 160:Application.c **** *
 161:Application.c **** * Return:
 162:Application.c **** *  uint8 - status of I2C operation between PSoC 4200L and codec
 163:Application.c **** *
 164:Application.c **** *******************************************************************************/
 165:Application.c **** uint8 Update_VolumeAudioOut(void)
 166:Application.c **** {
  29              		.loc 1 166 0
  30              		.cfi_startproc
  31              		@ args = 0, pretend = 0, frame = 24
  32              		@ frame_needed = 0, uses_anonymous_args = 0
  33 0000 30B5     		push	{r4, r5, lr}
  34              		.cfi_def_cfa_offset 12
  35              		.cfi_offset 4, -12
  36              		.cfi_offset 5, -8
  37              		.cfi_offset 14, -4
  38 0002 87B0     		sub	sp, sp, #28
  39              		.cfi_def_cfa_offset 40
  40              	.LVL0:
 167:Application.c **** 	uint8 ret = 0;
 168:Application.c **** 	static int32 prevVol = 0;
 169:Application.c **** 	static uint8 prevMute;
 170:Application.c **** 	#ifdef TXDEBUG
 171:Application.c **** 		char str[20];
 172:Application.c **** 	#endif
 173:Application.c **** 	
 174:Application.c **** 	/* Get the MSB of the current volume data */
 175:Application.c **** 	int32 volume = (((int8)USBFS_currentVolume[1])) + PC_VOLUME_MSB_CODEC_OFFSET;
  41              		.loc 1 175 0
  42 0004 324B     		ldr	r3, .L13
  43 0006 5C78     		ldrb	r4, [r3, #1]
  44 0008 64B2     		sxtb	r4, r4
  45              	.LVL1:
 176:Application.c **** 	
 177:Application.c **** 	if(volume > PC_VOLUME_MSB_MAX)
 178:Application.c **** 	{
 179:Application.c **** 		volume = PC_VOLUME_MSB_MAX;
 180:Application.c **** 	}
 181:Application.c **** 	else if(volume < PC_VOLUME_MSB_MIN)
  46              		.loc 1 181 0
  47 000a 312C     		cmp	r4, #49
ARM GAS  C:\Users\TERENC~1\AppData\Local\Temp\ccJLpd8B.s 			page 5


  48 000c 00DC     		bgt	.L2
 182:Application.c **** 	{
 183:Application.c **** 		volume = PC_VOLUME_MSB_MIN;
  49              		.loc 1 183 0
  50 000e 3224     		movs	r4, #50
  51              	.LVL2:
  52              	.L2:
 184:Application.c **** 	}
 185:Application.c **** 	
 186:Application.c **** 	/* Process volume control only when USB bus is idle */
 187:Application.c **** 	if(USBFS_TRANS_STATE_IDLE == USBFS_transferState)
  53              		.loc 1 187 0
  54 0010 304B     		ldr	r3, .L13+4
  55 0012 1B78     		ldrb	r3, [r3]
  56 0014 002B     		cmp	r3, #0
  57 0016 56D1     		bne	.L9
 188:Application.c **** 	{
 189:Application.c **** 		/* If there is a change in volume, update codec */
 190:Application.c **** 		if(volume != prevVol)
  58              		.loc 1 190 0
  59 0018 2F4B     		ldr	r3, .L13+8
  60 001a 1B68     		ldr	r3, [r3]
  61 001c 9C42     		cmp	r4, r3
  62 001e 1DD0     		beq	.L10
 191:Application.c **** 		{
 192:Application.c **** 			/* Store current volume for next comparison */
 193:Application.c **** 			prevVol = volume;
  63              		.loc 1 193 0
  64 0020 2D4B     		ldr	r3, .L13+8
  65 0022 1C60     		str	r4, [r3]
 194:Application.c **** 			
 195:Application.c **** 			/* Filter volume to be in the expected range */
 196:Application.c **** 			if((volume > PC_VOLUME_MSB_MIN) && (volume <= PC_VOLUME_MSB_MAX))
  66              		.loc 1 196 0
  67 0024 2300     		movs	r3, r4
  68 0026 333B     		subs	r3, r3, #51
  69 0028 4C2B     		cmp	r3, #76
  70 002a 09D8     		bhi	.L11
 197:Application.c **** 			{
 198:Application.c **** 				volume = (uint8)(((volume - PC_VOLUME_MSB_MIN) * CODEC_HP_VOLUME_MAX) / (PC_VOLUME_MSB_MAX - PC
  71              		.loc 1 198 0
  72 002c 323C     		subs	r4, r4, #50
  73              	.LVL3:
  74 002e A000     		lsls	r0, r4, #2
  75 0030 0419     		adds	r4, r0, r4
  76 0032 2001     		lsls	r0, r4, #4
  77 0034 4D21     		movs	r1, #77
  78 0036 FFF7FEFF 		bl	__aeabi_idiv
  79              	.LVL4:
  80 003a FF24     		movs	r4, #255
  81 003c 0440     		ands	r4, r0
  82              	.LVL5:
  83 003e 00E0     		b	.L5
  84              	.L11:
 199:Application.c **** 			}
 200:Application.c **** 			else
 201:Application.c **** 			{
ARM GAS  C:\Users\TERENC~1\AppData\Local\Temp\ccJLpd8B.s 			page 6


 202:Application.c **** 				/* Set volume to 0 if the volume from PC is not in expected range */
 203:Application.c **** 				volume = 0;
  85              		.loc 1 203 0
  86 0040 0024     		movs	r4, #0
  87              	.LVL6:
  88              	.L5:
 204:Application.c **** 			}
 205:Application.c **** 							
 206:Application.c **** 			
 207:Application.c **** 			/* Update the codec volume */
 208:Application.c **** 			ret = Codec_AdjustBothHeadphoneVolume((uint8)volume);
  89              		.loc 1 208 0
  90 0042 E0B2     		uxtb	r0, r4
  91 0044 FFF7FEFF 		bl	Codec_AdjustBothHeadphoneVolume
  92              	.LVL7:
  93 0048 0500     		movs	r5, r0
  94              	.LVL8:
 209:Application.c **** 			
 210:Application.c **** 			#ifdef TXDEBUG
 211:Application.c **** 				sprintf(str, "Codec vol set to %d \r\n", (int)volume);
  95              		.loc 1 211 0
  96 004a 2200     		movs	r2, r4
  97 004c 2349     		ldr	r1, .L13+12
  98 004e 01A8     		add	r0, sp, #4
  99              	.LVL9:
 100 0050 FFF7FEFF 		bl	sprintf
 101              	.LVL10:
 212:Application.c **** 				PRINT(str);
 102              		.loc 1 212 0
 103 0054 01A8     		add	r0, sp, #4
 104 0056 FFF7FEFF 		bl	UART_UartPutString
 105              	.LVL11:
 106 005a 00E0     		b	.L4
 107              	.LVL12:
 108              	.L10:
 167:Application.c **** 	static int32 prevVol = 0;
 109              		.loc 1 167 0
 110 005c 0025     		movs	r5, #0
 111              	.LVL13:
 112              	.L4:
 213:Application.c **** 			#endif
 214:Application.c **** 		}
 215:Application.c **** 		
 216:Application.c **** 		/* Process mute data, if changed */
 217:Application.c **** 		if(USBFS_currentMute != prevMute)
 113              		.loc 1 217 0
 114 005e 204B     		ldr	r3, .L13+16
 115 0060 1B78     		ldrb	r3, [r3]
 116 0062 DBB2     		uxtb	r3, r3
 117 0064 1C4A     		ldr	r2, .L13+8
 118 0066 1279     		ldrb	r2, [r2, #4]
 119 0068 9342     		cmp	r3, r2
 120 006a 2DD0     		beq	.L3
 218:Application.c **** 		{
 219:Application.c **** 			/* Store current mute data for next comparison */
 220:Application.c **** 			prevMute = USBFS_currentMute;
 121              		.loc 1 220 0
ARM GAS  C:\Users\TERENC~1\AppData\Local\Temp\ccJLpd8B.s 			page 7


 122 006c 1C4B     		ldr	r3, .L13+16
 123 006e 1B78     		ldrb	r3, [r3]
 124 0070 DBB2     		uxtb	r3, r3
 125 0072 194A     		ldr	r2, .L13+8
 126 0074 1371     		strb	r3, [r2, #4]
 221:Application.c **** 			
 222:Application.c **** 			/* If mute is non-zero, then mute is active and update codec volume to 0 */
 223:Application.c **** 			if(prevMute != 0)
 127              		.loc 1 223 0
 128 0076 002B     		cmp	r3, #0
 129 0078 07D0     		beq	.L6
 224:Application.c **** 			{
 225:Application.c **** 				ret = Codec_AdjustBothHeadphoneVolume(0);
 130              		.loc 1 225 0
 131 007a 0020     		movs	r0, #0
 132 007c FFF7FEFF 		bl	Codec_AdjustBothHeadphoneVolume
 133              	.LVL14:
 134 0080 0500     		movs	r5, r0
 135              	.LVL15:
 226:Application.c **** 				PRINT("Muted\r\n");
 136              		.loc 1 226 0
 137 0082 1848     		ldr	r0, .L13+20
 138              	.LVL16:
 139 0084 FFF7FEFF 		bl	UART_UartPutString
 140              	.LVL17:
 141 0088 1EE0     		b	.L3
 142              	.L6:
 227:Application.c **** 			}
 228:Application.c **** 			else
 229:Application.c **** 			{
 230:Application.c **** 				/* If mute is released, then process and update the current volume to codec */
 231:Application.c **** 				prevVol = volume;
 143              		.loc 1 231 0
 144 008a 134B     		ldr	r3, .L13+8
 145 008c 1C60     		str	r4, [r3]
 232:Application.c **** 								
 233:Application.c **** 				/* Filter volume to be in the expected range */
 234:Application.c **** 				if((volume > PC_VOLUME_MSB_MIN) && (volume <= PC_VOLUME_MSB_MAX))
 146              		.loc 1 234 0
 147 008e 2300     		movs	r3, r4
 148 0090 333B     		subs	r3, r3, #51
 149 0092 4C2B     		cmp	r3, #76
 150 0094 09D8     		bhi	.L12
 235:Application.c **** 				{
 236:Application.c **** 					volume = (uint8)(((volume - PC_VOLUME_MSB_MIN) * CODEC_HP_VOLUME_MAX) / (PC_VOLUME_MSB_MAX - P
 151              		.loc 1 236 0
 152 0096 323C     		subs	r4, r4, #50
 153              	.LVL18:
 154 0098 A000     		lsls	r0, r4, #2
 155 009a 0419     		adds	r4, r0, r4
 156 009c 2001     		lsls	r0, r4, #4
 157 009e 4D21     		movs	r1, #77
 158 00a0 FFF7FEFF 		bl	__aeabi_idiv
 159              	.LVL19:
 160 00a4 FF24     		movs	r4, #255
 161 00a6 0440     		ands	r4, r0
 162              	.LVL20:
ARM GAS  C:\Users\TERENC~1\AppData\Local\Temp\ccJLpd8B.s 			page 8


 163 00a8 00E0     		b	.L7
 164              	.L12:
 237:Application.c **** 				}
 238:Application.c **** 				else
 239:Application.c **** 				{
 240:Application.c **** 					/* Set volume to 0 if the volume from PC is not in expected range */
 241:Application.c **** 					volume = 0;
 165              		.loc 1 241 0
 166 00aa 0024     		movs	r4, #0
 167              	.LVL21:
 168              	.L7:
 242:Application.c **** 				}
 243:Application.c **** 								
 244:Application.c **** 				/* Update the codec volume */
 245:Application.c **** 				ret = Codec_AdjustBothHeadphoneVolume((uint8)volume);
 169              		.loc 1 245 0
 170 00ac E0B2     		uxtb	r0, r4
 171 00ae FFF7FEFF 		bl	Codec_AdjustBothHeadphoneVolume
 172              	.LVL22:
 173 00b2 0500     		movs	r5, r0
 174              	.LVL23:
 246:Application.c **** 				
 247:Application.c **** 				#ifdef TXDEBUG
 248:Application.c **** 					sprintf(str, "Unmute - Codec vol set to %d \r\n", (int)volume);
 175              		.loc 1 248 0
 176 00b4 2200     		movs	r2, r4
 177 00b6 0C49     		ldr	r1, .L13+24
 178 00b8 01A8     		add	r0, sp, #4
 179              	.LVL24:
 180 00ba FFF7FEFF 		bl	sprintf
 181              	.LVL25:
 249:Application.c **** 					PRINT(str);
 182              		.loc 1 249 0
 183 00be 01A8     		add	r0, sp, #4
 184 00c0 FFF7FEFF 		bl	UART_UartPutString
 185              	.LVL26:
 186 00c4 00E0     		b	.L3
 187              	.LVL27:
 188              	.L9:
 167:Application.c **** 	static int32 prevVol = 0;
 189              		.loc 1 167 0
 190 00c6 0025     		movs	r5, #0
 191              	.LVL28:
 192              	.L3:
 250:Application.c **** 				#endif
 251:Application.c **** 			}
 252:Application.c **** 		}
 253:Application.c **** 	}
 254:Application.c **** 	
 255:Application.c **** 	
 256:Application.c **** 	return ret;
 257:Application.c **** }
 193              		.loc 1 257 0
 194 00c8 2800     		movs	r0, r5
 195 00ca 07B0     		add	sp, sp, #28
 196              		@ sp needed
 197              	.LVL29:
ARM GAS  C:\Users\TERENC~1\AppData\Local\Temp\ccJLpd8B.s 			page 9


 198              	.LVL30:
 199 00cc 30BD     		pop	{r4, r5, pc}
 200              	.L14:
 201 00ce C046     		.align	2
 202              	.L13:
 203 00d0 00000000 		.word	USBFS_currentVolume
 204 00d4 00000000 		.word	USBFS_transferState
 205 00d8 00000000 		.word	.LANCHOR0
 206 00dc 00000000 		.word	.LC3
 207 00e0 00000000 		.word	USBFS_currentMute
 208 00e4 18000000 		.word	.LC6
 209 00e8 20000000 		.word	.LC8
 210              		.cfi_endproc
 211              	.LFE325:
 212              		.size	Update_VolumeAudioOut, .-Update_VolumeAudioOut
 213              		.section	.text.InitApp,"ax",%progbits
 214              		.align	2
 215              		.global	InitApp
 216              		.code	16
 217              		.thumb_func
 218              		.type	InitApp, %function
 219              	InitApp:
 220              	.LFB323:
  79:Application.c ****     /* Configure CPU/DMA to be in round robin mode while accessing memory */
 221              		.loc 1 79 0
 222              		.cfi_startproc
 223              		@ args = 0, pretend = 0, frame = 0
 224              		@ frame_needed = 0, uses_anonymous_args = 0
 225 0000 10B5     		push	{r4, lr}
 226              		.cfi_def_cfa_offset 8
 227              		.cfi_offset 4, -8
 228              		.cfi_offset 14, -4
  81:Application.c **** 	
 229              		.loc 1 81 0
 230 0002 224A     		ldr	r2, .L21
 231 0004 1368     		ldr	r3, [r2]
 232 0006 2249     		ldr	r1, .L21+4
 233 0008 0B43     		orrs	r3, r1
 234 000a 1360     		str	r3, [r2]
  83:Application.c **** 	
 235              		.loc 1 83 0
 236              		.syntax divided
 237              	@ 83 "Application.c" 1
 238 000c 62B6     		CPSIE   i
 239              	@ 0 "" 2
  86:Application.c **** 		if(CySysGetResetReason(CY_SYS_RESET_SW) != CY_SYS_RESET_SW)
 240              		.loc 1 86 0
 241              		.thumb
 242              		.syntax unified
 243 000e FFF7FEFF 		bl	UART_Start
 244              	.LVL31:
  87:Application.c **** 		{
 245              		.loc 1 87 0
 246 0012 1020     		movs	r0, #16
 247 0014 FFF7FEFF 		bl	CySysGetResetReason
 248              	.LVL32:
 249 0018 1028     		cmp	r0, #16
ARM GAS  C:\Users\TERENC~1\AppData\Local\Temp\ccJLpd8B.s 			page 10


 250 001a 03D0     		beq	.L16
  89:Application.c **** 		}
 251              		.loc 1 89 0
 252 001c 1D48     		ldr	r0, .L21+8
 253 001e FFF7FEFF 		bl	UART_UartPutString
 254              	.LVL33:
 255 0022 02E0     		b	.L17
 256              	.L16:
  93:Application.c **** 		}
 257              		.loc 1 93 0
 258 0024 1C48     		ldr	r0, .L21+12
 259 0026 FFF7FEFF 		bl	UART_UartPutString
 260              	.LVL34:
 261              	.L17:
  98:Application.c **** 	
 262              		.loc 1 98 0
 263 002a FFF7FEFF 		bl	CodecI2CM_Start
 264              	.LVL35:
 100:Application.c **** 	{
 265              		.loc 1 100 0
 266 002e FFF7FEFF 		bl	Codec_Init
 267              	.LVL36:
 268 0032 0028     		cmp	r0, #0
 269 0034 03D1     		bne	.L18
 102:Application.c **** 	}
 270              		.loc 1 102 0
 271 0036 1948     		ldr	r0, .L21+16
 272 0038 FFF7FEFF 		bl	UART_UartPutString
 273              	.LVL37:
 274 003c 02E0     		b	.L19
 275              	.L18:
 106:Application.c **** 	}
 276              		.loc 1 106 0
 277 003e 1848     		ldr	r0, .L21+20
 278 0040 FFF7FEFF 		bl	UART_UartPutString
 279              	.LVL38:
 280              	.L19:
 109:Application.c **** 	
 281              		.loc 1 109 0
 282 0044 FFF7FEFF 		bl	Update_VolumeAudioOut
 283              	.LVL39:
 111:Application.c **** 	
 284              		.loc 1 111 0
 285 0048 FFF7FEFF 		bl	I2S_Start
 286              	.LVL40:
 113:Application.c ****     USBDeviceState = USB_INIT_AFTER_ENUMERATION_REQUIRED;
 287              		.loc 1 113 0
 288 004c 0121     		movs	r1, #1
 289 004e 0020     		movs	r0, #0
 290 0050 FFF7FEFF 		bl	USBFS_Start
 291              	.LVL41:
 114:Application.c **** 	
 292              		.loc 1 114 0
 293 0054 0123     		movs	r3, #1
 294 0056 134A     		ldr	r2, .L21+24
 295 0058 1370     		strb	r3, [r2]
 117:Application.c **** 
ARM GAS  C:\Users\TERENC~1\AppData\Local\Temp\ccJLpd8B.s 			page 11


 296              		.loc 1 117 0
 297 005a 134A     		ldr	r2, .L21+28
 298 005c 1168     		ldr	r1, [r2]
 299 005e 0B43     		orrs	r3, r1
 300 0060 1360     		str	r3, [r2]
 301              	.L20:
 119:Application.c **** 	
 302              		.loc 1 119 0 discriminator 1
 303 0062 FFF7FEFF 		bl	USBFS_GetConfiguration
 304              	.LVL42:
 305 0066 0028     		cmp	r0, #0
 306 0068 FBD1     		bne	.L20
 121:Application.c **** 	
 307              		.loc 1 121 0
 308 006a 0021     		movs	r1, #0
 309 006c 0E30     		adds	r0, r0, #14
 310 006e FFF7FEFF 		bl	CyIntSetPriority
 311              	.LVL43:
 123:Application.c **** 	USBFS_LoadInEP(MAC_PC_HID_CONTROL_ENDPOINT, USBFS_NULL, sizeof(playlistControlReport) );	
 312              		.loc 1 123 0
 313 0072 0122     		movs	r2, #1
 314 0074 0D49     		ldr	r1, .L21+32
 315 0076 0420     		movs	r0, #4
 316 0078 FFF7FEFF 		bl	USBFS_LoadInEP
 317              	.LVL44:
 124:Application.c **** 	
 318              		.loc 1 124 0
 319 007c 0122     		movs	r2, #1
 320 007e 0021     		movs	r1, #0
 321 0080 0420     		movs	r0, #4
 322 0082 FFF7FEFF 		bl	USBFS_LoadInEP
 323              	.LVL45:
 126:Application.c **** }
 324              		.loc 1 126 0
 325 0086 FFF7FEFF 		bl	Async_Feedback_Counter_Start
 326              	.LVL46:
 127:Application.c **** 
 327              		.loc 1 127 0
 328              		@ sp needed
 329 008a 10BD     		pop	{r4, pc}
 330              	.L22:
 331              		.align	2
 332              	.L21:
 333 008c 38001040 		.word	1074790456
 334 0090 22222222 		.word	572662306
 335 0094 40000000 		.word	.LC10
 336 0098 54000000 		.word	.LC12
 337 009c 78000000 		.word	.LC14
 338 00a0 90000000 		.word	.LC16
 339 00a4 00000000 		.word	USBDeviceState
 340 00a8 28202C40 		.word	1076633640
 341 00ac 00000000 		.word	playlistControlReport
 342              		.cfi_endproc
 343              	.LFE323:
 344              		.size	InitApp, .-InitApp
 345              		.section	.text.RunApplication,"ax",%progbits
 346              		.align	2
ARM GAS  C:\Users\TERENC~1\AppData\Local\Temp\ccJLpd8B.s 			page 12


 347              		.global	RunApplication
 348              		.code	16
 349              		.thumb_func
 350              		.type	RunApplication, %function
 351              	RunApplication:
 352              	.LFB324:
 145:Application.c **** 	if(USBFS_GetConfiguration() == TRUE)
 353              		.loc 1 145 0
 354              		.cfi_startproc
 355              		@ args = 0, pretend = 0, frame = 0
 356              		@ frame_needed = 0, uses_anonymous_args = 0
 357 0000 10B5     		push	{r4, lr}
 358              		.cfi_def_cfa_offset 8
 359              		.cfi_offset 4, -8
 360              		.cfi_offset 14, -4
 146:Application.c **** 	{
 361              		.loc 1 146 0
 362 0002 FFF7FEFF 		bl	USBFS_GetConfiguration
 363              	.LVL47:
 364 0006 0128     		cmp	r0, #1
 365 0008 01D1     		bne	.L23
 149:Application.c **** 	}
 366              		.loc 1 149 0
 367 000a FFF7FEFF 		bl	Update_VolumeAudioOut
 368              	.LVL48:
 369              	.L23:
 151:Application.c **** 
 370              		.loc 1 151 0
 371              		@ sp needed
 372 000e 10BD     		pop	{r4, pc}
 373              		.cfi_endproc
 374              	.LFE324:
 375              		.size	RunApplication, .-RunApplication
 376              		.comm	reportClearFlag,1,1
 377              		.comm	audioControlStatus,1,1
 378              		.global	prevReport
 379              		.comm	playlistControlReport,1,1
 380              		.section	.rodata.str1.4,"aMS",%progbits,1
 381              		.align	2
 382              	.LC3:
 383 0000 436F6465 		.ascii	"Codec vol set to %d \015\012\000"
 383      6320766F 
 383      6C207365 
 383      7420746F 
 383      20256420 
 384 0017 00       		.space	1
 385              	.LC6:
 386 0018 4D757465 		.ascii	"Muted\015\012\000"
 386      640D0A00 
 387              	.LC8:
 388 0020 556E6D75 		.ascii	"Unmute - Codec vol set to %d \015\012\000"
 388      7465202D 
 388      20436F64 
 388      65632076 
 388      6F6C2073 
 389              	.LC10:
 390 0040 0D0A4170 		.ascii	"\015\012App Started...\015\012\000"
ARM GAS  C:\Users\TERENC~1\AppData\Local\Temp\ccJLpd8B.s 			page 13


 390      70205374 
 390      61727465 
 390      642E2E2E 
 390      0D0A00
 391 0053 00       		.space	1
 392              	.LC12:
 393 0054 0D0A4170 		.ascii	"\015\012App Restarted after SW reset...\015\012\000"
 393      70205265 
 393      73746172 
 393      74656420 
 393      61667465 
 394              	.LC14:
 395 0078 436F6465 		.ascii	"Codec comm works!... \015\012\000"
 395      6320636F 
 395      6D6D2077 
 395      6F726B73 
 395      212E2E2E 
 396              	.LC16:
 397 0090 436F6465 		.ascii	"Codec comm DOESN'T work!... \015\012\000"
 397      6320636F 
 397      6D6D2044 
 397      4F45534E 
 397      27542077 
 398              		.bss
 399              		.align	2
 400              		.set	.LANCHOR0,. + 0
 401              		.type	prevVol.9126, %object
 402              		.size	prevVol.9126, 4
 403              	prevVol.9126:
 404 0000 00000000 		.space	4
 405              		.type	prevMute.9127, %object
 406              		.size	prevMute.9127, 1
 407              	prevMute.9127:
 408 0004 00       		.space	1
 409              		.type	prevReport, %object
 410              		.size	prevReport, 1
 411              	prevReport:
 412 0005 00       		.space	1
 413              		.text
 414              	.Letext0:
 415              		.file 2 "Generated_Source\\PSoC4/cytypes.h"
 416              		.file 3 "Generated_Source\\PSoC4/USBFS.h"
 417              		.file 4 "./USBInterface.h"
 418              		.file 5 "./Codec.h"
 419              		.file 6 "c:\\program files (x86)\\cypress\\psoc creator\\4.2\\psoc creator\\import\\gnu\\arm\\5.4.
 420              		.file 7 "Generated_Source\\PSoC4/UART_SPI_UART.h"
 421              		.file 8 "Generated_Source\\PSoC4/UART.h"
 422              		.file 9 "Generated_Source\\PSoC4/CyLib.h"
 423              		.file 10 "Generated_Source\\PSoC4/CodecI2CM.h"
 424              		.file 11 "Generated_Source\\PSoC4/I2S.h"
 425              		.file 12 "Generated_Source\\PSoC4/Async_Feedback_Counter.h"