ARM GAS  C:\Users\TERENC~1\AppData\Local\Temp\cc6CSVAe.s 			page 1


   1              		.syntax unified
   2              		.cpu cortex-m0
   3              		.fpu softvfp
   4              		.eabi_attribute 20, 1
   5              		.eabi_attribute 21, 1
   6              		.eabi_attribute 23, 3
   7              		.eabi_attribute 24, 1
   8              		.eabi_attribute 25, 1
   9              		.eabi_attribute 26, 1
  10              		.eabi_attribute 30, 1
  11              		.eabi_attribute 34, 0
  12              		.eabi_attribute 18, 4
  13              		.thumb
  14              		.syntax unified
  15              		.file	"Async_Feedback_Counter.c"
  16              		.text
  17              	.Ltext0:
  18              		.cfi_sections	.debug_frame
  19              		.section	.text.Async_Feedback_Counter_Enable,"ax",%progbits
  20              		.align	2
  21              		.global	Async_Feedback_Counter_Enable
  22              		.code	16
  23              		.thumb_func
  24              		.type	Async_Feedback_Counter_Enable, %function
  25              	Async_Feedback_Counter_Enable:
  26              	.LFB2:
  27              		.file 1 "Generated_Source\\PSoC4\\Async_Feedback_Counter.c"
   1:Generated_Source\PSoC4/Async_Feedback_Counter.c **** /*******************************************************************************
   2:Generated_Source\PSoC4/Async_Feedback_Counter.c **** * File Name: Async_Feedback_Counter.c
   3:Generated_Source\PSoC4/Async_Feedback_Counter.c **** * Version 2.80
   4:Generated_Source\PSoC4/Async_Feedback_Counter.c **** *
   5:Generated_Source\PSoC4/Async_Feedback_Counter.c **** * Description:
   6:Generated_Source\PSoC4/Async_Feedback_Counter.c **** *  The Timer component consists of a 8, 16, 24 or 32-bit timer with
   7:Generated_Source\PSoC4/Async_Feedback_Counter.c **** *  a selectable period between 2 and 2^Width - 1.  The timer may free run
   8:Generated_Source\PSoC4/Async_Feedback_Counter.c **** *  or be used as a capture timer as well.  The capture can be initiated
   9:Generated_Source\PSoC4/Async_Feedback_Counter.c **** *  by a positive or negative edge signal as well as via software.
  10:Generated_Source\PSoC4/Async_Feedback_Counter.c **** *  A trigger input can be programmed to enable the timer on rising edge
  11:Generated_Source\PSoC4/Async_Feedback_Counter.c **** *  falling edge, either edge or continous run.
  12:Generated_Source\PSoC4/Async_Feedback_Counter.c **** *  Interrupts may be generated due to a terminal count condition
  13:Generated_Source\PSoC4/Async_Feedback_Counter.c **** *  or a capture event.
  14:Generated_Source\PSoC4/Async_Feedback_Counter.c **** *
  15:Generated_Source\PSoC4/Async_Feedback_Counter.c **** * Note:
  16:Generated_Source\PSoC4/Async_Feedback_Counter.c **** *
  17:Generated_Source\PSoC4/Async_Feedback_Counter.c **** ********************************************************************************
  18:Generated_Source\PSoC4/Async_Feedback_Counter.c **** * Copyright 2008-2017, Cypress Semiconductor Corporation.  All rights reserved.
  19:Generated_Source\PSoC4/Async_Feedback_Counter.c **** * You may use this file only in accordance with the license, terms, conditions,
  20:Generated_Source\PSoC4/Async_Feedback_Counter.c **** * disclaimers, and limitations in the end user license agreement accompanying
  21:Generated_Source\PSoC4/Async_Feedback_Counter.c **** * the software package with which this file was provided.
  22:Generated_Source\PSoC4/Async_Feedback_Counter.c **** ********************************************************************************/
  23:Generated_Source\PSoC4/Async_Feedback_Counter.c **** 
  24:Generated_Source\PSoC4/Async_Feedback_Counter.c **** #include "Async_Feedback_Counter.h"
  25:Generated_Source\PSoC4/Async_Feedback_Counter.c **** 
  26:Generated_Source\PSoC4/Async_Feedback_Counter.c **** uint8 Async_Feedback_Counter_initVar = 0u;
  27:Generated_Source\PSoC4/Async_Feedback_Counter.c **** 
  28:Generated_Source\PSoC4/Async_Feedback_Counter.c **** 
  29:Generated_Source\PSoC4/Async_Feedback_Counter.c **** /*******************************************************************************
  30:Generated_Source\PSoC4/Async_Feedback_Counter.c **** * Function Name: Async_Feedback_Counter_Init
ARM GAS  C:\Users\TERENC~1\AppData\Local\Temp\cc6CSVAe.s 			page 2


  31:Generated_Source\PSoC4/Async_Feedback_Counter.c **** ********************************************************************************
  32:Generated_Source\PSoC4/Async_Feedback_Counter.c **** *
  33:Generated_Source\PSoC4/Async_Feedback_Counter.c **** * Summary:
  34:Generated_Source\PSoC4/Async_Feedback_Counter.c **** *  Initialize to the schematic state
  35:Generated_Source\PSoC4/Async_Feedback_Counter.c **** *
  36:Generated_Source\PSoC4/Async_Feedback_Counter.c **** * Parameters:
  37:Generated_Source\PSoC4/Async_Feedback_Counter.c **** *  void
  38:Generated_Source\PSoC4/Async_Feedback_Counter.c **** *
  39:Generated_Source\PSoC4/Async_Feedback_Counter.c **** * Return:
  40:Generated_Source\PSoC4/Async_Feedback_Counter.c **** *  void
  41:Generated_Source\PSoC4/Async_Feedback_Counter.c **** *
  42:Generated_Source\PSoC4/Async_Feedback_Counter.c **** *******************************************************************************/
  43:Generated_Source\PSoC4/Async_Feedback_Counter.c **** void Async_Feedback_Counter_Init(void) 
  44:Generated_Source\PSoC4/Async_Feedback_Counter.c **** {
  45:Generated_Source\PSoC4/Async_Feedback_Counter.c ****     #if(!Async_Feedback_Counter_UsingFixedFunction)
  46:Generated_Source\PSoC4/Async_Feedback_Counter.c ****             /* Interrupt State Backup for Critical Region*/
  47:Generated_Source\PSoC4/Async_Feedback_Counter.c ****             uint8 Async_Feedback_Counter_interruptState;
  48:Generated_Source\PSoC4/Async_Feedback_Counter.c ****     #endif /* Interrupt state back up for Fixed Function only */
  49:Generated_Source\PSoC4/Async_Feedback_Counter.c **** 
  50:Generated_Source\PSoC4/Async_Feedback_Counter.c ****     #if (Async_Feedback_Counter_UsingFixedFunction)
  51:Generated_Source\PSoC4/Async_Feedback_Counter.c ****         /* Clear all bits but the enable bit (if it's already set) for Timer operation */
  52:Generated_Source\PSoC4/Async_Feedback_Counter.c ****         Async_Feedback_Counter_CONTROL &= Async_Feedback_Counter_CTRL_ENABLE;
  53:Generated_Source\PSoC4/Async_Feedback_Counter.c **** 
  54:Generated_Source\PSoC4/Async_Feedback_Counter.c ****         /* Clear the mode bits for continuous run mode */
  55:Generated_Source\PSoC4/Async_Feedback_Counter.c ****         #if (CY_PSOC5A)
  56:Generated_Source\PSoC4/Async_Feedback_Counter.c ****             Async_Feedback_Counter_CONTROL2 &= ((uint8)(~Async_Feedback_Counter_CTRL_MODE_MASK));
  57:Generated_Source\PSoC4/Async_Feedback_Counter.c ****         #endif /* Clear bits in CONTROL2 only in PSOC5A */
  58:Generated_Source\PSoC4/Async_Feedback_Counter.c **** 
  59:Generated_Source\PSoC4/Async_Feedback_Counter.c ****         #if (CY_PSOC3 || CY_PSOC5LP)
  60:Generated_Source\PSoC4/Async_Feedback_Counter.c ****             Async_Feedback_Counter_CONTROL3 &= ((uint8)(~Async_Feedback_Counter_CTRL_MODE_MASK));
  61:Generated_Source\PSoC4/Async_Feedback_Counter.c ****         #endif /* CONTROL3 register exists only in PSoC3 OR PSoC5LP */
  62:Generated_Source\PSoC4/Async_Feedback_Counter.c **** 
  63:Generated_Source\PSoC4/Async_Feedback_Counter.c ****         /* Check if One Shot mode is enabled i.e. RunMode !=0*/
  64:Generated_Source\PSoC4/Async_Feedback_Counter.c ****         #if (Async_Feedback_Counter_RunModeUsed != 0x0u)
  65:Generated_Source\PSoC4/Async_Feedback_Counter.c ****             /* Set 3rd bit of Control register to enable one shot mode */
  66:Generated_Source\PSoC4/Async_Feedback_Counter.c ****             Async_Feedback_Counter_CONTROL |= 0x04u;
  67:Generated_Source\PSoC4/Async_Feedback_Counter.c ****         #endif /* One Shot enabled only when RunModeUsed is not Continuous*/
  68:Generated_Source\PSoC4/Async_Feedback_Counter.c **** 
  69:Generated_Source\PSoC4/Async_Feedback_Counter.c ****         #if (Async_Feedback_Counter_RunModeUsed == 2)
  70:Generated_Source\PSoC4/Async_Feedback_Counter.c ****             #if (CY_PSOC5A)
  71:Generated_Source\PSoC4/Async_Feedback_Counter.c ****                 /* Set last 2 bits of control2 register if one shot(halt on
  72:Generated_Source\PSoC4/Async_Feedback_Counter.c ****                 interrupt) is enabled*/
  73:Generated_Source\PSoC4/Async_Feedback_Counter.c ****                 Async_Feedback_Counter_CONTROL2 |= 0x03u;
  74:Generated_Source\PSoC4/Async_Feedback_Counter.c ****             #endif /* Set One-Shot Halt on Interrupt bit in CONTROL2 for PSoC5A */
  75:Generated_Source\PSoC4/Async_Feedback_Counter.c **** 
  76:Generated_Source\PSoC4/Async_Feedback_Counter.c ****             #if (CY_PSOC3 || CY_PSOC5LP)
  77:Generated_Source\PSoC4/Async_Feedback_Counter.c ****                 /* Set last 2 bits of control3 register if one shot(halt on
  78:Generated_Source\PSoC4/Async_Feedback_Counter.c ****                 interrupt) is enabled*/
  79:Generated_Source\PSoC4/Async_Feedback_Counter.c ****                 Async_Feedback_Counter_CONTROL3 |= 0x03u;
  80:Generated_Source\PSoC4/Async_Feedback_Counter.c ****             #endif /* Set One-Shot Halt on Interrupt bit in CONTROL3 for PSoC3 or PSoC5LP */
  81:Generated_Source\PSoC4/Async_Feedback_Counter.c **** 
  82:Generated_Source\PSoC4/Async_Feedback_Counter.c ****         #endif /* Remove section if One Shot Halt on Interrupt is not enabled */
  83:Generated_Source\PSoC4/Async_Feedback_Counter.c **** 
  84:Generated_Source\PSoC4/Async_Feedback_Counter.c ****         #if (Async_Feedback_Counter_UsingHWEnable != 0)
  85:Generated_Source\PSoC4/Async_Feedback_Counter.c ****             #if (CY_PSOC5A)
  86:Generated_Source\PSoC4/Async_Feedback_Counter.c ****                 /* Set the default Run Mode of the Timer to Continuous */
  87:Generated_Source\PSoC4/Async_Feedback_Counter.c ****                 Async_Feedback_Counter_CONTROL2 |= Async_Feedback_Counter_CTRL_MODE_PULSEWIDTH;
ARM GAS  C:\Users\TERENC~1\AppData\Local\Temp\cc6CSVAe.s 			page 3


  88:Generated_Source\PSoC4/Async_Feedback_Counter.c ****             #endif /* Set Continuous Run Mode in CONTROL2 for PSoC5A */
  89:Generated_Source\PSoC4/Async_Feedback_Counter.c **** 
  90:Generated_Source\PSoC4/Async_Feedback_Counter.c ****             #if (CY_PSOC3 || CY_PSOC5LP)
  91:Generated_Source\PSoC4/Async_Feedback_Counter.c ****                 /* Clear and Set ROD and COD bits of CFG2 register */
  92:Generated_Source\PSoC4/Async_Feedback_Counter.c ****                 Async_Feedback_Counter_CONTROL3 &= ((uint8)(~Async_Feedback_Counter_CTRL_RCOD_MASK)
  93:Generated_Source\PSoC4/Async_Feedback_Counter.c ****                 Async_Feedback_Counter_CONTROL3 |= Async_Feedback_Counter_CTRL_RCOD;
  94:Generated_Source\PSoC4/Async_Feedback_Counter.c **** 
  95:Generated_Source\PSoC4/Async_Feedback_Counter.c ****                 /* Clear and Enable the HW enable bit in CFG2 register */
  96:Generated_Source\PSoC4/Async_Feedback_Counter.c ****                 Async_Feedback_Counter_CONTROL3 &= ((uint8)(~Async_Feedback_Counter_CTRL_ENBL_MASK)
  97:Generated_Source\PSoC4/Async_Feedback_Counter.c ****                 Async_Feedback_Counter_CONTROL3 |= Async_Feedback_Counter_CTRL_ENBL;
  98:Generated_Source\PSoC4/Async_Feedback_Counter.c **** 
  99:Generated_Source\PSoC4/Async_Feedback_Counter.c ****                 /* Set the default Run Mode of the Timer to Continuous */
 100:Generated_Source\PSoC4/Async_Feedback_Counter.c ****                 Async_Feedback_Counter_CONTROL3 |= Async_Feedback_Counter_CTRL_MODE_CONTINUOUS;
 101:Generated_Source\PSoC4/Async_Feedback_Counter.c ****             #endif /* Set Continuous Run Mode in CONTROL3 for PSoC3ES3 or PSoC5A */
 102:Generated_Source\PSoC4/Async_Feedback_Counter.c **** 
 103:Generated_Source\PSoC4/Async_Feedback_Counter.c ****         #endif /* Configure Run Mode with hardware enable */
 104:Generated_Source\PSoC4/Async_Feedback_Counter.c **** 
 105:Generated_Source\PSoC4/Async_Feedback_Counter.c ****         /* Clear and Set SYNCTC and SYNCCMP bits of RT1 register */
 106:Generated_Source\PSoC4/Async_Feedback_Counter.c ****         Async_Feedback_Counter_RT1 &= ((uint8)(~Async_Feedback_Counter_RT1_MASK));
 107:Generated_Source\PSoC4/Async_Feedback_Counter.c ****         Async_Feedback_Counter_RT1 |= Async_Feedback_Counter_SYNC;
 108:Generated_Source\PSoC4/Async_Feedback_Counter.c **** 
 109:Generated_Source\PSoC4/Async_Feedback_Counter.c ****         /*Enable DSI Sync all all inputs of the Timer*/
 110:Generated_Source\PSoC4/Async_Feedback_Counter.c ****         Async_Feedback_Counter_RT1 &= ((uint8)(~Async_Feedback_Counter_SYNCDSI_MASK));
 111:Generated_Source\PSoC4/Async_Feedback_Counter.c ****         Async_Feedback_Counter_RT1 |= Async_Feedback_Counter_SYNCDSI_EN;
 112:Generated_Source\PSoC4/Async_Feedback_Counter.c **** 
 113:Generated_Source\PSoC4/Async_Feedback_Counter.c ****         /* Set the IRQ to use the status register interrupts */
 114:Generated_Source\PSoC4/Async_Feedback_Counter.c ****         Async_Feedback_Counter_CONTROL2 |= Async_Feedback_Counter_CTRL2_IRQ_SEL;
 115:Generated_Source\PSoC4/Async_Feedback_Counter.c ****     #endif /* Configuring registers of fixed function implementation */
 116:Generated_Source\PSoC4/Async_Feedback_Counter.c **** 
 117:Generated_Source\PSoC4/Async_Feedback_Counter.c ****     /* Set Initial values from Configuration */
 118:Generated_Source\PSoC4/Async_Feedback_Counter.c ****     Async_Feedback_Counter_WritePeriod(Async_Feedback_Counter_INIT_PERIOD);
 119:Generated_Source\PSoC4/Async_Feedback_Counter.c ****     Async_Feedback_Counter_WriteCounter(Async_Feedback_Counter_INIT_PERIOD);
 120:Generated_Source\PSoC4/Async_Feedback_Counter.c **** 
 121:Generated_Source\PSoC4/Async_Feedback_Counter.c ****     #if (Async_Feedback_Counter_UsingHWCaptureCounter)/* Capture counter is enabled */
 122:Generated_Source\PSoC4/Async_Feedback_Counter.c ****         Async_Feedback_Counter_CAPTURE_COUNT_CTRL |= Async_Feedback_Counter_CNTR_ENABLE;
 123:Generated_Source\PSoC4/Async_Feedback_Counter.c ****         Async_Feedback_Counter_SetCaptureCount(Async_Feedback_Counter_INIT_CAPTURE_COUNT);
 124:Generated_Source\PSoC4/Async_Feedback_Counter.c ****     #endif /* Configure capture counter value */
 125:Generated_Source\PSoC4/Async_Feedback_Counter.c **** 
 126:Generated_Source\PSoC4/Async_Feedback_Counter.c ****     #if (!Async_Feedback_Counter_UsingFixedFunction)
 127:Generated_Source\PSoC4/Async_Feedback_Counter.c ****         #if (Async_Feedback_Counter_SoftwareCaptureMode)
 128:Generated_Source\PSoC4/Async_Feedback_Counter.c ****             Async_Feedback_Counter_SetCaptureMode(Async_Feedback_Counter_INIT_CAPTURE_MODE);
 129:Generated_Source\PSoC4/Async_Feedback_Counter.c ****         #endif /* Set Capture Mode for UDB implementation if capture mode is software controlled */
 130:Generated_Source\PSoC4/Async_Feedback_Counter.c **** 
 131:Generated_Source\PSoC4/Async_Feedback_Counter.c ****         #if (Async_Feedback_Counter_SoftwareTriggerMode)
 132:Generated_Source\PSoC4/Async_Feedback_Counter.c ****             #if (!Async_Feedback_Counter_UDB_CONTROL_REG_REMOVED)
 133:Generated_Source\PSoC4/Async_Feedback_Counter.c ****                 if (0u == (Async_Feedback_Counter_CONTROL & Async_Feedback_Counter__B_TIMER__TM_SOF
 134:Generated_Source\PSoC4/Async_Feedback_Counter.c ****                 {
 135:Generated_Source\PSoC4/Async_Feedback_Counter.c ****                     Async_Feedback_Counter_SetTriggerMode(Async_Feedback_Counter_INIT_TRIGGER_MODE)
 136:Generated_Source\PSoC4/Async_Feedback_Counter.c ****                 }
 137:Generated_Source\PSoC4/Async_Feedback_Counter.c ****             #endif /* (!Async_Feedback_Counter_UDB_CONTROL_REG_REMOVED) */
 138:Generated_Source\PSoC4/Async_Feedback_Counter.c ****         #endif /* Set trigger mode for UDB Implementation if trigger mode is software controlled */
 139:Generated_Source\PSoC4/Async_Feedback_Counter.c **** 
 140:Generated_Source\PSoC4/Async_Feedback_Counter.c ****         /* CyEnterCriticalRegion and CyExitCriticalRegion are used to mark following region critica
 141:Generated_Source\PSoC4/Async_Feedback_Counter.c ****         /* Enter Critical Region*/
 142:Generated_Source\PSoC4/Async_Feedback_Counter.c ****         Async_Feedback_Counter_interruptState = CyEnterCriticalSection();
 143:Generated_Source\PSoC4/Async_Feedback_Counter.c **** 
 144:Generated_Source\PSoC4/Async_Feedback_Counter.c ****         /* Use the interrupt output of the status register for IRQ output */
ARM GAS  C:\Users\TERENC~1\AppData\Local\Temp\cc6CSVAe.s 			page 4


 145:Generated_Source\PSoC4/Async_Feedback_Counter.c ****         Async_Feedback_Counter_STATUS_AUX_CTRL |= Async_Feedback_Counter_STATUS_ACTL_INT_EN_MASK;
 146:Generated_Source\PSoC4/Async_Feedback_Counter.c **** 
 147:Generated_Source\PSoC4/Async_Feedback_Counter.c ****         /* Exit Critical Region*/
 148:Generated_Source\PSoC4/Async_Feedback_Counter.c ****         CyExitCriticalSection(Async_Feedback_Counter_interruptState);
 149:Generated_Source\PSoC4/Async_Feedback_Counter.c **** 
 150:Generated_Source\PSoC4/Async_Feedback_Counter.c ****         #if (Async_Feedback_Counter_EnableTriggerMode)
 151:Generated_Source\PSoC4/Async_Feedback_Counter.c ****             Async_Feedback_Counter_EnableTrigger();
 152:Generated_Source\PSoC4/Async_Feedback_Counter.c ****         #endif /* Set Trigger enable bit for UDB implementation in the control register*/
 153:Generated_Source\PSoC4/Async_Feedback_Counter.c **** 		
 154:Generated_Source\PSoC4/Async_Feedback_Counter.c **** 		
 155:Generated_Source\PSoC4/Async_Feedback_Counter.c ****         #if (Async_Feedback_Counter_InterruptOnCaptureCount && !Async_Feedback_Counter_UDB_CONTROL_
 156:Generated_Source\PSoC4/Async_Feedback_Counter.c ****             Async_Feedback_Counter_SetInterruptCount(Async_Feedback_Counter_INIT_INT_CAPTURE_COUNT)
 157:Generated_Source\PSoC4/Async_Feedback_Counter.c ****         #endif /* Set interrupt count in UDB implementation if interrupt count feature is checked.*
 158:Generated_Source\PSoC4/Async_Feedback_Counter.c **** 
 159:Generated_Source\PSoC4/Async_Feedback_Counter.c ****         Async_Feedback_Counter_ClearFIFO();
 160:Generated_Source\PSoC4/Async_Feedback_Counter.c ****     #endif /* Configure additional features of UDB implementation */
 161:Generated_Source\PSoC4/Async_Feedback_Counter.c **** 
 162:Generated_Source\PSoC4/Async_Feedback_Counter.c ****     Async_Feedback_Counter_SetInterruptMode(Async_Feedback_Counter_INIT_INTERRUPT_MODE);
 163:Generated_Source\PSoC4/Async_Feedback_Counter.c **** }
 164:Generated_Source\PSoC4/Async_Feedback_Counter.c **** 
 165:Generated_Source\PSoC4/Async_Feedback_Counter.c **** 
 166:Generated_Source\PSoC4/Async_Feedback_Counter.c **** /*******************************************************************************
 167:Generated_Source\PSoC4/Async_Feedback_Counter.c **** * Function Name: Async_Feedback_Counter_Enable
 168:Generated_Source\PSoC4/Async_Feedback_Counter.c **** ********************************************************************************
 169:Generated_Source\PSoC4/Async_Feedback_Counter.c **** *
 170:Generated_Source\PSoC4/Async_Feedback_Counter.c **** * Summary:
 171:Generated_Source\PSoC4/Async_Feedback_Counter.c **** *  Enable the Timer
 172:Generated_Source\PSoC4/Async_Feedback_Counter.c **** *
 173:Generated_Source\PSoC4/Async_Feedback_Counter.c **** * Parameters:
 174:Generated_Source\PSoC4/Async_Feedback_Counter.c **** *  void
 175:Generated_Source\PSoC4/Async_Feedback_Counter.c **** *
 176:Generated_Source\PSoC4/Async_Feedback_Counter.c **** * Return:
 177:Generated_Source\PSoC4/Async_Feedback_Counter.c **** *  void
 178:Generated_Source\PSoC4/Async_Feedback_Counter.c **** *
 179:Generated_Source\PSoC4/Async_Feedback_Counter.c **** *******************************************************************************/
 180:Generated_Source\PSoC4/Async_Feedback_Counter.c **** void Async_Feedback_Counter_Enable(void) 
 181:Generated_Source\PSoC4/Async_Feedback_Counter.c **** {
  28              		.loc 1 181 0
  29              		.cfi_startproc
  30              		@ args = 0, pretend = 0, frame = 0
  31              		@ frame_needed = 0, uses_anonymous_args = 0
  32              		@ link register save eliminated.
 182:Generated_Source\PSoC4/Async_Feedback_Counter.c ****     /* Globally Enable the Fixed Function Block chosen */
 183:Generated_Source\PSoC4/Async_Feedback_Counter.c ****     #if (Async_Feedback_Counter_UsingFixedFunction)
 184:Generated_Source\PSoC4/Async_Feedback_Counter.c ****         Async_Feedback_Counter_GLOBAL_ENABLE |= Async_Feedback_Counter_BLOCK_EN_MASK;
 185:Generated_Source\PSoC4/Async_Feedback_Counter.c ****         Async_Feedback_Counter_GLOBAL_STBY_ENABLE |= Async_Feedback_Counter_BLOCK_STBY_EN_MASK;
 186:Generated_Source\PSoC4/Async_Feedback_Counter.c ****     #endif /* Set Enable bit for enabling Fixed function timer*/
 187:Generated_Source\PSoC4/Async_Feedback_Counter.c **** 
 188:Generated_Source\PSoC4/Async_Feedback_Counter.c ****     /* Remove assignment if control register is removed */
 189:Generated_Source\PSoC4/Async_Feedback_Counter.c ****     #if (!Async_Feedback_Counter_UDB_CONTROL_REG_REMOVED || Async_Feedback_Counter_UsingFixedFuncti
 190:Generated_Source\PSoC4/Async_Feedback_Counter.c ****         Async_Feedback_Counter_CONTROL |= Async_Feedback_Counter_CTRL_ENABLE;
  33              		.loc 1 190 0
  34 0000 034A     		ldr	r2, .L2
  35 0002 1178     		ldrb	r1, [r2]
  36 0004 8023     		movs	r3, #128
  37 0006 5B42     		rsbs	r3, r3, #0
  38 0008 0B43     		orrs	r3, r1
ARM GAS  C:\Users\TERENC~1\AppData\Local\Temp\cc6CSVAe.s 			page 5


  39 000a DBB2     		uxtb	r3, r3
  40 000c 1370     		strb	r3, [r2]
 191:Generated_Source\PSoC4/Async_Feedback_Counter.c ****     #endif /* Remove assignment if control register is removed */
 192:Generated_Source\PSoC4/Async_Feedback_Counter.c **** }
  41              		.loc 1 192 0
  42              		@ sp needed
  43 000e 7047     		bx	lr
  44              	.L3:
  45              		.align	2
  46              	.L2:
  47 0010 71000F40 		.word	1074724977
  48              		.cfi_endproc
  49              	.LFE2:
  50              		.size	Async_Feedback_Counter_Enable, .-Async_Feedback_Counter_Enable
  51              		.section	.text.Async_Feedback_Counter_Stop,"ax",%progbits
  52              		.align	2
  53              		.global	Async_Feedback_Counter_Stop
  54              		.code	16
  55              		.thumb_func
  56              		.type	Async_Feedback_Counter_Stop, %function
  57              	Async_Feedback_Counter_Stop:
  58              	.LFB4:
 193:Generated_Source\PSoC4/Async_Feedback_Counter.c **** 
 194:Generated_Source\PSoC4/Async_Feedback_Counter.c **** 
 195:Generated_Source\PSoC4/Async_Feedback_Counter.c **** /*******************************************************************************
 196:Generated_Source\PSoC4/Async_Feedback_Counter.c **** * Function Name: Async_Feedback_Counter_Start
 197:Generated_Source\PSoC4/Async_Feedback_Counter.c **** ********************************************************************************
 198:Generated_Source\PSoC4/Async_Feedback_Counter.c **** *
 199:Generated_Source\PSoC4/Async_Feedback_Counter.c **** * Summary:
 200:Generated_Source\PSoC4/Async_Feedback_Counter.c **** *  The start function initializes the timer with the default values, the
 201:Generated_Source\PSoC4/Async_Feedback_Counter.c **** *  enables the timerto begin counting.  It does not enable interrupts,
 202:Generated_Source\PSoC4/Async_Feedback_Counter.c **** *  the EnableInt command should be called if interrupt generation is required.
 203:Generated_Source\PSoC4/Async_Feedback_Counter.c **** *
 204:Generated_Source\PSoC4/Async_Feedback_Counter.c **** * Parameters:
 205:Generated_Source\PSoC4/Async_Feedback_Counter.c **** *  void
 206:Generated_Source\PSoC4/Async_Feedback_Counter.c **** *
 207:Generated_Source\PSoC4/Async_Feedback_Counter.c **** * Return:
 208:Generated_Source\PSoC4/Async_Feedback_Counter.c **** *  void
 209:Generated_Source\PSoC4/Async_Feedback_Counter.c **** *
 210:Generated_Source\PSoC4/Async_Feedback_Counter.c **** * Global variables:
 211:Generated_Source\PSoC4/Async_Feedback_Counter.c **** *  Async_Feedback_Counter_initVar: Is modified when this function is called for the
 212:Generated_Source\PSoC4/Async_Feedback_Counter.c **** *   first time. Is used to ensure that initialization happens only once.
 213:Generated_Source\PSoC4/Async_Feedback_Counter.c **** *
 214:Generated_Source\PSoC4/Async_Feedback_Counter.c **** *******************************************************************************/
 215:Generated_Source\PSoC4/Async_Feedback_Counter.c **** void Async_Feedback_Counter_Start(void) 
 216:Generated_Source\PSoC4/Async_Feedback_Counter.c **** {
 217:Generated_Source\PSoC4/Async_Feedback_Counter.c ****     if(Async_Feedback_Counter_initVar == 0u)
 218:Generated_Source\PSoC4/Async_Feedback_Counter.c ****     {
 219:Generated_Source\PSoC4/Async_Feedback_Counter.c ****         Async_Feedback_Counter_Init();
 220:Generated_Source\PSoC4/Async_Feedback_Counter.c **** 
 221:Generated_Source\PSoC4/Async_Feedback_Counter.c ****         Async_Feedback_Counter_initVar = 1u;   /* Clear this bit for Initialization */
 222:Generated_Source\PSoC4/Async_Feedback_Counter.c ****     }
 223:Generated_Source\PSoC4/Async_Feedback_Counter.c **** 
 224:Generated_Source\PSoC4/Async_Feedback_Counter.c ****     /* Enable the Timer */
 225:Generated_Source\PSoC4/Async_Feedback_Counter.c ****     Async_Feedback_Counter_Enable();
 226:Generated_Source\PSoC4/Async_Feedback_Counter.c **** }
 227:Generated_Source\PSoC4/Async_Feedback_Counter.c **** 
ARM GAS  C:\Users\TERENC~1\AppData\Local\Temp\cc6CSVAe.s 			page 6


 228:Generated_Source\PSoC4/Async_Feedback_Counter.c **** 
 229:Generated_Source\PSoC4/Async_Feedback_Counter.c **** /*******************************************************************************
 230:Generated_Source\PSoC4/Async_Feedback_Counter.c **** * Function Name: Async_Feedback_Counter_Stop
 231:Generated_Source\PSoC4/Async_Feedback_Counter.c **** ********************************************************************************
 232:Generated_Source\PSoC4/Async_Feedback_Counter.c **** *
 233:Generated_Source\PSoC4/Async_Feedback_Counter.c **** * Summary:
 234:Generated_Source\PSoC4/Async_Feedback_Counter.c **** *  The stop function halts the timer, but does not change any modes or disable
 235:Generated_Source\PSoC4/Async_Feedback_Counter.c **** *  interrupts.
 236:Generated_Source\PSoC4/Async_Feedback_Counter.c **** *
 237:Generated_Source\PSoC4/Async_Feedback_Counter.c **** * Parameters:
 238:Generated_Source\PSoC4/Async_Feedback_Counter.c **** *  void
 239:Generated_Source\PSoC4/Async_Feedback_Counter.c **** *
 240:Generated_Source\PSoC4/Async_Feedback_Counter.c **** * Return:
 241:Generated_Source\PSoC4/Async_Feedback_Counter.c **** *  void
 242:Generated_Source\PSoC4/Async_Feedback_Counter.c **** *
 243:Generated_Source\PSoC4/Async_Feedback_Counter.c **** * Side Effects: If the Enable mode is set to Hardware only then this function
 244:Generated_Source\PSoC4/Async_Feedback_Counter.c **** *               has no effect on the operation of the timer.
 245:Generated_Source\PSoC4/Async_Feedback_Counter.c **** *
 246:Generated_Source\PSoC4/Async_Feedback_Counter.c **** *******************************************************************************/
 247:Generated_Source\PSoC4/Async_Feedback_Counter.c **** void Async_Feedback_Counter_Stop(void) 
 248:Generated_Source\PSoC4/Async_Feedback_Counter.c **** {
  59              		.loc 1 248 0
  60              		.cfi_startproc
  61              		@ args = 0, pretend = 0, frame = 0
  62              		@ frame_needed = 0, uses_anonymous_args = 0
  63              		@ link register save eliminated.
 249:Generated_Source\PSoC4/Async_Feedback_Counter.c ****     /* Disable Timer */
 250:Generated_Source\PSoC4/Async_Feedback_Counter.c ****     #if(!Async_Feedback_Counter_UDB_CONTROL_REG_REMOVED || Async_Feedback_Counter_UsingFixedFunctio
 251:Generated_Source\PSoC4/Async_Feedback_Counter.c ****         Async_Feedback_Counter_CONTROL &= ((uint8)(~Async_Feedback_Counter_CTRL_ENABLE));
  64              		.loc 1 251 0
  65 0000 024A     		ldr	r2, .L5
  66 0002 1178     		ldrb	r1, [r2]
  67 0004 7F23     		movs	r3, #127
  68 0006 0B40     		ands	r3, r1
  69 0008 1370     		strb	r3, [r2]
 252:Generated_Source\PSoC4/Async_Feedback_Counter.c ****     #endif /* Remove assignment if control register is removed */
 253:Generated_Source\PSoC4/Async_Feedback_Counter.c **** 
 254:Generated_Source\PSoC4/Async_Feedback_Counter.c ****     /* Globally disable the Fixed Function Block chosen */
 255:Generated_Source\PSoC4/Async_Feedback_Counter.c ****     #if (Async_Feedback_Counter_UsingFixedFunction)
 256:Generated_Source\PSoC4/Async_Feedback_Counter.c ****         Async_Feedback_Counter_GLOBAL_ENABLE &= ((uint8)(~Async_Feedback_Counter_BLOCK_EN_MASK));
 257:Generated_Source\PSoC4/Async_Feedback_Counter.c ****         Async_Feedback_Counter_GLOBAL_STBY_ENABLE &= ((uint8)(~Async_Feedback_Counter_BLOCK_STBY_EN
 258:Generated_Source\PSoC4/Async_Feedback_Counter.c ****     #endif /* Disable global enable for the Timer Fixed function block to stop the Timer*/
 259:Generated_Source\PSoC4/Async_Feedback_Counter.c **** }
  70              		.loc 1 259 0
  71              		@ sp needed
  72 000a 7047     		bx	lr
  73              	.L6:
  74              		.align	2
  75              	.L5:
  76 000c 71000F40 		.word	1074724977
  77              		.cfi_endproc
  78              	.LFE4:
  79              		.size	Async_Feedback_Counter_Stop, .-Async_Feedback_Counter_Stop
  80              		.section	.text.Async_Feedback_Counter_SetInterruptMode,"ax",%progbits
  81              		.align	2
  82              		.global	Async_Feedback_Counter_SetInterruptMode
  83              		.code	16
ARM GAS  C:\Users\TERENC~1\AppData\Local\Temp\cc6CSVAe.s 			page 7


  84              		.thumb_func
  85              		.type	Async_Feedback_Counter_SetInterruptMode, %function
  86              	Async_Feedback_Counter_SetInterruptMode:
  87              	.LFB5:
 260:Generated_Source\PSoC4/Async_Feedback_Counter.c **** 
 261:Generated_Source\PSoC4/Async_Feedback_Counter.c **** 
 262:Generated_Source\PSoC4/Async_Feedback_Counter.c **** /*******************************************************************************
 263:Generated_Source\PSoC4/Async_Feedback_Counter.c **** * Function Name: Async_Feedback_Counter_SetInterruptMode
 264:Generated_Source\PSoC4/Async_Feedback_Counter.c **** ********************************************************************************
 265:Generated_Source\PSoC4/Async_Feedback_Counter.c **** *
 266:Generated_Source\PSoC4/Async_Feedback_Counter.c **** * Summary:
 267:Generated_Source\PSoC4/Async_Feedback_Counter.c **** *  This function selects which of the interrupt inputs may cause an interrupt.
 268:Generated_Source\PSoC4/Async_Feedback_Counter.c **** *  The twosources are caputure and terminal.  One, both or neither may
 269:Generated_Source\PSoC4/Async_Feedback_Counter.c **** *  be selected.
 270:Generated_Source\PSoC4/Async_Feedback_Counter.c **** *
 271:Generated_Source\PSoC4/Async_Feedback_Counter.c **** * Parameters:
 272:Generated_Source\PSoC4/Async_Feedback_Counter.c **** *  interruptMode:   This parameter is used to enable interrups on either/or
 273:Generated_Source\PSoC4/Async_Feedback_Counter.c **** *                   terminal count or capture.
 274:Generated_Source\PSoC4/Async_Feedback_Counter.c **** *
 275:Generated_Source\PSoC4/Async_Feedback_Counter.c **** * Return:
 276:Generated_Source\PSoC4/Async_Feedback_Counter.c **** *  void
 277:Generated_Source\PSoC4/Async_Feedback_Counter.c **** *
 278:Generated_Source\PSoC4/Async_Feedback_Counter.c **** *******************************************************************************/
 279:Generated_Source\PSoC4/Async_Feedback_Counter.c **** void Async_Feedback_Counter_SetInterruptMode(uint8 interruptMode) 
 280:Generated_Source\PSoC4/Async_Feedback_Counter.c **** {
  88              		.loc 1 280 0
  89              		.cfi_startproc
  90              		@ args = 0, pretend = 0, frame = 0
  91              		@ frame_needed = 0, uses_anonymous_args = 0
  92              		@ link register save eliminated.
  93              	.LVL0:
 281:Generated_Source\PSoC4/Async_Feedback_Counter.c ****     Async_Feedback_Counter_STATUS_MASK = interruptMode;
  94              		.loc 1 281 0
  95 0000 014B     		ldr	r3, .L8
  96 0002 1870     		strb	r0, [r3]
 282:Generated_Source\PSoC4/Async_Feedback_Counter.c **** }
  97              		.loc 1 282 0
  98              		@ sp needed
  99 0004 7047     		bx	lr
 100              	.L9:
 101 0006 C046     		.align	2
 102              	.L8:
 103 0008 80000F40 		.word	1074724992
 104              		.cfi_endproc
 105              	.LFE5:
 106              		.size	Async_Feedback_Counter_SetInterruptMode, .-Async_Feedback_Counter_SetInterruptMode
 107              		.section	.text.Async_Feedback_Counter_SoftwareCapture,"ax",%progbits
 108              		.align	2
 109              		.global	Async_Feedback_Counter_SoftwareCapture
 110              		.code	16
 111              		.thumb_func
 112              		.type	Async_Feedback_Counter_SoftwareCapture, %function
 113              	Async_Feedback_Counter_SoftwareCapture:
 114              	.LFB6:
 283:Generated_Source\PSoC4/Async_Feedback_Counter.c **** 
 284:Generated_Source\PSoC4/Async_Feedback_Counter.c **** 
 285:Generated_Source\PSoC4/Async_Feedback_Counter.c **** /*******************************************************************************
ARM GAS  C:\Users\TERENC~1\AppData\Local\Temp\cc6CSVAe.s 			page 8


 286:Generated_Source\PSoC4/Async_Feedback_Counter.c **** * Function Name: Async_Feedback_Counter_SoftwareCapture
 287:Generated_Source\PSoC4/Async_Feedback_Counter.c **** ********************************************************************************
 288:Generated_Source\PSoC4/Async_Feedback_Counter.c **** *
 289:Generated_Source\PSoC4/Async_Feedback_Counter.c **** * Summary:
 290:Generated_Source\PSoC4/Async_Feedback_Counter.c **** *  This function forces a capture independent of the capture signal.
 291:Generated_Source\PSoC4/Async_Feedback_Counter.c **** *
 292:Generated_Source\PSoC4/Async_Feedback_Counter.c **** * Parameters:
 293:Generated_Source\PSoC4/Async_Feedback_Counter.c **** *  void
 294:Generated_Source\PSoC4/Async_Feedback_Counter.c **** *
 295:Generated_Source\PSoC4/Async_Feedback_Counter.c **** * Return:
 296:Generated_Source\PSoC4/Async_Feedback_Counter.c **** *  void
 297:Generated_Source\PSoC4/Async_Feedback_Counter.c **** *
 298:Generated_Source\PSoC4/Async_Feedback_Counter.c **** * Side Effects:
 299:Generated_Source\PSoC4/Async_Feedback_Counter.c **** *  An existing hardware capture could be overwritten.
 300:Generated_Source\PSoC4/Async_Feedback_Counter.c **** *
 301:Generated_Source\PSoC4/Async_Feedback_Counter.c **** *******************************************************************************/
 302:Generated_Source\PSoC4/Async_Feedback_Counter.c **** void Async_Feedback_Counter_SoftwareCapture(void) 
 303:Generated_Source\PSoC4/Async_Feedback_Counter.c **** {
 115              		.loc 1 303 0
 116              		.cfi_startproc
 117              		@ args = 0, pretend = 0, frame = 0
 118              		@ frame_needed = 0, uses_anonymous_args = 0
 119              		@ link register save eliminated.
 304:Generated_Source\PSoC4/Async_Feedback_Counter.c ****     /* Generate a software capture by reading the counter register */
 305:Generated_Source\PSoC4/Async_Feedback_Counter.c ****     #if(Async_Feedback_Counter_UsingFixedFunction)
 306:Generated_Source\PSoC4/Async_Feedback_Counter.c ****         (void)CY_GET_REG16(Async_Feedback_Counter_COUNTER_LSB_PTR);
 307:Generated_Source\PSoC4/Async_Feedback_Counter.c ****     #else
 308:Generated_Source\PSoC4/Async_Feedback_Counter.c ****         (void)CY_GET_REG8(Async_Feedback_Counter_COUNTER_LSB_PTR_8BIT);
 120              		.loc 1 308 0
 121 0000 014B     		ldr	r3, .L11
 122 0002 1B78     		ldrb	r3, [r3]
 309:Generated_Source\PSoC4/Async_Feedback_Counter.c ****     #endif/* (Async_Feedback_Counter_UsingFixedFunction) */
 310:Generated_Source\PSoC4/Async_Feedback_Counter.c ****     /* Capture Data is now in the FIFO */
 311:Generated_Source\PSoC4/Async_Feedback_Counter.c **** }
 123              		.loc 1 311 0
 124              		@ sp needed
 125 0004 7047     		bx	lr
 126              	.L12:
 127 0006 C046     		.align	2
 128              	.L11:
 129 0008 00000F40 		.word	1074724864
 130              		.cfi_endproc
 131              	.LFE6:
 132              		.size	Async_Feedback_Counter_SoftwareCapture, .-Async_Feedback_Counter_SoftwareCapture
 133              		.section	.text.Async_Feedback_Counter_ReadStatusRegister,"ax",%progbits
 134              		.align	2
 135              		.global	Async_Feedback_Counter_ReadStatusRegister
 136              		.code	16
 137              		.thumb_func
 138              		.type	Async_Feedback_Counter_ReadStatusRegister, %function
 139              	Async_Feedback_Counter_ReadStatusRegister:
 140              	.LFB7:
 312:Generated_Source\PSoC4/Async_Feedback_Counter.c **** 
 313:Generated_Source\PSoC4/Async_Feedback_Counter.c **** 
 314:Generated_Source\PSoC4/Async_Feedback_Counter.c **** /*******************************************************************************
 315:Generated_Source\PSoC4/Async_Feedback_Counter.c **** * Function Name: Async_Feedback_Counter_ReadStatusRegister
 316:Generated_Source\PSoC4/Async_Feedback_Counter.c **** ********************************************************************************
ARM GAS  C:\Users\TERENC~1\AppData\Local\Temp\cc6CSVAe.s 			page 9


 317:Generated_Source\PSoC4/Async_Feedback_Counter.c **** *
 318:Generated_Source\PSoC4/Async_Feedback_Counter.c **** * Summary:
 319:Generated_Source\PSoC4/Async_Feedback_Counter.c **** *  Reads the status register and returns it's state. This function should use
 320:Generated_Source\PSoC4/Async_Feedback_Counter.c **** *  defined types for the bit-field information as the bits in this register may
 321:Generated_Source\PSoC4/Async_Feedback_Counter.c **** *  be permuteable.
 322:Generated_Source\PSoC4/Async_Feedback_Counter.c **** *
 323:Generated_Source\PSoC4/Async_Feedback_Counter.c **** * Parameters:
 324:Generated_Source\PSoC4/Async_Feedback_Counter.c **** *  void
 325:Generated_Source\PSoC4/Async_Feedback_Counter.c **** *
 326:Generated_Source\PSoC4/Async_Feedback_Counter.c **** * Return:
 327:Generated_Source\PSoC4/Async_Feedback_Counter.c **** *  The contents of the status register
 328:Generated_Source\PSoC4/Async_Feedback_Counter.c **** *
 329:Generated_Source\PSoC4/Async_Feedback_Counter.c **** * Side Effects:
 330:Generated_Source\PSoC4/Async_Feedback_Counter.c **** *  Status register bits may be clear on read.
 331:Generated_Source\PSoC4/Async_Feedback_Counter.c **** *
 332:Generated_Source\PSoC4/Async_Feedback_Counter.c **** *******************************************************************************/
 333:Generated_Source\PSoC4/Async_Feedback_Counter.c **** uint8   Async_Feedback_Counter_ReadStatusRegister(void) 
 334:Generated_Source\PSoC4/Async_Feedback_Counter.c **** {
 141              		.loc 1 334 0
 142              		.cfi_startproc
 143              		@ args = 0, pretend = 0, frame = 0
 144              		@ frame_needed = 0, uses_anonymous_args = 0
 145              		@ link register save eliminated.
 335:Generated_Source\PSoC4/Async_Feedback_Counter.c ****     return (Async_Feedback_Counter_STATUS);
 146              		.loc 1 335 0
 147 0000 014B     		ldr	r3, .L14
 148 0002 1878     		ldrb	r0, [r3]
 149 0004 C0B2     		uxtb	r0, r0
 336:Generated_Source\PSoC4/Async_Feedback_Counter.c **** }
 150              		.loc 1 336 0
 151              		@ sp needed
 152 0006 7047     		bx	lr
 153              	.L15:
 154              		.align	2
 155              	.L14:
 156 0008 60000F40 		.word	1074724960
 157              		.cfi_endproc
 158              	.LFE7:
 159              		.size	Async_Feedback_Counter_ReadStatusRegister, .-Async_Feedback_Counter_ReadStatusRegister
 160              		.section	.text.Async_Feedback_Counter_ReadControlRegister,"ax",%progbits
 161              		.align	2
 162              		.global	Async_Feedback_Counter_ReadControlRegister
 163              		.code	16
 164              		.thumb_func
 165              		.type	Async_Feedback_Counter_ReadControlRegister, %function
 166              	Async_Feedback_Counter_ReadControlRegister:
 167              	.LFB8:
 337:Generated_Source\PSoC4/Async_Feedback_Counter.c **** 
 338:Generated_Source\PSoC4/Async_Feedback_Counter.c **** 
 339:Generated_Source\PSoC4/Async_Feedback_Counter.c **** #if (!Async_Feedback_Counter_UDB_CONTROL_REG_REMOVED) /* Remove API if control register is unused *
 340:Generated_Source\PSoC4/Async_Feedback_Counter.c **** 
 341:Generated_Source\PSoC4/Async_Feedback_Counter.c **** 
 342:Generated_Source\PSoC4/Async_Feedback_Counter.c **** /*******************************************************************************
 343:Generated_Source\PSoC4/Async_Feedback_Counter.c **** * Function Name: Async_Feedback_Counter_ReadControlRegister
 344:Generated_Source\PSoC4/Async_Feedback_Counter.c **** ********************************************************************************
 345:Generated_Source\PSoC4/Async_Feedback_Counter.c **** *
 346:Generated_Source\PSoC4/Async_Feedback_Counter.c **** * Summary:
ARM GAS  C:\Users\TERENC~1\AppData\Local\Temp\cc6CSVAe.s 			page 10


 347:Generated_Source\PSoC4/Async_Feedback_Counter.c **** *  Reads the control register and returns it's value.
 348:Generated_Source\PSoC4/Async_Feedback_Counter.c **** *
 349:Generated_Source\PSoC4/Async_Feedback_Counter.c **** * Parameters:
 350:Generated_Source\PSoC4/Async_Feedback_Counter.c **** *  void
 351:Generated_Source\PSoC4/Async_Feedback_Counter.c **** *
 352:Generated_Source\PSoC4/Async_Feedback_Counter.c **** * Return:
 353:Generated_Source\PSoC4/Async_Feedback_Counter.c **** *  The contents of the control register
 354:Generated_Source\PSoC4/Async_Feedback_Counter.c **** *
 355:Generated_Source\PSoC4/Async_Feedback_Counter.c **** *******************************************************************************/
 356:Generated_Source\PSoC4/Async_Feedback_Counter.c **** uint8 Async_Feedback_Counter_ReadControlRegister(void) 
 357:Generated_Source\PSoC4/Async_Feedback_Counter.c **** {
 168              		.loc 1 357 0
 169              		.cfi_startproc
 170              		@ args = 0, pretend = 0, frame = 0
 171              		@ frame_needed = 0, uses_anonymous_args = 0
 172              		@ link register save eliminated.
 358:Generated_Source\PSoC4/Async_Feedback_Counter.c ****     #if (!Async_Feedback_Counter_UDB_CONTROL_REG_REMOVED) 
 359:Generated_Source\PSoC4/Async_Feedback_Counter.c ****         return ((uint8)Async_Feedback_Counter_CONTROL);
 173              		.loc 1 359 0
 174 0000 014B     		ldr	r3, .L17
 175 0002 1878     		ldrb	r0, [r3]
 176 0004 C0B2     		uxtb	r0, r0
 360:Generated_Source\PSoC4/Async_Feedback_Counter.c ****     #else
 361:Generated_Source\PSoC4/Async_Feedback_Counter.c ****         return (0);
 362:Generated_Source\PSoC4/Async_Feedback_Counter.c ****     #endif /* (!Async_Feedback_Counter_UDB_CONTROL_REG_REMOVED) */
 363:Generated_Source\PSoC4/Async_Feedback_Counter.c **** }
 177              		.loc 1 363 0
 178              		@ sp needed
 179 0006 7047     		bx	lr
 180              	.L18:
 181              		.align	2
 182              	.L17:
 183 0008 71000F40 		.word	1074724977
 184              		.cfi_endproc
 185              	.LFE8:
 186              		.size	Async_Feedback_Counter_ReadControlRegister, .-Async_Feedback_Counter_ReadControlRegister
 187              		.section	.text.Async_Feedback_Counter_WriteControlRegister,"ax",%progbits
 188              		.align	2
 189              		.global	Async_Feedback_Counter_WriteControlRegister
 190              		.code	16
 191              		.thumb_func
 192              		.type	Async_Feedback_Counter_WriteControlRegister, %function
 193              	Async_Feedback_Counter_WriteControlRegister:
 194              	.LFB9:
 364:Generated_Source\PSoC4/Async_Feedback_Counter.c **** 
 365:Generated_Source\PSoC4/Async_Feedback_Counter.c **** 
 366:Generated_Source\PSoC4/Async_Feedback_Counter.c **** /*******************************************************************************
 367:Generated_Source\PSoC4/Async_Feedback_Counter.c **** * Function Name: Async_Feedback_Counter_WriteControlRegister
 368:Generated_Source\PSoC4/Async_Feedback_Counter.c **** ********************************************************************************
 369:Generated_Source\PSoC4/Async_Feedback_Counter.c **** *
 370:Generated_Source\PSoC4/Async_Feedback_Counter.c **** * Summary:
 371:Generated_Source\PSoC4/Async_Feedback_Counter.c **** *  Sets the bit-field of the control register.
 372:Generated_Source\PSoC4/Async_Feedback_Counter.c **** *
 373:Generated_Source\PSoC4/Async_Feedback_Counter.c **** * Parameters:
 374:Generated_Source\PSoC4/Async_Feedback_Counter.c **** *  control: The contents of the control register
 375:Generated_Source\PSoC4/Async_Feedback_Counter.c **** *
 376:Generated_Source\PSoC4/Async_Feedback_Counter.c **** * Return:
ARM GAS  C:\Users\TERENC~1\AppData\Local\Temp\cc6CSVAe.s 			page 11


 377:Generated_Source\PSoC4/Async_Feedback_Counter.c **** *
 378:Generated_Source\PSoC4/Async_Feedback_Counter.c **** *******************************************************************************/
 379:Generated_Source\PSoC4/Async_Feedback_Counter.c **** void Async_Feedback_Counter_WriteControlRegister(uint8 control) 
 380:Generated_Source\PSoC4/Async_Feedback_Counter.c **** {
 195              		.loc 1 380 0
 196              		.cfi_startproc
 197              		@ args = 0, pretend = 0, frame = 0
 198              		@ frame_needed = 0, uses_anonymous_args = 0
 199              		@ link register save eliminated.
 200              	.LVL1:
 381:Generated_Source\PSoC4/Async_Feedback_Counter.c ****     #if (!Async_Feedback_Counter_UDB_CONTROL_REG_REMOVED) 
 382:Generated_Source\PSoC4/Async_Feedback_Counter.c ****         Async_Feedback_Counter_CONTROL = control;
 201              		.loc 1 382 0
 202 0000 014B     		ldr	r3, .L20
 203 0002 1870     		strb	r0, [r3]
 383:Generated_Source\PSoC4/Async_Feedback_Counter.c ****     #else
 384:Generated_Source\PSoC4/Async_Feedback_Counter.c ****         control = 0u;
 385:Generated_Source\PSoC4/Async_Feedback_Counter.c ****     #endif /* (!Async_Feedback_Counter_UDB_CONTROL_REG_REMOVED) */
 386:Generated_Source\PSoC4/Async_Feedback_Counter.c **** }
 204              		.loc 1 386 0
 205              		@ sp needed
 206 0004 7047     		bx	lr
 207              	.L21:
 208 0006 C046     		.align	2
 209              	.L20:
 210 0008 71000F40 		.word	1074724977
 211              		.cfi_endproc
 212              	.LFE9:
 213              		.size	Async_Feedback_Counter_WriteControlRegister, .-Async_Feedback_Counter_WriteControlRegister
 214              		.section	.text.Async_Feedback_Counter_ReadPeriod,"ax",%progbits
 215              		.align	2
 216              		.global	Async_Feedback_Counter_ReadPeriod
 217              		.code	16
 218              		.thumb_func
 219              		.type	Async_Feedback_Counter_ReadPeriod, %function
 220              	Async_Feedback_Counter_ReadPeriod:
 221              	.LFB10:
 387:Generated_Source\PSoC4/Async_Feedback_Counter.c **** 
 388:Generated_Source\PSoC4/Async_Feedback_Counter.c **** #endif /* Remove API if control register is unused */
 389:Generated_Source\PSoC4/Async_Feedback_Counter.c **** 
 390:Generated_Source\PSoC4/Async_Feedback_Counter.c **** 
 391:Generated_Source\PSoC4/Async_Feedback_Counter.c **** /*******************************************************************************
 392:Generated_Source\PSoC4/Async_Feedback_Counter.c **** * Function Name: Async_Feedback_Counter_ReadPeriod
 393:Generated_Source\PSoC4/Async_Feedback_Counter.c **** ********************************************************************************
 394:Generated_Source\PSoC4/Async_Feedback_Counter.c **** *
 395:Generated_Source\PSoC4/Async_Feedback_Counter.c **** * Summary:
 396:Generated_Source\PSoC4/Async_Feedback_Counter.c **** *  This function returns the current value of the Period.
 397:Generated_Source\PSoC4/Async_Feedback_Counter.c **** *
 398:Generated_Source\PSoC4/Async_Feedback_Counter.c **** * Parameters:
 399:Generated_Source\PSoC4/Async_Feedback_Counter.c **** *  void
 400:Generated_Source\PSoC4/Async_Feedback_Counter.c **** *
 401:Generated_Source\PSoC4/Async_Feedback_Counter.c **** * Return:
 402:Generated_Source\PSoC4/Async_Feedback_Counter.c **** *  The present value of the counter.
 403:Generated_Source\PSoC4/Async_Feedback_Counter.c **** *
 404:Generated_Source\PSoC4/Async_Feedback_Counter.c **** *******************************************************************************/
 405:Generated_Source\PSoC4/Async_Feedback_Counter.c **** uint8 Async_Feedback_Counter_ReadPeriod(void) 
 406:Generated_Source\PSoC4/Async_Feedback_Counter.c **** {
ARM GAS  C:\Users\TERENC~1\AppData\Local\Temp\cc6CSVAe.s 			page 12


 222              		.loc 1 406 0
 223              		.cfi_startproc
 224              		@ args = 0, pretend = 0, frame = 0
 225              		@ frame_needed = 0, uses_anonymous_args = 0
 226              		@ link register save eliminated.
 407:Generated_Source\PSoC4/Async_Feedback_Counter.c ****    #if(Async_Feedback_Counter_UsingFixedFunction)
 408:Generated_Source\PSoC4/Async_Feedback_Counter.c ****        return ((uint8)CY_GET_REG16(Async_Feedback_Counter_PERIOD_LSB_PTR));
 409:Generated_Source\PSoC4/Async_Feedback_Counter.c ****    #else
 410:Generated_Source\PSoC4/Async_Feedback_Counter.c ****        return (CY_GET_REG8(Async_Feedback_Counter_PERIOD_LSB_PTR));
 227              		.loc 1 410 0
 228 0000 014B     		ldr	r3, .L23
 229 0002 1878     		ldrb	r0, [r3]
 230 0004 C0B2     		uxtb	r0, r0
 411:Generated_Source\PSoC4/Async_Feedback_Counter.c ****    #endif /* (Async_Feedback_Counter_UsingFixedFunction) */
 412:Generated_Source\PSoC4/Async_Feedback_Counter.c **** }
 231              		.loc 1 412 0
 232              		@ sp needed
 233 0006 7047     		bx	lr
 234              	.L24:
 235              		.align	2
 236              	.L23:
 237 0008 20000F40 		.word	1074724896
 238              		.cfi_endproc
 239              	.LFE10:
 240              		.size	Async_Feedback_Counter_ReadPeriod, .-Async_Feedback_Counter_ReadPeriod
 241              		.section	.text.Async_Feedback_Counter_WritePeriod,"ax",%progbits
 242              		.align	2
 243              		.global	Async_Feedback_Counter_WritePeriod
 244              		.code	16
 245              		.thumb_func
 246              		.type	Async_Feedback_Counter_WritePeriod, %function
 247              	Async_Feedback_Counter_WritePeriod:
 248              	.LFB11:
 413:Generated_Source\PSoC4/Async_Feedback_Counter.c **** 
 414:Generated_Source\PSoC4/Async_Feedback_Counter.c **** 
 415:Generated_Source\PSoC4/Async_Feedback_Counter.c **** /*******************************************************************************
 416:Generated_Source\PSoC4/Async_Feedback_Counter.c **** * Function Name: Async_Feedback_Counter_WritePeriod
 417:Generated_Source\PSoC4/Async_Feedback_Counter.c **** ********************************************************************************
 418:Generated_Source\PSoC4/Async_Feedback_Counter.c **** *
 419:Generated_Source\PSoC4/Async_Feedback_Counter.c **** * Summary:
 420:Generated_Source\PSoC4/Async_Feedback_Counter.c **** *  This function is used to change the period of the counter.  The new period
 421:Generated_Source\PSoC4/Async_Feedback_Counter.c **** *  will be loaded the next time terminal count is detected.
 422:Generated_Source\PSoC4/Async_Feedback_Counter.c **** *
 423:Generated_Source\PSoC4/Async_Feedback_Counter.c **** * Parameters:
 424:Generated_Source\PSoC4/Async_Feedback_Counter.c **** *  period: This value may be between 1 and (2^Resolution)-1.  A value of 0 will
 425:Generated_Source\PSoC4/Async_Feedback_Counter.c **** *          result in the counter remaining at zero.
 426:Generated_Source\PSoC4/Async_Feedback_Counter.c **** *
 427:Generated_Source\PSoC4/Async_Feedback_Counter.c **** * Return:
 428:Generated_Source\PSoC4/Async_Feedback_Counter.c **** *  void
 429:Generated_Source\PSoC4/Async_Feedback_Counter.c **** *
 430:Generated_Source\PSoC4/Async_Feedback_Counter.c **** *******************************************************************************/
 431:Generated_Source\PSoC4/Async_Feedback_Counter.c **** void Async_Feedback_Counter_WritePeriod(uint8 period) 
 432:Generated_Source\PSoC4/Async_Feedback_Counter.c **** {
 249              		.loc 1 432 0
 250              		.cfi_startproc
 251              		@ args = 0, pretend = 0, frame = 0
 252              		@ frame_needed = 0, uses_anonymous_args = 0
ARM GAS  C:\Users\TERENC~1\AppData\Local\Temp\cc6CSVAe.s 			page 13


 253              		@ link register save eliminated.
 254              	.LVL2:
 433:Generated_Source\PSoC4/Async_Feedback_Counter.c ****     #if(Async_Feedback_Counter_UsingFixedFunction)
 434:Generated_Source\PSoC4/Async_Feedback_Counter.c ****         uint16 period_temp = (uint16)period;
 435:Generated_Source\PSoC4/Async_Feedback_Counter.c ****         CY_SET_REG16(Async_Feedback_Counter_PERIOD_LSB_PTR, period_temp);
 436:Generated_Source\PSoC4/Async_Feedback_Counter.c ****     #else
 437:Generated_Source\PSoC4/Async_Feedback_Counter.c ****         CY_SET_REG8(Async_Feedback_Counter_PERIOD_LSB_PTR, period);
 255              		.loc 1 437 0
 256 0000 014B     		ldr	r3, .L26
 257 0002 1870     		strb	r0, [r3]
 438:Generated_Source\PSoC4/Async_Feedback_Counter.c ****     #endif /*Write Period value with appropriate resolution suffix depending on UDB or fixed functi
 439:Generated_Source\PSoC4/Async_Feedback_Counter.c **** }
 258              		.loc 1 439 0
 259              		@ sp needed
 260 0004 7047     		bx	lr
 261              	.L27:
 262 0006 C046     		.align	2
 263              	.L26:
 264 0008 20000F40 		.word	1074724896
 265              		.cfi_endproc
 266              	.LFE11:
 267              		.size	Async_Feedback_Counter_WritePeriod, .-Async_Feedback_Counter_WritePeriod
 268              		.section	.text.Async_Feedback_Counter_ReadCapture,"ax",%progbits
 269              		.align	2
 270              		.global	Async_Feedback_Counter_ReadCapture
 271              		.code	16
 272              		.thumb_func
 273              		.type	Async_Feedback_Counter_ReadCapture, %function
 274              	Async_Feedback_Counter_ReadCapture:
 275              	.LFB12:
 440:Generated_Source\PSoC4/Async_Feedback_Counter.c **** 
 441:Generated_Source\PSoC4/Async_Feedback_Counter.c **** 
 442:Generated_Source\PSoC4/Async_Feedback_Counter.c **** /*******************************************************************************
 443:Generated_Source\PSoC4/Async_Feedback_Counter.c **** * Function Name: Async_Feedback_Counter_ReadCapture
 444:Generated_Source\PSoC4/Async_Feedback_Counter.c **** ********************************************************************************
 445:Generated_Source\PSoC4/Async_Feedback_Counter.c **** *
 446:Generated_Source\PSoC4/Async_Feedback_Counter.c **** * Summary:
 447:Generated_Source\PSoC4/Async_Feedback_Counter.c **** *  This function returns the last value captured.
 448:Generated_Source\PSoC4/Async_Feedback_Counter.c **** *
 449:Generated_Source\PSoC4/Async_Feedback_Counter.c **** * Parameters:
 450:Generated_Source\PSoC4/Async_Feedback_Counter.c **** *  void
 451:Generated_Source\PSoC4/Async_Feedback_Counter.c **** *
 452:Generated_Source\PSoC4/Async_Feedback_Counter.c **** * Return:
 453:Generated_Source\PSoC4/Async_Feedback_Counter.c **** *  Present Capture value.
 454:Generated_Source\PSoC4/Async_Feedback_Counter.c **** *
 455:Generated_Source\PSoC4/Async_Feedback_Counter.c **** *******************************************************************************/
 456:Generated_Source\PSoC4/Async_Feedback_Counter.c **** uint8 Async_Feedback_Counter_ReadCapture(void) 
 457:Generated_Source\PSoC4/Async_Feedback_Counter.c **** {
 276              		.loc 1 457 0
 277              		.cfi_startproc
 278              		@ args = 0, pretend = 0, frame = 0
 279              		@ frame_needed = 0, uses_anonymous_args = 0
 280              		@ link register save eliminated.
 458:Generated_Source\PSoC4/Async_Feedback_Counter.c ****    #if(Async_Feedback_Counter_UsingFixedFunction)
 459:Generated_Source\PSoC4/Async_Feedback_Counter.c ****        return ((uint8)CY_GET_REG16(Async_Feedback_Counter_CAPTURE_LSB_PTR));
 460:Generated_Source\PSoC4/Async_Feedback_Counter.c ****    #else
 461:Generated_Source\PSoC4/Async_Feedback_Counter.c ****        return (CY_GET_REG8(Async_Feedback_Counter_CAPTURE_LSB_PTR));
ARM GAS  C:\Users\TERENC~1\AppData\Local\Temp\cc6CSVAe.s 			page 14


 281              		.loc 1 461 0
 282 0000 014B     		ldr	r3, .L29
 283 0002 1878     		ldrb	r0, [r3]
 284 0004 C0B2     		uxtb	r0, r0
 462:Generated_Source\PSoC4/Async_Feedback_Counter.c ****    #endif /* (Async_Feedback_Counter_UsingFixedFunction) */
 463:Generated_Source\PSoC4/Async_Feedback_Counter.c **** }
 285              		.loc 1 463 0
 286              		@ sp needed
 287 0006 7047     		bx	lr
 288              	.L30:
 289              		.align	2
 290              	.L29:
 291 0008 40000F40 		.word	1074724928
 292              		.cfi_endproc
 293              	.LFE12:
 294              		.size	Async_Feedback_Counter_ReadCapture, .-Async_Feedback_Counter_ReadCapture
 295              		.section	.text.Async_Feedback_Counter_WriteCounter,"ax",%progbits
 296              		.align	2
 297              		.global	Async_Feedback_Counter_WriteCounter
 298              		.code	16
 299              		.thumb_func
 300              		.type	Async_Feedback_Counter_WriteCounter, %function
 301              	Async_Feedback_Counter_WriteCounter:
 302              	.LFB13:
 464:Generated_Source\PSoC4/Async_Feedback_Counter.c **** 
 465:Generated_Source\PSoC4/Async_Feedback_Counter.c **** 
 466:Generated_Source\PSoC4/Async_Feedback_Counter.c **** /*******************************************************************************
 467:Generated_Source\PSoC4/Async_Feedback_Counter.c **** * Function Name: Async_Feedback_Counter_WriteCounter
 468:Generated_Source\PSoC4/Async_Feedback_Counter.c **** ********************************************************************************
 469:Generated_Source\PSoC4/Async_Feedback_Counter.c **** *
 470:Generated_Source\PSoC4/Async_Feedback_Counter.c **** * Summary:
 471:Generated_Source\PSoC4/Async_Feedback_Counter.c **** *  This funtion is used to set the counter to a specific value
 472:Generated_Source\PSoC4/Async_Feedback_Counter.c **** *
 473:Generated_Source\PSoC4/Async_Feedback_Counter.c **** * Parameters:
 474:Generated_Source\PSoC4/Async_Feedback_Counter.c **** *  counter:  New counter value.
 475:Generated_Source\PSoC4/Async_Feedback_Counter.c **** *
 476:Generated_Source\PSoC4/Async_Feedback_Counter.c **** * Return:
 477:Generated_Source\PSoC4/Async_Feedback_Counter.c **** *  void
 478:Generated_Source\PSoC4/Async_Feedback_Counter.c **** *
 479:Generated_Source\PSoC4/Async_Feedback_Counter.c **** *******************************************************************************/
 480:Generated_Source\PSoC4/Async_Feedback_Counter.c **** void Async_Feedback_Counter_WriteCounter(uint8 counter) 
 481:Generated_Source\PSoC4/Async_Feedback_Counter.c **** {
 303              		.loc 1 481 0
 304              		.cfi_startproc
 305              		@ args = 0, pretend = 0, frame = 0
 306              		@ frame_needed = 0, uses_anonymous_args = 0
 307              		@ link register save eliminated.
 308              	.LVL3:
 482:Generated_Source\PSoC4/Async_Feedback_Counter.c ****    #if(Async_Feedback_Counter_UsingFixedFunction)
 483:Generated_Source\PSoC4/Async_Feedback_Counter.c ****         /* This functionality is removed until a FixedFunction HW update to
 484:Generated_Source\PSoC4/Async_Feedback_Counter.c ****          * allow this register to be written
 485:Generated_Source\PSoC4/Async_Feedback_Counter.c ****          */
 486:Generated_Source\PSoC4/Async_Feedback_Counter.c ****         CY_SET_REG16(Async_Feedback_Counter_COUNTER_LSB_PTR, (uint16)counter);
 487:Generated_Source\PSoC4/Async_Feedback_Counter.c ****         
 488:Generated_Source\PSoC4/Async_Feedback_Counter.c ****     #else
 489:Generated_Source\PSoC4/Async_Feedback_Counter.c ****         CY_SET_REG8(Async_Feedback_Counter_COUNTER_LSB_PTR, counter);
 309              		.loc 1 489 0
ARM GAS  C:\Users\TERENC~1\AppData\Local\Temp\cc6CSVAe.s 			page 15


 310 0000 014B     		ldr	r3, .L32
 311 0002 1870     		strb	r0, [r3]
 490:Generated_Source\PSoC4/Async_Feedback_Counter.c ****     #endif /* Set Write Counter only for the UDB implementation (Write Counter not available in fix
 491:Generated_Source\PSoC4/Async_Feedback_Counter.c **** }
 312              		.loc 1 491 0
 313              		@ sp needed
 314 0004 7047     		bx	lr
 315              	.L33:
 316 0006 C046     		.align	2
 317              	.L32:
 318 0008 00000F40 		.word	1074724864
 319              		.cfi_endproc
 320              	.LFE13:
 321              		.size	Async_Feedback_Counter_WriteCounter, .-Async_Feedback_Counter_WriteCounter
 322              		.section	.text.Async_Feedback_Counter_ReadCounter,"ax",%progbits
 323              		.align	2
 324              		.global	Async_Feedback_Counter_ReadCounter
 325              		.code	16
 326              		.thumb_func
 327              		.type	Async_Feedback_Counter_ReadCounter, %function
 328              	Async_Feedback_Counter_ReadCounter:
 329              	.LFB14:
 492:Generated_Source\PSoC4/Async_Feedback_Counter.c **** 
 493:Generated_Source\PSoC4/Async_Feedback_Counter.c **** 
 494:Generated_Source\PSoC4/Async_Feedback_Counter.c **** /*******************************************************************************
 495:Generated_Source\PSoC4/Async_Feedback_Counter.c **** * Function Name: Async_Feedback_Counter_ReadCounter
 496:Generated_Source\PSoC4/Async_Feedback_Counter.c **** ********************************************************************************
 497:Generated_Source\PSoC4/Async_Feedback_Counter.c **** *
 498:Generated_Source\PSoC4/Async_Feedback_Counter.c **** * Summary:
 499:Generated_Source\PSoC4/Async_Feedback_Counter.c **** *  This function returns the current counter value.
 500:Generated_Source\PSoC4/Async_Feedback_Counter.c **** *
 501:Generated_Source\PSoC4/Async_Feedback_Counter.c **** * Parameters:
 502:Generated_Source\PSoC4/Async_Feedback_Counter.c **** *  void
 503:Generated_Source\PSoC4/Async_Feedback_Counter.c **** *
 504:Generated_Source\PSoC4/Async_Feedback_Counter.c **** * Return:
 505:Generated_Source\PSoC4/Async_Feedback_Counter.c **** *  Present compare value.
 506:Generated_Source\PSoC4/Async_Feedback_Counter.c **** *
 507:Generated_Source\PSoC4/Async_Feedback_Counter.c **** *******************************************************************************/
 508:Generated_Source\PSoC4/Async_Feedback_Counter.c **** uint8 Async_Feedback_Counter_ReadCounter(void) 
 509:Generated_Source\PSoC4/Async_Feedback_Counter.c **** {
 330              		.loc 1 509 0
 331              		.cfi_startproc
 332              		@ args = 0, pretend = 0, frame = 0
 333              		@ frame_needed = 0, uses_anonymous_args = 0
 334              		@ link register save eliminated.
 510:Generated_Source\PSoC4/Async_Feedback_Counter.c ****     /* Force capture by reading Accumulator */
 511:Generated_Source\PSoC4/Async_Feedback_Counter.c ****     /* Must first do a software capture to be able to read the counter */
 512:Generated_Source\PSoC4/Async_Feedback_Counter.c ****     /* It is up to the user code to make sure there isn't already captured data in the FIFO */
 513:Generated_Source\PSoC4/Async_Feedback_Counter.c ****     #if(Async_Feedback_Counter_UsingFixedFunction)
 514:Generated_Source\PSoC4/Async_Feedback_Counter.c ****         (void)CY_GET_REG16(Async_Feedback_Counter_COUNTER_LSB_PTR);
 515:Generated_Source\PSoC4/Async_Feedback_Counter.c ****     #else
 516:Generated_Source\PSoC4/Async_Feedback_Counter.c ****         (void)CY_GET_REG8(Async_Feedback_Counter_COUNTER_LSB_PTR_8BIT);
 335              		.loc 1 516 0
 336 0000 024B     		ldr	r3, .L35
 337 0002 1B78     		ldrb	r3, [r3]
 517:Generated_Source\PSoC4/Async_Feedback_Counter.c ****     #endif/* (Async_Feedback_Counter_UsingFixedFunction) */
 518:Generated_Source\PSoC4/Async_Feedback_Counter.c **** 
ARM GAS  C:\Users\TERENC~1\AppData\Local\Temp\cc6CSVAe.s 			page 16


 519:Generated_Source\PSoC4/Async_Feedback_Counter.c ****     /* Read the data from the FIFO (or capture register for Fixed Function)*/
 520:Generated_Source\PSoC4/Async_Feedback_Counter.c ****     #if(Async_Feedback_Counter_UsingFixedFunction)
 521:Generated_Source\PSoC4/Async_Feedback_Counter.c ****         return ((uint8)CY_GET_REG16(Async_Feedback_Counter_CAPTURE_LSB_PTR));
 522:Generated_Source\PSoC4/Async_Feedback_Counter.c ****     #else
 523:Generated_Source\PSoC4/Async_Feedback_Counter.c ****         return (CY_GET_REG8(Async_Feedback_Counter_CAPTURE_LSB_PTR));
 338              		.loc 1 523 0
 339 0004 024B     		ldr	r3, .L35+4
 340 0006 1878     		ldrb	r0, [r3]
 341 0008 C0B2     		uxtb	r0, r0
 524:Generated_Source\PSoC4/Async_Feedback_Counter.c ****     #endif /* (Async_Feedback_Counter_UsingFixedFunction) */
 525:Generated_Source\PSoC4/Async_Feedback_Counter.c **** }
 342              		.loc 1 525 0
 343              		@ sp needed
 344 000a 7047     		bx	lr
 345              	.L36:
 346              		.align	2
 347              	.L35:
 348 000c 00000F40 		.word	1074724864
 349 0010 40000F40 		.word	1074724928
 350              		.cfi_endproc
 351              	.LFE14:
 352              		.size	Async_Feedback_Counter_ReadCounter, .-Async_Feedback_Counter_ReadCounter
 353              		.section	.text.Async_Feedback_Counter_ClearFIFO,"ax",%progbits
 354              		.align	2
 355              		.global	Async_Feedback_Counter_ClearFIFO
 356              		.code	16
 357              		.thumb_func
 358              		.type	Async_Feedback_Counter_ClearFIFO, %function
 359              	Async_Feedback_Counter_ClearFIFO:
 360              	.LFB15:
 526:Generated_Source\PSoC4/Async_Feedback_Counter.c **** 
 527:Generated_Source\PSoC4/Async_Feedback_Counter.c **** 
 528:Generated_Source\PSoC4/Async_Feedback_Counter.c **** #if(!Async_Feedback_Counter_UsingFixedFunction) /* UDB Specific Functions */
 529:Generated_Source\PSoC4/Async_Feedback_Counter.c **** 
 530:Generated_Source\PSoC4/Async_Feedback_Counter.c ****     
 531:Generated_Source\PSoC4/Async_Feedback_Counter.c **** /*******************************************************************************
 532:Generated_Source\PSoC4/Async_Feedback_Counter.c ****  * The functions below this point are only available using the UDB
 533:Generated_Source\PSoC4/Async_Feedback_Counter.c ****  * implementation.  If a feature is selected, then the API is enabled.
 534:Generated_Source\PSoC4/Async_Feedback_Counter.c ****  ******************************************************************************/
 535:Generated_Source\PSoC4/Async_Feedback_Counter.c **** 
 536:Generated_Source\PSoC4/Async_Feedback_Counter.c **** 
 537:Generated_Source\PSoC4/Async_Feedback_Counter.c **** #if (Async_Feedback_Counter_SoftwareCaptureMode)
 538:Generated_Source\PSoC4/Async_Feedback_Counter.c **** 
 539:Generated_Source\PSoC4/Async_Feedback_Counter.c **** 
 540:Generated_Source\PSoC4/Async_Feedback_Counter.c **** /*******************************************************************************
 541:Generated_Source\PSoC4/Async_Feedback_Counter.c **** * Function Name: Async_Feedback_Counter_SetCaptureMode
 542:Generated_Source\PSoC4/Async_Feedback_Counter.c **** ********************************************************************************
 543:Generated_Source\PSoC4/Async_Feedback_Counter.c **** *
 544:Generated_Source\PSoC4/Async_Feedback_Counter.c **** * Summary:
 545:Generated_Source\PSoC4/Async_Feedback_Counter.c **** *  This function sets the capture mode to either rising or falling edge.
 546:Generated_Source\PSoC4/Async_Feedback_Counter.c **** *
 547:Generated_Source\PSoC4/Async_Feedback_Counter.c **** * Parameters:
 548:Generated_Source\PSoC4/Async_Feedback_Counter.c **** *  captureMode: This parameter sets the capture mode of the UDB capture feature
 549:Generated_Source\PSoC4/Async_Feedback_Counter.c **** *  The parameter values are defined using the
 550:Generated_Source\PSoC4/Async_Feedback_Counter.c **** *  #define Async_Feedback_Counter__B_TIMER__CM_NONE 0
 551:Generated_Source\PSoC4/Async_Feedback_Counter.c **** #define Async_Feedback_Counter__B_TIMER__CM_RISINGEDGE 1
 552:Generated_Source\PSoC4/Async_Feedback_Counter.c **** #define Async_Feedback_Counter__B_TIMER__CM_FALLINGEDGE 2
ARM GAS  C:\Users\TERENC~1\AppData\Local\Temp\cc6CSVAe.s 			page 17


 553:Generated_Source\PSoC4/Async_Feedback_Counter.c **** #define Async_Feedback_Counter__B_TIMER__CM_EITHEREDGE 3
 554:Generated_Source\PSoC4/Async_Feedback_Counter.c **** #define Async_Feedback_Counter__B_TIMER__CM_SOFTWARE 4
 555:Generated_Source\PSoC4/Async_Feedback_Counter.c ****  identifiers
 556:Generated_Source\PSoC4/Async_Feedback_Counter.c **** *  The following are the possible values of the parameter
 557:Generated_Source\PSoC4/Async_Feedback_Counter.c **** *  Async_Feedback_Counter__B_TIMER__CM_NONE        - Set Capture mode to None
 558:Generated_Source\PSoC4/Async_Feedback_Counter.c **** *  Async_Feedback_Counter__B_TIMER__CM_RISINGEDGE  - Rising edge of Capture input
 559:Generated_Source\PSoC4/Async_Feedback_Counter.c **** *  Async_Feedback_Counter__B_TIMER__CM_FALLINGEDGE - Falling edge of Capture input
 560:Generated_Source\PSoC4/Async_Feedback_Counter.c **** *  Async_Feedback_Counter__B_TIMER__CM_EITHEREDGE  - Either edge of Capture input
 561:Generated_Source\PSoC4/Async_Feedback_Counter.c **** *
 562:Generated_Source\PSoC4/Async_Feedback_Counter.c **** * Return:
 563:Generated_Source\PSoC4/Async_Feedback_Counter.c **** *  void
 564:Generated_Source\PSoC4/Async_Feedback_Counter.c **** *
 565:Generated_Source\PSoC4/Async_Feedback_Counter.c **** *******************************************************************************/
 566:Generated_Source\PSoC4/Async_Feedback_Counter.c **** void Async_Feedback_Counter_SetCaptureMode(uint8 captureMode) 
 567:Generated_Source\PSoC4/Async_Feedback_Counter.c **** {
 568:Generated_Source\PSoC4/Async_Feedback_Counter.c ****     /* This must only set to two bits of the control register associated */
 569:Generated_Source\PSoC4/Async_Feedback_Counter.c ****     captureMode = ((uint8)((uint8)captureMode << Async_Feedback_Counter_CTRL_CAP_MODE_SHIFT));
 570:Generated_Source\PSoC4/Async_Feedback_Counter.c ****     captureMode &= (Async_Feedback_Counter_CTRL_CAP_MODE_MASK);
 571:Generated_Source\PSoC4/Async_Feedback_Counter.c **** 
 572:Generated_Source\PSoC4/Async_Feedback_Counter.c ****     #if (!Async_Feedback_Counter_UDB_CONTROL_REG_REMOVED)
 573:Generated_Source\PSoC4/Async_Feedback_Counter.c ****         /* Clear the Current Setting */
 574:Generated_Source\PSoC4/Async_Feedback_Counter.c ****         Async_Feedback_Counter_CONTROL &= ((uint8)(~Async_Feedback_Counter_CTRL_CAP_MODE_MASK));
 575:Generated_Source\PSoC4/Async_Feedback_Counter.c **** 
 576:Generated_Source\PSoC4/Async_Feedback_Counter.c ****         /* Write The New Setting */
 577:Generated_Source\PSoC4/Async_Feedback_Counter.c ****         Async_Feedback_Counter_CONTROL |= captureMode;
 578:Generated_Source\PSoC4/Async_Feedback_Counter.c ****     #endif /* (!Async_Feedback_Counter_UDB_CONTROL_REG_REMOVED) */
 579:Generated_Source\PSoC4/Async_Feedback_Counter.c **** }
 580:Generated_Source\PSoC4/Async_Feedback_Counter.c **** #endif /* Remove API if Capture Mode is not Software Controlled */
 581:Generated_Source\PSoC4/Async_Feedback_Counter.c **** 
 582:Generated_Source\PSoC4/Async_Feedback_Counter.c **** 
 583:Generated_Source\PSoC4/Async_Feedback_Counter.c **** #if (Async_Feedback_Counter_SoftwareTriggerMode)
 584:Generated_Source\PSoC4/Async_Feedback_Counter.c **** 
 585:Generated_Source\PSoC4/Async_Feedback_Counter.c **** 
 586:Generated_Source\PSoC4/Async_Feedback_Counter.c **** /*******************************************************************************
 587:Generated_Source\PSoC4/Async_Feedback_Counter.c **** * Function Name: Async_Feedback_Counter_SetTriggerMode
 588:Generated_Source\PSoC4/Async_Feedback_Counter.c **** ********************************************************************************
 589:Generated_Source\PSoC4/Async_Feedback_Counter.c **** *
 590:Generated_Source\PSoC4/Async_Feedback_Counter.c **** * Summary:
 591:Generated_Source\PSoC4/Async_Feedback_Counter.c **** *  This function sets the trigger input mode
 592:Generated_Source\PSoC4/Async_Feedback_Counter.c **** *
 593:Generated_Source\PSoC4/Async_Feedback_Counter.c **** * Parameters:
 594:Generated_Source\PSoC4/Async_Feedback_Counter.c **** *  triggerMode: Pass one of the pre-defined Trigger Modes (except Software)
 595:Generated_Source\PSoC4/Async_Feedback_Counter.c ****     #define Async_Feedback_Counter__B_TIMER__TM_NONE 0x00u
 596:Generated_Source\PSoC4/Async_Feedback_Counter.c ****     #define Async_Feedback_Counter__B_TIMER__TM_RISINGEDGE 0x04u
 597:Generated_Source\PSoC4/Async_Feedback_Counter.c ****     #define Async_Feedback_Counter__B_TIMER__TM_FALLINGEDGE 0x08u
 598:Generated_Source\PSoC4/Async_Feedback_Counter.c ****     #define Async_Feedback_Counter__B_TIMER__TM_EITHEREDGE 0x0Cu
 599:Generated_Source\PSoC4/Async_Feedback_Counter.c ****     #define Async_Feedback_Counter__B_TIMER__TM_SOFTWARE 0x10u
 600:Generated_Source\PSoC4/Async_Feedback_Counter.c **** *
 601:Generated_Source\PSoC4/Async_Feedback_Counter.c **** * Return:
 602:Generated_Source\PSoC4/Async_Feedback_Counter.c **** *  void
 603:Generated_Source\PSoC4/Async_Feedback_Counter.c **** *
 604:Generated_Source\PSoC4/Async_Feedback_Counter.c **** *******************************************************************************/
 605:Generated_Source\PSoC4/Async_Feedback_Counter.c **** void Async_Feedback_Counter_SetTriggerMode(uint8 triggerMode) 
 606:Generated_Source\PSoC4/Async_Feedback_Counter.c **** {
 607:Generated_Source\PSoC4/Async_Feedback_Counter.c ****     /* This must only set to two bits of the control register associated */
 608:Generated_Source\PSoC4/Async_Feedback_Counter.c ****     triggerMode &= Async_Feedback_Counter_CTRL_TRIG_MODE_MASK;
 609:Generated_Source\PSoC4/Async_Feedback_Counter.c **** 
ARM GAS  C:\Users\TERENC~1\AppData\Local\Temp\cc6CSVAe.s 			page 18


 610:Generated_Source\PSoC4/Async_Feedback_Counter.c ****     #if (!Async_Feedback_Counter_UDB_CONTROL_REG_REMOVED)   /* Remove assignment if control registe
 611:Generated_Source\PSoC4/Async_Feedback_Counter.c ****     
 612:Generated_Source\PSoC4/Async_Feedback_Counter.c ****         /* Clear the Current Setting */
 613:Generated_Source\PSoC4/Async_Feedback_Counter.c ****         Async_Feedback_Counter_CONTROL &= ((uint8)(~Async_Feedback_Counter_CTRL_TRIG_MODE_MASK));
 614:Generated_Source\PSoC4/Async_Feedback_Counter.c **** 
 615:Generated_Source\PSoC4/Async_Feedback_Counter.c ****         /* Write The New Setting */
 616:Generated_Source\PSoC4/Async_Feedback_Counter.c ****         Async_Feedback_Counter_CONTROL |= (triggerMode | Async_Feedback_Counter__B_TIMER__TM_SOFTWA
 617:Generated_Source\PSoC4/Async_Feedback_Counter.c ****     #endif /* Remove code section if control register is not used */
 618:Generated_Source\PSoC4/Async_Feedback_Counter.c **** }
 619:Generated_Source\PSoC4/Async_Feedback_Counter.c **** #endif /* Remove API if Trigger Mode is not Software Controlled */
 620:Generated_Source\PSoC4/Async_Feedback_Counter.c **** 
 621:Generated_Source\PSoC4/Async_Feedback_Counter.c **** #if (Async_Feedback_Counter_EnableTriggerMode)
 622:Generated_Source\PSoC4/Async_Feedback_Counter.c **** 
 623:Generated_Source\PSoC4/Async_Feedback_Counter.c **** 
 624:Generated_Source\PSoC4/Async_Feedback_Counter.c **** /*******************************************************************************
 625:Generated_Source\PSoC4/Async_Feedback_Counter.c **** * Function Name: Async_Feedback_Counter_EnableTrigger
 626:Generated_Source\PSoC4/Async_Feedback_Counter.c **** ********************************************************************************
 627:Generated_Source\PSoC4/Async_Feedback_Counter.c **** *
 628:Generated_Source\PSoC4/Async_Feedback_Counter.c **** * Summary:
 629:Generated_Source\PSoC4/Async_Feedback_Counter.c **** *  Sets the control bit enabling Hardware Trigger mode
 630:Generated_Source\PSoC4/Async_Feedback_Counter.c **** *
 631:Generated_Source\PSoC4/Async_Feedback_Counter.c **** * Parameters:
 632:Generated_Source\PSoC4/Async_Feedback_Counter.c **** *  void
 633:Generated_Source\PSoC4/Async_Feedback_Counter.c **** *
 634:Generated_Source\PSoC4/Async_Feedback_Counter.c **** * Return:
 635:Generated_Source\PSoC4/Async_Feedback_Counter.c **** *  void
 636:Generated_Source\PSoC4/Async_Feedback_Counter.c **** *
 637:Generated_Source\PSoC4/Async_Feedback_Counter.c **** *******************************************************************************/
 638:Generated_Source\PSoC4/Async_Feedback_Counter.c **** void Async_Feedback_Counter_EnableTrigger(void) 
 639:Generated_Source\PSoC4/Async_Feedback_Counter.c **** {
 640:Generated_Source\PSoC4/Async_Feedback_Counter.c ****     #if (!Async_Feedback_Counter_UDB_CONTROL_REG_REMOVED)   /* Remove assignment if control registe
 641:Generated_Source\PSoC4/Async_Feedback_Counter.c ****         Async_Feedback_Counter_CONTROL |= Async_Feedback_Counter_CTRL_TRIG_EN;
 642:Generated_Source\PSoC4/Async_Feedback_Counter.c ****     #endif /* Remove code section if control register is not used */
 643:Generated_Source\PSoC4/Async_Feedback_Counter.c **** }
 644:Generated_Source\PSoC4/Async_Feedback_Counter.c **** 
 645:Generated_Source\PSoC4/Async_Feedback_Counter.c **** 
 646:Generated_Source\PSoC4/Async_Feedback_Counter.c **** /*******************************************************************************
 647:Generated_Source\PSoC4/Async_Feedback_Counter.c **** * Function Name: Async_Feedback_Counter_DisableTrigger
 648:Generated_Source\PSoC4/Async_Feedback_Counter.c **** ********************************************************************************
 649:Generated_Source\PSoC4/Async_Feedback_Counter.c **** *
 650:Generated_Source\PSoC4/Async_Feedback_Counter.c **** * Summary:
 651:Generated_Source\PSoC4/Async_Feedback_Counter.c **** *  Clears the control bit enabling Hardware Trigger mode
 652:Generated_Source\PSoC4/Async_Feedback_Counter.c **** *
 653:Generated_Source\PSoC4/Async_Feedback_Counter.c **** * Parameters:
 654:Generated_Source\PSoC4/Async_Feedback_Counter.c **** *  void
 655:Generated_Source\PSoC4/Async_Feedback_Counter.c **** *
 656:Generated_Source\PSoC4/Async_Feedback_Counter.c **** * Return:
 657:Generated_Source\PSoC4/Async_Feedback_Counter.c **** *  void
 658:Generated_Source\PSoC4/Async_Feedback_Counter.c **** *
 659:Generated_Source\PSoC4/Async_Feedback_Counter.c **** *******************************************************************************/
 660:Generated_Source\PSoC4/Async_Feedback_Counter.c **** void Async_Feedback_Counter_DisableTrigger(void) 
 661:Generated_Source\PSoC4/Async_Feedback_Counter.c **** {
 662:Generated_Source\PSoC4/Async_Feedback_Counter.c ****     #if (!Async_Feedback_Counter_UDB_CONTROL_REG_REMOVED )   /* Remove assignment if control regist
 663:Generated_Source\PSoC4/Async_Feedback_Counter.c ****         Async_Feedback_Counter_CONTROL &= ((uint8)(~Async_Feedback_Counter_CTRL_TRIG_EN));
 664:Generated_Source\PSoC4/Async_Feedback_Counter.c ****     #endif /* Remove code section if control register is not used */
 665:Generated_Source\PSoC4/Async_Feedback_Counter.c **** }
 666:Generated_Source\PSoC4/Async_Feedback_Counter.c **** #endif /* Remove API is Trigger Mode is set to None */
ARM GAS  C:\Users\TERENC~1\AppData\Local\Temp\cc6CSVAe.s 			page 19


 667:Generated_Source\PSoC4/Async_Feedback_Counter.c **** 
 668:Generated_Source\PSoC4/Async_Feedback_Counter.c **** #if(Async_Feedback_Counter_InterruptOnCaptureCount)
 669:Generated_Source\PSoC4/Async_Feedback_Counter.c **** 
 670:Generated_Source\PSoC4/Async_Feedback_Counter.c **** 
 671:Generated_Source\PSoC4/Async_Feedback_Counter.c **** /*******************************************************************************
 672:Generated_Source\PSoC4/Async_Feedback_Counter.c **** * Function Name: Async_Feedback_Counter_SetInterruptCount
 673:Generated_Source\PSoC4/Async_Feedback_Counter.c **** ********************************************************************************
 674:Generated_Source\PSoC4/Async_Feedback_Counter.c **** *
 675:Generated_Source\PSoC4/Async_Feedback_Counter.c **** * Summary:
 676:Generated_Source\PSoC4/Async_Feedback_Counter.c **** *  This function sets the capture count before an interrupt is triggered.
 677:Generated_Source\PSoC4/Async_Feedback_Counter.c **** *
 678:Generated_Source\PSoC4/Async_Feedback_Counter.c **** * Parameters:
 679:Generated_Source\PSoC4/Async_Feedback_Counter.c **** *  interruptCount:  A value between 0 and 3 is valid.  If the value is 0, then
 680:Generated_Source\PSoC4/Async_Feedback_Counter.c **** *                   an interrupt will occur each time a capture occurs.
 681:Generated_Source\PSoC4/Async_Feedback_Counter.c **** *                   A value of 1 to 3 will cause the interrupt
 682:Generated_Source\PSoC4/Async_Feedback_Counter.c **** *                   to delay by the same number of captures.
 683:Generated_Source\PSoC4/Async_Feedback_Counter.c **** *
 684:Generated_Source\PSoC4/Async_Feedback_Counter.c **** * Return:
 685:Generated_Source\PSoC4/Async_Feedback_Counter.c **** *  void
 686:Generated_Source\PSoC4/Async_Feedback_Counter.c **** *
 687:Generated_Source\PSoC4/Async_Feedback_Counter.c **** *******************************************************************************/
 688:Generated_Source\PSoC4/Async_Feedback_Counter.c **** void Async_Feedback_Counter_SetInterruptCount(uint8 interruptCount) 
 689:Generated_Source\PSoC4/Async_Feedback_Counter.c **** {
 690:Generated_Source\PSoC4/Async_Feedback_Counter.c ****     /* This must only set to two bits of the control register associated */
 691:Generated_Source\PSoC4/Async_Feedback_Counter.c ****     interruptCount &= Async_Feedback_Counter_CTRL_INTCNT_MASK;
 692:Generated_Source\PSoC4/Async_Feedback_Counter.c **** 
 693:Generated_Source\PSoC4/Async_Feedback_Counter.c ****     #if (!Async_Feedback_Counter_UDB_CONTROL_REG_REMOVED)
 694:Generated_Source\PSoC4/Async_Feedback_Counter.c ****         /* Clear the Current Setting */
 695:Generated_Source\PSoC4/Async_Feedback_Counter.c ****         Async_Feedback_Counter_CONTROL &= ((uint8)(~Async_Feedback_Counter_CTRL_INTCNT_MASK));
 696:Generated_Source\PSoC4/Async_Feedback_Counter.c ****         /* Write The New Setting */
 697:Generated_Source\PSoC4/Async_Feedback_Counter.c ****         Async_Feedback_Counter_CONTROL |= interruptCount;
 698:Generated_Source\PSoC4/Async_Feedback_Counter.c ****     #endif /* (!Async_Feedback_Counter_UDB_CONTROL_REG_REMOVED) */
 699:Generated_Source\PSoC4/Async_Feedback_Counter.c **** }
 700:Generated_Source\PSoC4/Async_Feedback_Counter.c **** #endif /* Async_Feedback_Counter_InterruptOnCaptureCount */
 701:Generated_Source\PSoC4/Async_Feedback_Counter.c **** 
 702:Generated_Source\PSoC4/Async_Feedback_Counter.c **** 
 703:Generated_Source\PSoC4/Async_Feedback_Counter.c **** #if (Async_Feedback_Counter_UsingHWCaptureCounter)
 704:Generated_Source\PSoC4/Async_Feedback_Counter.c **** 
 705:Generated_Source\PSoC4/Async_Feedback_Counter.c **** 
 706:Generated_Source\PSoC4/Async_Feedback_Counter.c **** /*******************************************************************************
 707:Generated_Source\PSoC4/Async_Feedback_Counter.c **** * Function Name: Async_Feedback_Counter_SetCaptureCount
 708:Generated_Source\PSoC4/Async_Feedback_Counter.c **** ********************************************************************************
 709:Generated_Source\PSoC4/Async_Feedback_Counter.c **** *
 710:Generated_Source\PSoC4/Async_Feedback_Counter.c **** * Summary:
 711:Generated_Source\PSoC4/Async_Feedback_Counter.c **** *  This function sets the capture count
 712:Generated_Source\PSoC4/Async_Feedback_Counter.c **** *
 713:Generated_Source\PSoC4/Async_Feedback_Counter.c **** * Parameters:
 714:Generated_Source\PSoC4/Async_Feedback_Counter.c **** *  captureCount: A value between 2 and 127 inclusive is valid.  A value of 1
 715:Generated_Source\PSoC4/Async_Feedback_Counter.c **** *                to 127 will cause the interrupt to delay by the same number of
 716:Generated_Source\PSoC4/Async_Feedback_Counter.c **** *                captures.
 717:Generated_Source\PSoC4/Async_Feedback_Counter.c **** *
 718:Generated_Source\PSoC4/Async_Feedback_Counter.c **** * Return:
 719:Generated_Source\PSoC4/Async_Feedback_Counter.c **** *  void
 720:Generated_Source\PSoC4/Async_Feedback_Counter.c **** *
 721:Generated_Source\PSoC4/Async_Feedback_Counter.c **** *******************************************************************************/
 722:Generated_Source\PSoC4/Async_Feedback_Counter.c **** void Async_Feedback_Counter_SetCaptureCount(uint8 captureCount) 
 723:Generated_Source\PSoC4/Async_Feedback_Counter.c **** {
ARM GAS  C:\Users\TERENC~1\AppData\Local\Temp\cc6CSVAe.s 			page 20


 724:Generated_Source\PSoC4/Async_Feedback_Counter.c ****     Async_Feedback_Counter_CAP_COUNT = captureCount;
 725:Generated_Source\PSoC4/Async_Feedback_Counter.c **** }
 726:Generated_Source\PSoC4/Async_Feedback_Counter.c **** 
 727:Generated_Source\PSoC4/Async_Feedback_Counter.c **** 
 728:Generated_Source\PSoC4/Async_Feedback_Counter.c **** /*******************************************************************************
 729:Generated_Source\PSoC4/Async_Feedback_Counter.c **** * Function Name: Async_Feedback_Counter_ReadCaptureCount
 730:Generated_Source\PSoC4/Async_Feedback_Counter.c **** ********************************************************************************
 731:Generated_Source\PSoC4/Async_Feedback_Counter.c **** *
 732:Generated_Source\PSoC4/Async_Feedback_Counter.c **** * Summary:
 733:Generated_Source\PSoC4/Async_Feedback_Counter.c **** *  This function reads the capture count setting
 734:Generated_Source\PSoC4/Async_Feedback_Counter.c **** *
 735:Generated_Source\PSoC4/Async_Feedback_Counter.c **** * Parameters:
 736:Generated_Source\PSoC4/Async_Feedback_Counter.c **** *  void
 737:Generated_Source\PSoC4/Async_Feedback_Counter.c **** *
 738:Generated_Source\PSoC4/Async_Feedback_Counter.c **** * Return:
 739:Generated_Source\PSoC4/Async_Feedback_Counter.c **** *  Returns the Capture Count Setting
 740:Generated_Source\PSoC4/Async_Feedback_Counter.c **** *
 741:Generated_Source\PSoC4/Async_Feedback_Counter.c **** *******************************************************************************/
 742:Generated_Source\PSoC4/Async_Feedback_Counter.c **** uint8 Async_Feedback_Counter_ReadCaptureCount(void) 
 743:Generated_Source\PSoC4/Async_Feedback_Counter.c **** {
 744:Generated_Source\PSoC4/Async_Feedback_Counter.c ****     return ((uint8)Async_Feedback_Counter_CAP_COUNT);
 745:Generated_Source\PSoC4/Async_Feedback_Counter.c **** }
 746:Generated_Source\PSoC4/Async_Feedback_Counter.c **** #endif /* Async_Feedback_Counter_UsingHWCaptureCounter */
 747:Generated_Source\PSoC4/Async_Feedback_Counter.c **** 
 748:Generated_Source\PSoC4/Async_Feedback_Counter.c **** 
 749:Generated_Source\PSoC4/Async_Feedback_Counter.c **** /*******************************************************************************
 750:Generated_Source\PSoC4/Async_Feedback_Counter.c **** * Function Name: Async_Feedback_Counter_ClearFIFO
 751:Generated_Source\PSoC4/Async_Feedback_Counter.c **** ********************************************************************************
 752:Generated_Source\PSoC4/Async_Feedback_Counter.c **** *
 753:Generated_Source\PSoC4/Async_Feedback_Counter.c **** * Summary:
 754:Generated_Source\PSoC4/Async_Feedback_Counter.c **** *  This function clears all capture data from the capture FIFO
 755:Generated_Source\PSoC4/Async_Feedback_Counter.c **** *
 756:Generated_Source\PSoC4/Async_Feedback_Counter.c **** * Parameters:
 757:Generated_Source\PSoC4/Async_Feedback_Counter.c **** *  void
 758:Generated_Source\PSoC4/Async_Feedback_Counter.c **** *
 759:Generated_Source\PSoC4/Async_Feedback_Counter.c **** * Return:
 760:Generated_Source\PSoC4/Async_Feedback_Counter.c **** *  void
 761:Generated_Source\PSoC4/Async_Feedback_Counter.c **** *
 762:Generated_Source\PSoC4/Async_Feedback_Counter.c **** *******************************************************************************/
 763:Generated_Source\PSoC4/Async_Feedback_Counter.c **** void Async_Feedback_Counter_ClearFIFO(void) 
 764:Generated_Source\PSoC4/Async_Feedback_Counter.c **** {
 361              		.loc 1 764 0
 362              		.cfi_startproc
 363              		@ args = 0, pretend = 0, frame = 0
 364              		@ frame_needed = 0, uses_anonymous_args = 0
 365 0000 10B5     		push	{r4, lr}
 366              		.cfi_def_cfa_offset 8
 367              		.cfi_offset 4, -8
 368              		.cfi_offset 14, -4
 765:Generated_Source\PSoC4/Async_Feedback_Counter.c ****     while(0u != (Async_Feedback_Counter_ReadStatusRegister() & Async_Feedback_Counter_STATUS_FIFONE
 369              		.loc 1 765 0
 370 0002 01E0     		b	.L38
 371              	.L39:
 766:Generated_Source\PSoC4/Async_Feedback_Counter.c ****     {
 767:Generated_Source\PSoC4/Async_Feedback_Counter.c ****         (void)Async_Feedback_Counter_ReadCapture();
 372              		.loc 1 767 0
 373 0004 FFF7FEFF 		bl	Async_Feedback_Counter_ReadCapture
ARM GAS  C:\Users\TERENC~1\AppData\Local\Temp\cc6CSVAe.s 			page 21


 374              	.LVL4:
 375              	.L38:
 765:Generated_Source\PSoC4/Async_Feedback_Counter.c ****     while(0u != (Async_Feedback_Counter_ReadStatusRegister() & Async_Feedback_Counter_STATUS_FIFONE
 376              		.loc 1 765 0
 377 0008 FFF7FEFF 		bl	Async_Feedback_Counter_ReadStatusRegister
 378              	.LVL5:
 379 000c 0307     		lsls	r3, r0, #28
 380 000e F9D4     		bmi	.L39
 768:Generated_Source\PSoC4/Async_Feedback_Counter.c ****     }
 769:Generated_Source\PSoC4/Async_Feedback_Counter.c **** }
 381              		.loc 1 769 0
 382              		@ sp needed
 383 0010 10BD     		pop	{r4, pc}
 384              		.cfi_endproc
 385              	.LFE15:
 386              		.size	Async_Feedback_Counter_ClearFIFO, .-Async_Feedback_Counter_ClearFIFO
 387 0012 C046     		.section	.text.Async_Feedback_Counter_Init,"ax",%progbits
 388              		.align	2
 389              		.global	Async_Feedback_Counter_Init
 390              		.code	16
 391              		.thumb_func
 392              		.type	Async_Feedback_Counter_Init, %function
 393              	Async_Feedback_Counter_Init:
 394              	.LFB1:
  44:Generated_Source\PSoC4/Async_Feedback_Counter.c ****     #if(!Async_Feedback_Counter_UsingFixedFunction)
 395              		.loc 1 44 0
 396              		.cfi_startproc
 397              		@ args = 0, pretend = 0, frame = 0
 398              		@ frame_needed = 0, uses_anonymous_args = 0
 399 0000 10B5     		push	{r4, lr}
 400              		.cfi_def_cfa_offset 8
 401              		.cfi_offset 4, -8
 402              		.cfi_offset 14, -4
 118:Generated_Source\PSoC4/Async_Feedback_Counter.c ****     Async_Feedback_Counter_WriteCounter(Async_Feedback_Counter_INIT_PERIOD);
 403              		.loc 1 118 0
 404 0002 FF20     		movs	r0, #255
 405 0004 FFF7FEFF 		bl	Async_Feedback_Counter_WritePeriod
 406              	.LVL6:
 119:Generated_Source\PSoC4/Async_Feedback_Counter.c **** 
 407              		.loc 1 119 0
 408 0008 FF20     		movs	r0, #255
 409 000a FFF7FEFF 		bl	Async_Feedback_Counter_WriteCounter
 410              	.LVL7:
 142:Generated_Source\PSoC4/Async_Feedback_Counter.c **** 
 411              		.loc 1 142 0
 412 000e FFF7FEFF 		bl	CyEnterCriticalSection
 413              	.LVL8:
 145:Generated_Source\PSoC4/Async_Feedback_Counter.c **** 
 414              		.loc 1 145 0
 415 0012 074A     		ldr	r2, .L41
 416 0014 1178     		ldrb	r1, [r2]
 417 0016 1023     		movs	r3, #16
 418 0018 0B43     		orrs	r3, r1
 419 001a DBB2     		uxtb	r3, r3
 420 001c 1370     		strb	r3, [r2]
 148:Generated_Source\PSoC4/Async_Feedback_Counter.c **** 
 421              		.loc 1 148 0
ARM GAS  C:\Users\TERENC~1\AppData\Local\Temp\cc6CSVAe.s 			page 22


 422 001e FFF7FEFF 		bl	CyExitCriticalSection
 423              	.LVL9:
 159:Generated_Source\PSoC4/Async_Feedback_Counter.c ****     #endif /* Configure additional features of UDB implementation */
 424              		.loc 1 159 0
 425 0022 FFF7FEFF 		bl	Async_Feedback_Counter_ClearFIFO
 426              	.LVL10:
 162:Generated_Source\PSoC4/Async_Feedback_Counter.c **** }
 427              		.loc 1 162 0
 428 0026 0020     		movs	r0, #0
 429 0028 FFF7FEFF 		bl	Async_Feedback_Counter_SetInterruptMode
 430              	.LVL11:
 163:Generated_Source\PSoC4/Async_Feedback_Counter.c **** 
 431              		.loc 1 163 0
 432              		@ sp needed
 433 002c 10BD     		pop	{r4, pc}
 434              	.L42:
 435 002e C046     		.align	2
 436              	.L41:
 437 0030 90000F40 		.word	1074725008
 438              		.cfi_endproc
 439              	.LFE1:
 440              		.size	Async_Feedback_Counter_Init, .-Async_Feedback_Counter_Init
 441              		.section	.text.Async_Feedback_Counter_Start,"ax",%progbits
 442              		.align	2
 443              		.global	Async_Feedback_Counter_Start
 444              		.code	16
 445              		.thumb_func
 446              		.type	Async_Feedback_Counter_Start, %function
 447              	Async_Feedback_Counter_Start:
 448              	.LFB3:
 216:Generated_Source\PSoC4/Async_Feedback_Counter.c ****     if(Async_Feedback_Counter_initVar == 0u)
 449              		.loc 1 216 0
 450              		.cfi_startproc
 451              		@ args = 0, pretend = 0, frame = 0
 452              		@ frame_needed = 0, uses_anonymous_args = 0
 453 0000 10B5     		push	{r4, lr}
 454              		.cfi_def_cfa_offset 8
 455              		.cfi_offset 4, -8
 456              		.cfi_offset 14, -4
 217:Generated_Source\PSoC4/Async_Feedback_Counter.c ****     {
 457              		.loc 1 217 0
 458 0002 064B     		ldr	r3, .L45
 459 0004 1B78     		ldrb	r3, [r3]
 460 0006 002B     		cmp	r3, #0
 461 0008 04D1     		bne	.L44
 219:Generated_Source\PSoC4/Async_Feedback_Counter.c **** 
 462              		.loc 1 219 0
 463 000a FFF7FEFF 		bl	Async_Feedback_Counter_Init
 464              	.LVL12:
 221:Generated_Source\PSoC4/Async_Feedback_Counter.c ****     }
 465              		.loc 1 221 0
 466 000e 0122     		movs	r2, #1
 467 0010 024B     		ldr	r3, .L45
 468 0012 1A70     		strb	r2, [r3]
 469              	.L44:
 225:Generated_Source\PSoC4/Async_Feedback_Counter.c **** }
 470              		.loc 1 225 0
ARM GAS  C:\Users\TERENC~1\AppData\Local\Temp\cc6CSVAe.s 			page 23


 471 0014 FFF7FEFF 		bl	Async_Feedback_Counter_Enable
 472              	.LVL13:
 226:Generated_Source\PSoC4/Async_Feedback_Counter.c **** 
 473              		.loc 1 226 0
 474              		@ sp needed
 475 0018 10BD     		pop	{r4, pc}
 476              	.L46:
 477 001a C046     		.align	2
 478              	.L45:
 479 001c 00000000 		.word	.LANCHOR0
 480              		.cfi_endproc
 481              	.LFE3:
 482              		.size	Async_Feedback_Counter_Start, .-Async_Feedback_Counter_Start
 483              		.global	Async_Feedback_Counter_initVar
 484              		.bss
 485              		.set	.LANCHOR0,. + 0
 486              		.type	Async_Feedback_Counter_initVar, %object
 487              		.size	Async_Feedback_Counter_initVar, 1
 488              	Async_Feedback_Counter_initVar:
 489 0000 00       		.space	1
 490              		.text
 491              	.Letext0:
 492              		.file 2 "Generated_Source\\PSoC4\\cytypes.h"
 493              		.file 3 "Generated_Source\\PSoC4\\CyLib.h"