ARM GAS  C:\Users\TERENC~1\AppData\Local\Temp\ccjR28lu.s 			page 1


   1              		.syntax unified
   2              		.cpu cortex-m0
   3              		.fpu softvfp
   4              		.eabi_attribute 20, 1
   5              		.eabi_attribute 21, 1
   6              		.eabi_attribute 23, 3
   7              		.eabi_attribute 24, 1
   8              		.eabi_attribute 25, 1
   9              		.eabi_attribute 26, 1
  10              		.eabi_attribute 30, 1
  11              		.eabi_attribute 34, 0
  12              		.eabi_attribute 18, 4
  13              		.thumb
  14              		.syntax unified
  15              		.file	"CapSense_CSHL.c"
  16              		.text
  17              	.Ltext0:
  18              		.cfi_sections	.debug_frame
  19              		.section	.text.CapSense_BaseInit,"ax",%progbits
  20              		.align	2
  21              		.global	CapSense_BaseInit
  22              		.code	16
  23              		.thumb_func
  24              		.type	CapSense_BaseInit, %function
  25              	CapSense_BaseInit:
  26              	.LFB33:
  27              		.file 1 "Generated_Source\\PSoC4\\CapSense_CSHL.c"
   1:Generated_Source\PSoC4/CapSense_CSHL.c **** /*******************************************************************************
   2:Generated_Source\PSoC4/CapSense_CSHL.c **** * File Name: CapSense_CSHL.c
   3:Generated_Source\PSoC4/CapSense_CSHL.c **** * Version 2.60
   4:Generated_Source\PSoC4/CapSense_CSHL.c **** *
   5:Generated_Source\PSoC4/CapSense_CSHL.c **** * Description:
   6:Generated_Source\PSoC4/CapSense_CSHL.c **** *  This file provides the source code to the High Level APIs for the CapSesne
   7:Generated_Source\PSoC4/CapSense_CSHL.c **** *  CSD component.
   8:Generated_Source\PSoC4/CapSense_CSHL.c **** *
   9:Generated_Source\PSoC4/CapSense_CSHL.c **** * Note:
  10:Generated_Source\PSoC4/CapSense_CSHL.c **** *
  11:Generated_Source\PSoC4/CapSense_CSHL.c **** ********************************************************************************
  12:Generated_Source\PSoC4/CapSense_CSHL.c **** * Copyright 2013-2016, Cypress Semiconductor Corporation.  All rights reserved.
  13:Generated_Source\PSoC4/CapSense_CSHL.c **** * You may use this file only in accordance with the license, terms, conditions,
  14:Generated_Source\PSoC4/CapSense_CSHL.c **** * disclaimers, and limitations in the end user license agreement accompanying
  15:Generated_Source\PSoC4/CapSense_CSHL.c **** * the software package with which this file was provided.
  16:Generated_Source\PSoC4/CapSense_CSHL.c **** *******************************************************************************/
  17:Generated_Source\PSoC4/CapSense_CSHL.c **** 
  18:Generated_Source\PSoC4/CapSense_CSHL.c **** #include "CapSense_CSHL.h"
  19:Generated_Source\PSoC4/CapSense_CSHL.c **** #include "CapSense_PVT.h"
  20:Generated_Source\PSoC4/CapSense_CSHL.c **** 
  21:Generated_Source\PSoC4/CapSense_CSHL.c **** /* SmartSense functions */
  22:Generated_Source\PSoC4/CapSense_CSHL.c **** #if (CapSense_TUNING_METHOD == CapSense__TUNING_AUTO)
  23:Generated_Source\PSoC4/CapSense_CSHL.c ****     extern void CapSense_UpdateThresholds(uint32 sensor);
  24:Generated_Source\PSoC4/CapSense_CSHL.c **** #endif /* (CapSense_TUNING_METHOD == CapSense__TUNING_AUTO) */
  25:Generated_Source\PSoC4/CapSense_CSHL.c **** 
  26:Generated_Source\PSoC4/CapSense_CSHL.c **** /* Storage of filters data */
  27:Generated_Source\PSoC4/CapSense_CSHL.c **** #if ( (0u != (CapSense_RAW_FILTER_MASK & CapSense_MEDIAN_FILTER)) || \
  28:Generated_Source\PSoC4/CapSense_CSHL.c ****       (0u != (CapSense_RAW_FILTER_MASK & CapSense_AVERAGING_FILTER)) )
  29:Generated_Source\PSoC4/CapSense_CSHL.c **** 
  30:Generated_Source\PSoC4/CapSense_CSHL.c ****     uint16 CapSense_rawFilterData1[CapSense_TOTAL_SENSOR_COUNT];
ARM GAS  C:\Users\TERENC~1\AppData\Local\Temp\ccjR28lu.s 			page 2


  31:Generated_Source\PSoC4/CapSense_CSHL.c ****     uint16 CapSense_rawFilterData2[CapSense_TOTAL_SENSOR_COUNT];
  32:Generated_Source\PSoC4/CapSense_CSHL.c **** 
  33:Generated_Source\PSoC4/CapSense_CSHL.c **** #elif ( (0u != (CapSense_RAW_FILTER_MASK & CapSense_IIR2_FILTER))   || \
  34:Generated_Source\PSoC4/CapSense_CSHL.c ****         (0u != (CapSense_RAW_FILTER_MASK & CapSense_IIR4_FILTER))   || \
  35:Generated_Source\PSoC4/CapSense_CSHL.c ****         (0u != (CapSense_RAW_FILTER_MASK & CapSense_JITTER_FILTER)) || \
  36:Generated_Source\PSoC4/CapSense_CSHL.c ****         (0u != (CapSense_RAW_FILTER_MASK & CapSense_IIR8_FILTER))   || \
  37:Generated_Source\PSoC4/CapSense_CSHL.c ****         (0u != (CapSense_RAW_FILTER_MASK & CapSense_IIR16_FILTER)) )
  38:Generated_Source\PSoC4/CapSense_CSHL.c **** 
  39:Generated_Source\PSoC4/CapSense_CSHL.c ****     uint16 CapSense_rawFilterData1[CapSense_TOTAL_SENSOR_COUNT];
  40:Generated_Source\PSoC4/CapSense_CSHL.c **** #endif  /* ( (CapSense_RAW_FILTER_MASK & CapSense_MEDIAN_FILTER) || \
  41:Generated_Source\PSoC4/CapSense_CSHL.c ****         *    (CapSense_RAW_FILTER_MASK & CapSense_AVERAGING_FILTER) )
  42:Generated_Source\PSoC4/CapSense_CSHL.c ****         */
  43:Generated_Source\PSoC4/CapSense_CSHL.c **** 
  44:Generated_Source\PSoC4/CapSense_CSHL.c **** extern uint16 CapSense_sensorRaw[CapSense_TOTAL_SENSOR_COUNT];
  45:Generated_Source\PSoC4/CapSense_CSHL.c **** extern uint8 CapSense_sensorEnableMask[CapSense_TOTAL_SENSOR_MASK];
  46:Generated_Source\PSoC4/CapSense_CSHL.c **** extern const uint8 CapSense_widgetNumber[CapSense_TOTAL_SENSOR_COUNT];
  47:Generated_Source\PSoC4/CapSense_CSHL.c **** 
  48:Generated_Source\PSoC4/CapSense_CSHL.c **** #if (CapSense_TUNING_METHOD != CapSense__TUNING_NONE)
  49:Generated_Source\PSoC4/CapSense_CSHL.c ****     extern uint32 CapSense_widgetResolution[CapSense_RESOLUTIONS_TBL_SIZE];
  50:Generated_Source\PSoC4/CapSense_CSHL.c **** #endif /* (CapSense_TUNING_METHOD != CapSense__TUNING_NONE) */
  51:Generated_Source\PSoC4/CapSense_CSHL.c **** 
  52:Generated_Source\PSoC4/CapSense_CSHL.c **** uint16 CapSense_sensorBaseline[CapSense_TOTAL_SENSOR_COUNT] = {0u};
  53:Generated_Source\PSoC4/CapSense_CSHL.c **** uint8 CapSense_sensorBaselineLow[CapSense_TOTAL_SENSOR_COUNT] = {0u};
  54:Generated_Source\PSoC4/CapSense_CSHL.c **** uint8 CapSense_sensorSignal[CapSense_TOTAL_SENSOR_COUNT] = {0u};
  55:Generated_Source\PSoC4/CapSense_CSHL.c **** uint8 CapSense_sensorOnMask[CapSense_TOTAL_SENSOR_MASK] = {0u};
  56:Generated_Source\PSoC4/CapSense_CSHL.c **** 
  57:Generated_Source\PSoC4/CapSense_CSHL.c **** uint8 CapSense_lowBaselineResetCnt[CapSense_TOTAL_SENSOR_COUNT];
  58:Generated_Source\PSoC4/CapSense_CSHL.c **** uint8 CapSense_lowBaselineReset[CapSense_TOTAL_SENSOR_COUNT] = {
  59:Generated_Source\PSoC4/CapSense_CSHL.c ****     30u, 30u, 30u, 30u, 30u, 30u, 30u, 30u, 30u, 30u, 30u, 30u, 30u, 
  60:Generated_Source\PSoC4/CapSense_CSHL.c **** };
  61:Generated_Source\PSoC4/CapSense_CSHL.c **** 
  62:Generated_Source\PSoC4/CapSense_CSHL.c **** 
  63:Generated_Source\PSoC4/CapSense_CSHL.c **** 
  64:Generated_Source\PSoC4/CapSense_CSHL.c **** #if (CapSense_TUNING_METHOD == CapSense__TUNING_AUTO)
  65:Generated_Source\PSoC4/CapSense_CSHL.c ****     extern CapSense_CONFIG_TYPE_P4_v2_60 CapSense_config;
  66:Generated_Source\PSoC4/CapSense_CSHL.c **** #endif  /* (CapSense_TUNING_METHOD == CapSense__TUNING_AUTO) */
  67:Generated_Source\PSoC4/CapSense_CSHL.c **** 
  68:Generated_Source\PSoC4/CapSense_CSHL.c **** #if (CapSense_RAW_FILTER_MASK != 0u)
  69:Generated_Source\PSoC4/CapSense_CSHL.c **** uint8 CapSense_enableRawFilters = CapSense_RAW_FILTERS_ENABLED;
  70:Generated_Source\PSoC4/CapSense_CSHL.c **** #endif  /* (CapSense_RAW_FILTER_MASK != 0u) */
  71:Generated_Source\PSoC4/CapSense_CSHL.c **** 
  72:Generated_Source\PSoC4/CapSense_CSHL.c **** /* Generated by Customizer */
  73:Generated_Source\PSoC4/CapSense_CSHL.c **** uint8 CapSense_fingerThreshold[] = {
  74:Generated_Source\PSoC4/CapSense_CSHL.c ****     100u, 200u, 200u, 200u, 200u, 100u, 
  75:Generated_Source\PSoC4/CapSense_CSHL.c **** };
  76:Generated_Source\PSoC4/CapSense_CSHL.c **** 
  77:Generated_Source\PSoC4/CapSense_CSHL.c **** uint8 CapSense_noiseThreshold[CapSense_THRESHOLD_TBL_SIZE];
  78:Generated_Source\PSoC4/CapSense_CSHL.c **** 
  79:Generated_Source\PSoC4/CapSense_CSHL.c **** uint8 CapSense_negativeNoiseThreshold[CapSense_THRESHOLD_TBL_SIZE];
  80:Generated_Source\PSoC4/CapSense_CSHL.c **** 
  81:Generated_Source\PSoC4/CapSense_CSHL.c **** uint8 CapSense_hysteresis[CapSense_WIDGET_PARAM_TBL_SIZE];
  82:Generated_Source\PSoC4/CapSense_CSHL.c **** 
  83:Generated_Source\PSoC4/CapSense_CSHL.c **** uint8 CapSense_debounce[] = {
  84:Generated_Source\PSoC4/CapSense_CSHL.c ****     1u, 2u, 2u, 2u, 2u, 1u, 
  85:Generated_Source\PSoC4/CapSense_CSHL.c **** };
  86:Generated_Source\PSoC4/CapSense_CSHL.c **** 
  87:Generated_Source\PSoC4/CapSense_CSHL.c **** static uint8 CapSense_debounceCounter[] = {
ARM GAS  C:\Users\TERENC~1\AppData\Local\Temp\ccjR28lu.s 			page 3


  88:Generated_Source\PSoC4/CapSense_CSHL.c ****     0u, 0u, 0u, 0u, 0u, 0u, 
  89:Generated_Source\PSoC4/CapSense_CSHL.c **** };
  90:Generated_Source\PSoC4/CapSense_CSHL.c **** 
  91:Generated_Source\PSoC4/CapSense_CSHL.c **** const uint8 CapSense_rawDataIndex[] = {
  92:Generated_Source\PSoC4/CapSense_CSHL.c ****     5u, /* RadialSlider0__RS */
  93:Generated_Source\PSoC4/CapSense_CSHL.c ****     0u, /* Left__BTN */
  94:Generated_Source\PSoC4/CapSense_CSHL.c ****     1u, /* Right__BTN */
  95:Generated_Source\PSoC4/CapSense_CSHL.c ****     2u, /* Up__BTN */
  96:Generated_Source\PSoC4/CapSense_CSHL.c ****     3u, /* Down__BTN */
  97:Generated_Source\PSoC4/CapSense_CSHL.c ****     4u, /* Centre__BTN */
  98:Generated_Source\PSoC4/CapSense_CSHL.c **** };
  99:Generated_Source\PSoC4/CapSense_CSHL.c **** 
 100:Generated_Source\PSoC4/CapSense_CSHL.c **** const uint8 CapSense_numberOfSensors[] = {
 101:Generated_Source\PSoC4/CapSense_CSHL.c ****     8u, /* RadialSlider0__RS */
 102:Generated_Source\PSoC4/CapSense_CSHL.c ****     1u, /* Left__BTN */
 103:Generated_Source\PSoC4/CapSense_CSHL.c ****     1u, /* Right__BTN */
 104:Generated_Source\PSoC4/CapSense_CSHL.c ****     1u, /* Up__BTN */
 105:Generated_Source\PSoC4/CapSense_CSHL.c ****     1u, /* Down__BTN */
 106:Generated_Source\PSoC4/CapSense_CSHL.c ****     1u, /* Centre__BTN */
 107:Generated_Source\PSoC4/CapSense_CSHL.c **** };
 108:Generated_Source\PSoC4/CapSense_CSHL.c **** 
 109:Generated_Source\PSoC4/CapSense_CSHL.c **** static const uint16 CapSense_centroidMult[] = {
 110:Generated_Source\PSoC4/CapSense_CSHL.c ****     6400u, 
 111:Generated_Source\PSoC4/CapSense_CSHL.c **** };
 112:Generated_Source\PSoC4/CapSense_CSHL.c **** 
 113:Generated_Source\PSoC4/CapSense_CSHL.c **** static uint8 CapSense_posFiltersMask[] = {
 114:Generated_Source\PSoC4/CapSense_CSHL.c ****     0x1u, 
 115:Generated_Source\PSoC4/CapSense_CSHL.c **** };
 116:Generated_Source\PSoC4/CapSense_CSHL.c **** 
 117:Generated_Source\PSoC4/CapSense_CSHL.c **** static uint8 CapSense_posFiltersData[] = {
 118:Generated_Source\PSoC4/CapSense_CSHL.c ****     1u, 0u, 0u, 0u, 
 119:Generated_Source\PSoC4/CapSense_CSHL.c **** };
 120:Generated_Source\PSoC4/CapSense_CSHL.c **** 
 121:Generated_Source\PSoC4/CapSense_CSHL.c **** 
 122:Generated_Source\PSoC4/CapSense_CSHL.c **** 
 123:Generated_Source\PSoC4/CapSense_CSHL.c **** 
 124:Generated_Source\PSoC4/CapSense_CSHL.c **** /*******************************************************************************
 125:Generated_Source\PSoC4/CapSense_CSHL.c **** * Function Name: CapSense_BaseInit
 126:Generated_Source\PSoC4/CapSense_CSHL.c **** ********************************************************************************
 127:Generated_Source\PSoC4/CapSense_CSHL.c **** *
 128:Generated_Source\PSoC4/CapSense_CSHL.c **** * Summary:
 129:Generated_Source\PSoC4/CapSense_CSHL.c **** *  Loads the CapSense_sensorBaseline[sensor] array element with an
 130:Generated_Source\PSoC4/CapSense_CSHL.c **** *  initial value which is equal to the raw count value.
 131:Generated_Source\PSoC4/CapSense_CSHL.c **** *  Resets to zero CapSense_sensorBaselineLow[sensor] and
 132:Generated_Source\PSoC4/CapSense_CSHL.c **** *  CapSense_sensorSignal[sensor] array element.
 133:Generated_Source\PSoC4/CapSense_CSHL.c **** *  Loads the CapSense_rawFilterData2[sensor] and
 134:Generated_Source\PSoC4/CapSense_CSHL.c **** *  CapSense_rawFilterData2[sensor] array element with an
 135:Generated_Source\PSoC4/CapSense_CSHL.c **** *  initial value which is equal to the raw count value if the raw data filter is enabled.
 136:Generated_Source\PSoC4/CapSense_CSHL.c **** *
 137:Generated_Source\PSoC4/CapSense_CSHL.c **** * Parameters:
 138:Generated_Source\PSoC4/CapSense_CSHL.c **** *  sensor:  Sensor number.
 139:Generated_Source\PSoC4/CapSense_CSHL.c **** *
 140:Generated_Source\PSoC4/CapSense_CSHL.c **** * Return:
 141:Generated_Source\PSoC4/CapSense_CSHL.c **** *  None
 142:Generated_Source\PSoC4/CapSense_CSHL.c **** *
 143:Generated_Source\PSoC4/CapSense_CSHL.c **** * Global Variables:
 144:Generated_Source\PSoC4/CapSense_CSHL.c **** *  CapSense_sensorBaseline[]    - used to store the baseline value.
ARM GAS  C:\Users\TERENC~1\AppData\Local\Temp\ccjR28lu.s 			page 4


 145:Generated_Source\PSoC4/CapSense_CSHL.c **** *  CapSense_sensorBaselineLow[] - used to store the fraction byte of
 146:Generated_Source\PSoC4/CapSense_CSHL.c **** *  the baseline value.
 147:Generated_Source\PSoC4/CapSense_CSHL.c **** *  CapSense_sensorSignal[]      - used to store a difference between
 148:Generated_Source\PSoC4/CapSense_CSHL.c **** *  the current value of raw data and the previous value of the baseline.
 149:Generated_Source\PSoC4/CapSense_CSHL.c **** *  CapSense_rawFilterData1[]    - used to store a previous sample of
 150:Generated_Source\PSoC4/CapSense_CSHL.c **** *  any enabled raw data filter.
 151:Generated_Source\PSoC4/CapSense_CSHL.c **** *  CapSense_rawFilterData2[]    - used to store before a previous sample
 152:Generated_Source\PSoC4/CapSense_CSHL.c **** *  of the enabled raw data filter. Required only for median or average filters.
 153:Generated_Source\PSoC4/CapSense_CSHL.c **** *
 154:Generated_Source\PSoC4/CapSense_CSHL.c **** * Side Effects:
 155:Generated_Source\PSoC4/CapSense_CSHL.c **** *  None
 156:Generated_Source\PSoC4/CapSense_CSHL.c **** *
 157:Generated_Source\PSoC4/CapSense_CSHL.c **** *******************************************************************************/
 158:Generated_Source\PSoC4/CapSense_CSHL.c **** void CapSense_BaseInit(uint32 sensor)
 159:Generated_Source\PSoC4/CapSense_CSHL.c **** {
  28              		.loc 1 159 0
  29              		.cfi_startproc
  30              		@ args = 0, pretend = 0, frame = 0
  31              		@ frame_needed = 0, uses_anonymous_args = 0
  32              	.LVL0:
  33 0000 30B5     		push	{r4, r5, lr}
  34              		.cfi_def_cfa_offset 12
  35              		.cfi_offset 4, -12
  36              		.cfi_offset 5, -8
  37              		.cfi_offset 14, -4
 160:Generated_Source\PSoC4/CapSense_CSHL.c ****     #if ((CapSense_TOTAL_BUTTONS_COUNT) || (CapSense_TOTAL_MATRIX_BUTTONS_COUNT) || \
 161:Generated_Source\PSoC4/CapSense_CSHL.c ****          (CapSense_TOTAL_GENERICS_COUNT))
 162:Generated_Source\PSoC4/CapSense_CSHL.c ****         uint8 widget = CapSense_widgetNumber[sensor];
  38              		.loc 1 162 0
  39 0002 0C4B     		ldr	r3, .L3
  40 0004 1A5C     		ldrb	r2, [r3, r0]
  41              	.LVL1:
 163:Generated_Source\PSoC4/CapSense_CSHL.c ****     #endif /* ((CapSense_TOTAL_MATRIX_BUTTONS_COUNT) || (CapSense_TOTAL_MATRIX_BUTTONS_COUNT)) */
 164:Generated_Source\PSoC4/CapSense_CSHL.c **** 
 165:Generated_Source\PSoC4/CapSense_CSHL.c ****     #if (CapSense_TOTAL_MATRIX_BUTTONS_COUNT)
 166:Generated_Source\PSoC4/CapSense_CSHL.c ****         uint8 debounceIndex;
 167:Generated_Source\PSoC4/CapSense_CSHL.c ****     #endif  /* (CapSense_TOTAL_MATRIX_BUTTONS_COUNT) */
 168:Generated_Source\PSoC4/CapSense_CSHL.c **** 
 169:Generated_Source\PSoC4/CapSense_CSHL.c ****     #if (CapSense_TOTAL_GENERICS_COUNT)
 170:Generated_Source\PSoC4/CapSense_CSHL.c ****         /* Exclude generic widget */
 171:Generated_Source\PSoC4/CapSense_CSHL.c ****         if(widget < CapSense_END_OF_WIDGETS_INDEX)
 172:Generated_Source\PSoC4/CapSense_CSHL.c ****         {
 173:Generated_Source\PSoC4/CapSense_CSHL.c ****     #endif  /* CapSense_TOTAL_GENERICS_COUNT */
 174:Generated_Source\PSoC4/CapSense_CSHL.c **** 
 175:Generated_Source\PSoC4/CapSense_CSHL.c ****     /* Initialize Baseline */
 176:Generated_Source\PSoC4/CapSense_CSHL.c ****     CapSense_sensorBaseline[sensor] = CapSense_sensorRaw[sensor];
  42              		.loc 1 176 0
  43 0006 4400     		lsls	r4, r0, #1
  44 0008 0B4B     		ldr	r3, .L3+4
  45 000a E15A     		ldrh	r1, [r4, r3]
  46 000c 0B4B     		ldr	r3, .L3+8
  47 000e E152     		strh	r1, [r4, r3]
 177:Generated_Source\PSoC4/CapSense_CSHL.c ****     CapSense_sensorBaselineLow[sensor] = 0u;
  48              		.loc 1 177 0
  49 0010 1B18     		adds	r3, r3, r0
  50 0012 0024     		movs	r4, #0
  51 0014 1C77     		strb	r4, [r3, #28]
ARM GAS  C:\Users\TERENC~1\AppData\Local\Temp\ccjR28lu.s 			page 5


 178:Generated_Source\PSoC4/CapSense_CSHL.c ****     CapSense_sensorSignal[sensor] = 0u;
  52              		.loc 1 178 0
  53 0016 2C25     		movs	r5, #44
  54 0018 5C55     		strb	r4, [r3, r5]
 179:Generated_Source\PSoC4/CapSense_CSHL.c **** 
 180:Generated_Source\PSoC4/CapSense_CSHL.c ****     if(widget > CapSense_END_OF_TOUCH_PAD_INDEX)
  55              		.loc 1 180 0
  56 001a 002A     		cmp	r2, #0
  57 001c 06D0     		beq	.L2
 181:Generated_Source\PSoC4/CapSense_CSHL.c ****     {
 182:Generated_Source\PSoC4/CapSense_CSHL.c ****         CapSense_debounceCounter[widget - (CapSense_END_OF_TOUCH_PAD_INDEX + 1u)] =  CapSense_debou
  58              		.loc 1 182 0
  59 001e 531E     		subs	r3, r2, #1
  60 0020 074C     		ldr	r4, .L3+12
  61 0022 A45C     		ldrb	r4, [r4, r2]
  62 0024 054A     		ldr	r2, .L3+8
  63              	.LVL2:
  64 0026 D318     		adds	r3, r2, r3
  65              	.LVL3:
  66 0028 3C22     		movs	r2, #60
  67 002a 9C54     		strb	r4, [r3, r2]
  68              	.L2:
 183:Generated_Source\PSoC4/CapSense_CSHL.c ****     }
 184:Generated_Source\PSoC4/CapSense_CSHL.c **** 
 185:Generated_Source\PSoC4/CapSense_CSHL.c **** 
 186:Generated_Source\PSoC4/CapSense_CSHL.c ****     #if ((0u != (CapSense_RAW_FILTER_MASK & CapSense_MEDIAN_FILTER)) ||\
 187:Generated_Source\PSoC4/CapSense_CSHL.c ****          (0u != (CapSense_RAW_FILTER_MASK & CapSense_AVERAGING_FILTER)))
 188:Generated_Source\PSoC4/CapSense_CSHL.c **** 
 189:Generated_Source\PSoC4/CapSense_CSHL.c ****         CapSense_rawFilterData1[sensor] = CapSense_sensorRaw[sensor];
 190:Generated_Source\PSoC4/CapSense_CSHL.c ****         CapSense_rawFilterData2[sensor] = CapSense_sensorRaw[sensor];
 191:Generated_Source\PSoC4/CapSense_CSHL.c **** 
 192:Generated_Source\PSoC4/CapSense_CSHL.c ****     #elif ((CapSense_RAW_FILTER_MASK & CapSense_IIR2_FILTER) ||\
 193:Generated_Source\PSoC4/CapSense_CSHL.c ****            (CapSense_RAW_FILTER_MASK & CapSense_IIR4_FILTER) ||\
 194:Generated_Source\PSoC4/CapSense_CSHL.c ****            (CapSense_RAW_FILTER_MASK & CapSense_JITTER_FILTER) ||\
 195:Generated_Source\PSoC4/CapSense_CSHL.c ****            (CapSense_RAW_FILTER_MASK & CapSense_IIR8_FILTER) ||\
 196:Generated_Source\PSoC4/CapSense_CSHL.c ****            (CapSense_RAW_FILTER_MASK & CapSense_IIR16_FILTER))
 197:Generated_Source\PSoC4/CapSense_CSHL.c **** 
 198:Generated_Source\PSoC4/CapSense_CSHL.c ****         CapSense_rawFilterData1[sensor] = CapSense_sensorRaw[sensor];
  69              		.loc 1 198 0
  70 002c 4000     		lsls	r0, r0, #1
  71              	.LVL4:
  72 002e 054B     		ldr	r3, .L3+16
  73 0030 C152     		strh	r1, [r0, r3]
 199:Generated_Source\PSoC4/CapSense_CSHL.c **** 
 200:Generated_Source\PSoC4/CapSense_CSHL.c ****     #else
 201:Generated_Source\PSoC4/CapSense_CSHL.c ****         /* No Raw filters */
 202:Generated_Source\PSoC4/CapSense_CSHL.c ****     #endif  /* ((CapSense_RAW_FILTER_MASK & CapSense_MEDIAN_FILTER) || \
 203:Generated_Source\PSoC4/CapSense_CSHL.c ****             *   (CapSense_RAW_FILTER_MASK & CapSense_AVERAGING_FILTER))
 204:Generated_Source\PSoC4/CapSense_CSHL.c ****             */
 205:Generated_Source\PSoC4/CapSense_CSHL.c **** 
 206:Generated_Source\PSoC4/CapSense_CSHL.c ****     #if (CapSense_TOTAL_GENERICS_COUNT)
 207:Generated_Source\PSoC4/CapSense_CSHL.c ****         /* Exclude generic widget */
 208:Generated_Source\PSoC4/CapSense_CSHL.c ****         }
 209:Generated_Source\PSoC4/CapSense_CSHL.c ****     #endif  /* CapSense_TOTAL_GENERICS_COUNT */
 210:Generated_Source\PSoC4/CapSense_CSHL.c **** }
  74              		.loc 1 210 0
  75              		@ sp needed
ARM GAS  C:\Users\TERENC~1\AppData\Local\Temp\ccjR28lu.s 			page 6


  76 0032 30BD     		pop	{r4, r5, pc}
  77              	.L4:
  78              		.align	2
  79              	.L3:
  80 0034 00000000 		.word	CapSense_widgetNumber
  81 0038 00000000 		.word	CapSense_sensorRaw
  82 003c 00000000 		.word	.LANCHOR0
  83 0040 00000000 		.word	.LANCHOR1
  84 0044 00000000 		.word	CapSense_rawFilterData1
  85              		.cfi_endproc
  86              	.LFE33:
  87              		.size	CapSense_BaseInit, .-CapSense_BaseInit
  88              		.section	.text.CapSense_InitializeSensorBaseline,"ax",%progbits
  89              		.align	2
  90              		.global	CapSense_InitializeSensorBaseline
  91              		.code	16
  92              		.thumb_func
  93              		.type	CapSense_InitializeSensorBaseline, %function
  94              	CapSense_InitializeSensorBaseline:
  95              	.LFB34:
 211:Generated_Source\PSoC4/CapSense_CSHL.c **** 
 212:Generated_Source\PSoC4/CapSense_CSHL.c **** 
 213:Generated_Source\PSoC4/CapSense_CSHL.c **** /*******************************************************************************
 214:Generated_Source\PSoC4/CapSense_CSHL.c **** * Function Name: CapSense_InitializeSensorBaseline
 215:Generated_Source\PSoC4/CapSense_CSHL.c **** ********************************************************************************
 216:Generated_Source\PSoC4/CapSense_CSHL.c **** *
 217:Generated_Source\PSoC4/CapSense_CSHL.c **** * Summary:
 218:Generated_Source\PSoC4/CapSense_CSHL.c **** *  Loads the CapSense_sensorBaseline[sensor] array element with an
 219:Generated_Source\PSoC4/CapSense_CSHL.c **** *  initial value by scanning the selected sensor (one channel design) or a pair
 220:Generated_Source\PSoC4/CapSense_CSHL.c **** *  of sensors (two channels designs). The raw count value is copied into the
 221:Generated_Source\PSoC4/CapSense_CSHL.c **** *  baseline array for each sensor. The raw data filters are initialized if
 222:Generated_Source\PSoC4/CapSense_CSHL.c **** *  enabled.
 223:Generated_Source\PSoC4/CapSense_CSHL.c **** *
 224:Generated_Source\PSoC4/CapSense_CSHL.c **** * Parameters:
 225:Generated_Source\PSoC4/CapSense_CSHL.c **** *  sensor:  Sensor number.
 226:Generated_Source\PSoC4/CapSense_CSHL.c **** *
 227:Generated_Source\PSoC4/CapSense_CSHL.c **** * Return:
 228:Generated_Source\PSoC4/CapSense_CSHL.c **** *  None
 229:Generated_Source\PSoC4/CapSense_CSHL.c **** *
 230:Generated_Source\PSoC4/CapSense_CSHL.c **** * Global Variables:
 231:Generated_Source\PSoC4/CapSense_CSHL.c **** *  None
 232:Generated_Source\PSoC4/CapSense_CSHL.c **** *
 233:Generated_Source\PSoC4/CapSense_CSHL.c **** * Side Effects:
 234:Generated_Source\PSoC4/CapSense_CSHL.c **** *  None
 235:Generated_Source\PSoC4/CapSense_CSHL.c **** *
 236:Generated_Source\PSoC4/CapSense_CSHL.c **** *******************************************************************************/
 237:Generated_Source\PSoC4/CapSense_CSHL.c **** void CapSense_InitializeSensorBaseline(uint32 sensor)
 238:Generated_Source\PSoC4/CapSense_CSHL.c **** {
  96              		.loc 1 238 0
  97              		.cfi_startproc
  98              		@ args = 0, pretend = 0, frame = 0
  99              		@ frame_needed = 0, uses_anonymous_args = 0
 100              	.LVL5:
 101 0000 10B5     		push	{r4, lr}
 102              		.cfi_def_cfa_offset 8
 103              		.cfi_offset 4, -8
 104              		.cfi_offset 14, -4
ARM GAS  C:\Users\TERENC~1\AppData\Local\Temp\ccjR28lu.s 			page 7


 105 0002 0400     		movs	r4, r0
 239:Generated_Source\PSoC4/CapSense_CSHL.c ****     /* Scan sensor */
 240:Generated_Source\PSoC4/CapSense_CSHL.c ****     CapSense_ScanSensor(sensor);
 106              		.loc 1 240 0
 107 0004 FFF7FEFF 		bl	CapSense_ScanSensor
 108              	.LVL6:
 109              	.L6:
 241:Generated_Source\PSoC4/CapSense_CSHL.c ****     while(CapSense_IsBusy() != 0u)
 110              		.loc 1 241 0 discriminator 1
 111 0008 FFF7FEFF 		bl	CapSense_IsBusy
 112              	.LVL7:
 113 000c 0028     		cmp	r0, #0
 114 000e FBD1     		bne	.L6
 242:Generated_Source\PSoC4/CapSense_CSHL.c ****     {
 243:Generated_Source\PSoC4/CapSense_CSHL.c ****         /* Wait while sensor is busy */
 244:Generated_Source\PSoC4/CapSense_CSHL.c ****     }
 245:Generated_Source\PSoC4/CapSense_CSHL.c **** 
 246:Generated_Source\PSoC4/CapSense_CSHL.c ****     /* Initialize Baseline, Signal and debounce counters */
 247:Generated_Source\PSoC4/CapSense_CSHL.c ****     CapSense_BaseInit(sensor);
 115              		.loc 1 247 0
 116 0010 2000     		movs	r0, r4
 117 0012 FFF7FEFF 		bl	CapSense_BaseInit
 118              	.LVL8:
 248:Generated_Source\PSoC4/CapSense_CSHL.c **** }
 119              		.loc 1 248 0
 120              		@ sp needed
 121              	.LVL9:
 122 0016 10BD     		pop	{r4, pc}
 123              		.cfi_endproc
 124              	.LFE34:
 125              		.size	CapSense_InitializeSensorBaseline, .-CapSense_InitializeSensorBaseline
 126              		.section	.text.CapSense_InitializeAllBaselines,"ax",%progbits
 127              		.align	2
 128              		.global	CapSense_InitializeAllBaselines
 129              		.code	16
 130              		.thumb_func
 131              		.type	CapSense_InitializeAllBaselines, %function
 132              	CapSense_InitializeAllBaselines:
 133              	.LFB35:
 249:Generated_Source\PSoC4/CapSense_CSHL.c **** 
 250:Generated_Source\PSoC4/CapSense_CSHL.c **** 
 251:Generated_Source\PSoC4/CapSense_CSHL.c **** /*******************************************************************************
 252:Generated_Source\PSoC4/CapSense_CSHL.c **** * Function Name: CapSense_InitializeAllBaselines
 253:Generated_Source\PSoC4/CapSense_CSHL.c **** ********************************************************************************
 254:Generated_Source\PSoC4/CapSense_CSHL.c **** *
 255:Generated_Source\PSoC4/CapSense_CSHL.c **** * Summary:
 256:Generated_Source\PSoC4/CapSense_CSHL.c **** *  Uses the CapSense_InitializeSensorBaseline function to load the
 257:Generated_Source\PSoC4/CapSense_CSHL.c **** *  CapSense_sensorBaseline[] array with an initial values by scanning
 258:Generated_Source\PSoC4/CapSense_CSHL.c **** *  all the sensors. The raw count values are copied into the baseline array for
 259:Generated_Source\PSoC4/CapSense_CSHL.c **** *  all the sensors. The raw data filters are initialized if enabled.
 260:Generated_Source\PSoC4/CapSense_CSHL.c **** *
 261:Generated_Source\PSoC4/CapSense_CSHL.c **** * Parameters:
 262:Generated_Source\PSoC4/CapSense_CSHL.c **** *  None
 263:Generated_Source\PSoC4/CapSense_CSHL.c **** *
 264:Generated_Source\PSoC4/CapSense_CSHL.c **** * Return:
 265:Generated_Source\PSoC4/CapSense_CSHL.c **** *  None
 266:Generated_Source\PSoC4/CapSense_CSHL.c **** *
ARM GAS  C:\Users\TERENC~1\AppData\Local\Temp\ccjR28lu.s 			page 8


 267:Generated_Source\PSoC4/CapSense_CSHL.c **** * Global Variables:
 268:Generated_Source\PSoC4/CapSense_CSHL.c **** *  None
 269:Generated_Source\PSoC4/CapSense_CSHL.c **** *
 270:Generated_Source\PSoC4/CapSense_CSHL.c **** * Side Effects:
 271:Generated_Source\PSoC4/CapSense_CSHL.c **** *  None
 272:Generated_Source\PSoC4/CapSense_CSHL.c **** *
 273:Generated_Source\PSoC4/CapSense_CSHL.c **** *******************************************************************************/
 274:Generated_Source\PSoC4/CapSense_CSHL.c **** void CapSense_InitializeAllBaselines(void)
 275:Generated_Source\PSoC4/CapSense_CSHL.c **** {
 134              		.loc 1 275 0
 135              		.cfi_startproc
 136              		@ args = 0, pretend = 0, frame = 0
 137              		@ frame_needed = 0, uses_anonymous_args = 0
 138 0000 10B5     		push	{r4, lr}
 139              		.cfi_def_cfa_offset 8
 140              		.cfi_offset 4, -8
 141              		.cfi_offset 14, -4
 142              	.LVL10:
 276:Generated_Source\PSoC4/CapSense_CSHL.c ****     uint32 i;
 277:Generated_Source\PSoC4/CapSense_CSHL.c **** 
 278:Generated_Source\PSoC4/CapSense_CSHL.c ****     for(i = 0u; i < CapSense_TOTAL_SCANSLOT_COUNT; i++)
 143              		.loc 1 278 0
 144 0002 0024     		movs	r4, #0
 145 0004 03E0     		b	.L8
 146              	.LVL11:
 147              	.L9:
 279:Generated_Source\PSoC4/CapSense_CSHL.c ****     {
 280:Generated_Source\PSoC4/CapSense_CSHL.c ****         CapSense_InitializeSensorBaseline(i);
 148              		.loc 1 280 0 discriminator 3
 149 0006 2000     		movs	r0, r4
 150 0008 FFF7FEFF 		bl	CapSense_InitializeSensorBaseline
 151              	.LVL12:
 278:Generated_Source\PSoC4/CapSense_CSHL.c ****     {
 152              		.loc 1 278 0 discriminator 3
 153 000c 0134     		adds	r4, r4, #1
 154              	.LVL13:
 155              	.L8:
 278:Generated_Source\PSoC4/CapSense_CSHL.c ****     {
 156              		.loc 1 278 0 is_stmt 0 discriminator 1
 157 000e 0C2C     		cmp	r4, #12
 158 0010 F9D9     		bls	.L9
 281:Generated_Source\PSoC4/CapSense_CSHL.c ****     }
 282:Generated_Source\PSoC4/CapSense_CSHL.c **** }
 159              		.loc 1 282 0 is_stmt 1
 160              		@ sp needed
 161              	.LVL14:
 162 0012 10BD     		pop	{r4, pc}
 163              		.cfi_endproc
 164              	.LFE35:
 165              		.size	CapSense_InitializeAllBaselines, .-CapSense_InitializeAllBaselines
 166              		.section	.text.CapSense_InitializeEnabledBaselines,"ax",%progbits
 167              		.align	2
 168              		.global	CapSense_InitializeEnabledBaselines
 169              		.code	16
 170              		.thumb_func
 171              		.type	CapSense_InitializeEnabledBaselines, %function
 172              	CapSense_InitializeEnabledBaselines:
ARM GAS  C:\Users\TERENC~1\AppData\Local\Temp\ccjR28lu.s 			page 9


 173              	.LFB36:
 283:Generated_Source\PSoC4/CapSense_CSHL.c **** 
 284:Generated_Source\PSoC4/CapSense_CSHL.c **** 
 285:Generated_Source\PSoC4/CapSense_CSHL.c **** /*******************************************************************************
 286:Generated_Source\PSoC4/CapSense_CSHL.c **** * Function Name: CapSense_InitializeEnabledBaselines
 287:Generated_Source\PSoC4/CapSense_CSHL.c **** ********************************************************************************
 288:Generated_Source\PSoC4/CapSense_CSHL.c **** *
 289:Generated_Source\PSoC4/CapSense_CSHL.c **** * Summary:
 290:Generated_Source\PSoC4/CapSense_CSHL.c **** *  Scans all the enabled widgets and the raw count values are copied into the
 291:Generated_Source\PSoC4/CapSense_CSHL.c **** *  baseline array for all the sensors enabled in the scanning process. The baselines
 292:Generated_Source\PSoC4/CapSense_CSHL.c **** *  are initialized with zero values for sensors disabled from the scanning process.
 293:Generated_Source\PSoC4/CapSense_CSHL.c **** *  The raw data filters are initialized if enabled.
 294:Generated_Source\PSoC4/CapSense_CSHL.c **** *
 295:Generated_Source\PSoC4/CapSense_CSHL.c **** * Parameters:
 296:Generated_Source\PSoC4/CapSense_CSHL.c **** *  None
 297:Generated_Source\PSoC4/CapSense_CSHL.c **** *
 298:Generated_Source\PSoC4/CapSense_CSHL.c **** * Return:
 299:Generated_Source\PSoC4/CapSense_CSHL.c **** *  None
 300:Generated_Source\PSoC4/CapSense_CSHL.c **** *
 301:Generated_Source\PSoC4/CapSense_CSHL.c **** * Global Variables:
 302:Generated_Source\PSoC4/CapSense_CSHL.c **** *  CapSense_sensorRaw[] - used to store the sensors raw data.
 303:Generated_Source\PSoC4/CapSense_CSHL.c **** *  CapSense_sensorEnableMask[ ] - used to store bit masks of the enabled sensors.
 304:Generated_Source\PSoC4/CapSense_CSHL.c **** *
 305:Generated_Source\PSoC4/CapSense_CSHL.c **** * Side Effects:
 306:Generated_Source\PSoC4/CapSense_CSHL.c **** *  None
 307:Generated_Source\PSoC4/CapSense_CSHL.c **** *
 308:Generated_Source\PSoC4/CapSense_CSHL.c **** *******************************************************************************/
 309:Generated_Source\PSoC4/CapSense_CSHL.c **** void CapSense_InitializeEnabledBaselines(void)
 310:Generated_Source\PSoC4/CapSense_CSHL.c **** {
 174              		.loc 1 310 0
 175              		.cfi_startproc
 176              		@ args = 0, pretend = 0, frame = 0
 177              		@ frame_needed = 0, uses_anonymous_args = 0
 178 0000 10B5     		push	{r4, lr}
 179              		.cfi_def_cfa_offset 8
 180              		.cfi_offset 4, -8
 181              		.cfi_offset 14, -4
 311:Generated_Source\PSoC4/CapSense_CSHL.c ****     uint32 i;
 312:Generated_Source\PSoC4/CapSense_CSHL.c ****     uint32 isSensorEnabled;
 313:Generated_Source\PSoC4/CapSense_CSHL.c **** 
 314:Generated_Source\PSoC4/CapSense_CSHL.c ****     CapSense_ScanEnabledWidgets();
 182              		.loc 1 314 0
 183 0002 FFF7FEFF 		bl	CapSense_ScanEnabledWidgets
 184              	.LVL15:
 185              	.L11:
 315:Generated_Source\PSoC4/CapSense_CSHL.c ****     while(CapSense_IsBusy() != 0u)
 186              		.loc 1 315 0 discriminator 1
 187 0006 FFF7FEFF 		bl	CapSense_IsBusy
 188              	.LVL16:
 189 000a 0028     		cmp	r0, #0
 190 000c FBD1     		bne	.L11
 191 000e 0024     		movs	r4, #0
 192 0010 09E0     		b	.L12
 193              	.LVL17:
 194              	.L14:
 316:Generated_Source\PSoC4/CapSense_CSHL.c ****     {
 317:Generated_Source\PSoC4/CapSense_CSHL.c ****         /* Wait while sensor is busy */
ARM GAS  C:\Users\TERENC~1\AppData\Local\Temp\ccjR28lu.s 			page 10


 318:Generated_Source\PSoC4/CapSense_CSHL.c ****     }
 319:Generated_Source\PSoC4/CapSense_CSHL.c **** 
 320:Generated_Source\PSoC4/CapSense_CSHL.c ****     for(i = 0u; i < CapSense_TOTAL_SENSOR_COUNT; i++)
 321:Generated_Source\PSoC4/CapSense_CSHL.c ****     {
 322:Generated_Source\PSoC4/CapSense_CSHL.c ****         isSensorEnabled = CapSense_GetBitValue(CapSense_sensorEnableMask, i);
 195              		.loc 1 322 0
 196 0012 2100     		movs	r1, r4
 197 0014 0548     		ldr	r0, .L15
 198 0016 FFF7FEFF 		bl	CapSense_GetBitValue
 199              	.LVL18:
 323:Generated_Source\PSoC4/CapSense_CSHL.c **** 
 324:Generated_Source\PSoC4/CapSense_CSHL.c ****         /* Clear raw data if sensor is disabled from scanning process */
 325:Generated_Source\PSoC4/CapSense_CSHL.c ****         if(isSensorEnabled != 0u)
 200              		.loc 1 325 0
 201 001a 0028     		cmp	r0, #0
 202 001c 02D0     		beq	.L13
 326:Generated_Source\PSoC4/CapSense_CSHL.c ****         {
 327:Generated_Source\PSoC4/CapSense_CSHL.c ****             /* Initialize baselines */
 328:Generated_Source\PSoC4/CapSense_CSHL.c ****             CapSense_BaseInit(i);
 203              		.loc 1 328 0
 204 001e 2000     		movs	r0, r4
 205              	.LVL19:
 206 0020 FFF7FEFF 		bl	CapSense_BaseInit
 207              	.LVL20:
 208              	.L13:
 320:Generated_Source\PSoC4/CapSense_CSHL.c ****     {
 209              		.loc 1 320 0 discriminator 2
 210 0024 0134     		adds	r4, r4, #1
 211              	.LVL21:
 212              	.L12:
 320:Generated_Source\PSoC4/CapSense_CSHL.c ****     {
 213              		.loc 1 320 0 is_stmt 0 discriminator 1
 214 0026 0C2C     		cmp	r4, #12
 215 0028 F3D9     		bls	.L14
 329:Generated_Source\PSoC4/CapSense_CSHL.c ****         }
 330:Generated_Source\PSoC4/CapSense_CSHL.c ****     }
 331:Generated_Source\PSoC4/CapSense_CSHL.c **** }
 216              		.loc 1 331 0 is_stmt 1
 217              		@ sp needed
 218              	.LVL22:
 219 002a 10BD     		pop	{r4, pc}
 220              	.L16:
 221              		.align	2
 222              	.L15:
 223 002c 00000000 		.word	CapSense_sensorEnableMask
 224              		.cfi_endproc
 225              	.LFE36:
 226              		.size	CapSense_InitializeEnabledBaselines, .-CapSense_InitializeEnabledBaselines
 227              		.section	.text.CapSense_GetBaselineData,"ax",%progbits
 228              		.align	2
 229              		.global	CapSense_GetBaselineData
 230              		.code	16
 231              		.thumb_func
 232              		.type	CapSense_GetBaselineData, %function
 233              	CapSense_GetBaselineData:
 234              	.LFB41:
 332:Generated_Source\PSoC4/CapSense_CSHL.c **** 
ARM GAS  C:\Users\TERENC~1\AppData\Local\Temp\ccjR28lu.s 			page 11


 333:Generated_Source\PSoC4/CapSense_CSHL.c **** 
 334:Generated_Source\PSoC4/CapSense_CSHL.c **** /*******************************************************************************
 335:Generated_Source\PSoC4/CapSense_CSHL.c **** * Function Name: CapSense_UpdateBaselineNoThreshold
 336:Generated_Source\PSoC4/CapSense_CSHL.c **** ********************************************************************************
 337:Generated_Source\PSoC4/CapSense_CSHL.c **** *
 338:Generated_Source\PSoC4/CapSense_CSHL.c **** * Summary:
 339:Generated_Source\PSoC4/CapSense_CSHL.c **** *  Updates the CapSense_sensorBaseline[sensor] array element using the
 340:Generated_Source\PSoC4/CapSense_CSHL.c **** *  LP filter with k = 256. The signal calculates the difference of count by
 341:Generated_Source\PSoC4/CapSense_CSHL.c **** *  subtracting the previous baseline from the current raw count value and stores
 342:Generated_Source\PSoC4/CapSense_CSHL.c **** *  it in CapSense_sensorSignal[sensor].
 343:Generated_Source\PSoC4/CapSense_CSHL.c **** *  If the auto reset option is enabled, the baseline updated regards the noise threshold.
 344:Generated_Source\PSoC4/CapSense_CSHL.c **** *  If the auto reset option is disabled, the baseline stops updating; baseline is loaded
 345:Generated_Source\PSoC4/CapSense_CSHL.c **** *  with a raw count value if a signal is greater than zero and if signal is less
 346:Generated_Source\PSoC4/CapSense_CSHL.c **** *  than noise threshold.
 347:Generated_Source\PSoC4/CapSense_CSHL.c **** *  Raw data filters are applied to the values if enabled before baseline
 348:Generated_Source\PSoC4/CapSense_CSHL.c **** *  calculation.
 349:Generated_Source\PSoC4/CapSense_CSHL.c **** *
 350:Generated_Source\PSoC4/CapSense_CSHL.c **** *  This API does not update the thresholds in the Smartsense Mode.
 351:Generated_Source\PSoC4/CapSense_CSHL.c **** *
 352:Generated_Source\PSoC4/CapSense_CSHL.c **** * Parameters:
 353:Generated_Source\PSoC4/CapSense_CSHL.c **** *  sensor:  Sensor number.
 354:Generated_Source\PSoC4/CapSense_CSHL.c **** *
 355:Generated_Source\PSoC4/CapSense_CSHL.c **** * Return:
 356:Generated_Source\PSoC4/CapSense_CSHL.c **** *  None
 357:Generated_Source\PSoC4/CapSense_CSHL.c **** *
 358:Generated_Source\PSoC4/CapSense_CSHL.c **** * Global Variables:
 359:Generated_Source\PSoC4/CapSense_CSHL.c **** *  CapSense_widgetNumber[]  - stores widget numbers.
 360:Generated_Source\PSoC4/CapSense_CSHL.c **** *  CapSense_sensorBaseline[]    - used to store baseline value.
 361:Generated_Source\PSoC4/CapSense_CSHL.c **** *  CapSense_sensorBaselineLow[] - used to store fraction byte of
 362:Generated_Source\PSoC4/CapSense_CSHL.c **** *  baseline value.
 363:Generated_Source\PSoC4/CapSense_CSHL.c **** *  CapSense_sensorSignal[]      - used to store difference between
 364:Generated_Source\PSoC4/CapSense_CSHL.c **** *  current value of raw data and previous value of baseline.
 365:Generated_Source\PSoC4/CapSense_CSHL.c **** *  CapSense_rawFilterData1[]    - used to store previous sample of
 366:Generated_Source\PSoC4/CapSense_CSHL.c **** *  any enabled raw data filter.
 367:Generated_Source\PSoC4/CapSense_CSHL.c **** *  CapSense_rawFilterData2[]    - used to store before previous sample
 368:Generated_Source\PSoC4/CapSense_CSHL.c **** *  of enabled raw data filter. Only required for median or average filters.
 369:Generated_Source\PSoC4/CapSense_CSHL.c **** *
 370:Generated_Source\PSoC4/CapSense_CSHL.c **** * Side Effects:
 371:Generated_Source\PSoC4/CapSense_CSHL.c **** *  None
 372:Generated_Source\PSoC4/CapSense_CSHL.c **** *
 373:Generated_Source\PSoC4/CapSense_CSHL.c **** *******************************************************************************/
 374:Generated_Source\PSoC4/CapSense_CSHL.c **** void CapSense_UpdateBaselineNoThreshold(uint32 sensor)
 375:Generated_Source\PSoC4/CapSense_CSHL.c **** {
 376:Generated_Source\PSoC4/CapSense_CSHL.c ****     uint32 calc;
 377:Generated_Source\PSoC4/CapSense_CSHL.c ****     uint32 sign;
 378:Generated_Source\PSoC4/CapSense_CSHL.c ****     uint16 tempRaw;
 379:Generated_Source\PSoC4/CapSense_CSHL.c ****     uint16 filteredRawData;
 380:Generated_Source\PSoC4/CapSense_CSHL.c ****     uint8 widget = CapSense_widgetNumber[sensor];
 381:Generated_Source\PSoC4/CapSense_CSHL.c ****     uint8 noiseThreshold;
 382:Generated_Source\PSoC4/CapSense_CSHL.c **** 
 383:Generated_Source\PSoC4/CapSense_CSHL.c ****     #if (CapSense_TOTAL_GENERICS_COUNT)
 384:Generated_Source\PSoC4/CapSense_CSHL.c ****         /* Exclude generic widget */
 385:Generated_Source\PSoC4/CapSense_CSHL.c ****         if(widget < CapSense_END_OF_WIDGETS_INDEX)
 386:Generated_Source\PSoC4/CapSense_CSHL.c ****         {
 387:Generated_Source\PSoC4/CapSense_CSHL.c ****     #endif  /* CapSense_TOTAL_GENERICS_COUNT */
 388:Generated_Source\PSoC4/CapSense_CSHL.c **** 
 389:Generated_Source\PSoC4/CapSense_CSHL.c ****     noiseThreshold = CapSense_noiseThreshold[widget];
ARM GAS  C:\Users\TERENC~1\AppData\Local\Temp\ccjR28lu.s 			page 12


 390:Generated_Source\PSoC4/CapSense_CSHL.c ****     filteredRawData = CapSense_sensorRaw[sensor];
 391:Generated_Source\PSoC4/CapSense_CSHL.c **** 
 392:Generated_Source\PSoC4/CapSense_CSHL.c ****     #if (CapSense_RAW_FILTER_MASK != 0u)
 393:Generated_Source\PSoC4/CapSense_CSHL.c ****     if(CapSense_enableRawFilters != 0u)
 394:Generated_Source\PSoC4/CapSense_CSHL.c ****     {
 395:Generated_Source\PSoC4/CapSense_CSHL.c ****         #if (CapSense_RAW_FILTER_MASK & CapSense_MEDIAN_FILTER)
 396:Generated_Source\PSoC4/CapSense_CSHL.c ****             tempRaw = filteredRawData;
 397:Generated_Source\PSoC4/CapSense_CSHL.c ****             filteredRawData = CapSense_MedianFilter(filteredRawData, CapSense_rawFilterData1[sensor
 398:Generated_Source\PSoC4/CapSense_CSHL.c ****                                                             CapSense_rawFilterData2[sensor]);
 399:Generated_Source\PSoC4/CapSense_CSHL.c ****             CapSense_rawFilterData2[sensor] = CapSense_rawFilterData1[sensor];
 400:Generated_Source\PSoC4/CapSense_CSHL.c ****             CapSense_rawFilterData1[sensor] = tempRaw;
 401:Generated_Source\PSoC4/CapSense_CSHL.c **** 
 402:Generated_Source\PSoC4/CapSense_CSHL.c ****         #elif (CapSense_RAW_FILTER_MASK & CapSense_AVERAGING_FILTER)
 403:Generated_Source\PSoC4/CapSense_CSHL.c ****             tempRaw = filteredRawData;
 404:Generated_Source\PSoC4/CapSense_CSHL.c ****             filteredRawData = CapSense_AveragingFilter(filteredRawData, CapSense_rawFilterData1[sen
 405:Generated_Source\PSoC4/CapSense_CSHL.c ****                                                                CapSense_rawFilterData2[sensor]);
 406:Generated_Source\PSoC4/CapSense_CSHL.c ****             CapSense_rawFilterData2[sensor] = CapSense_rawFilterData1[sensor];
 407:Generated_Source\PSoC4/CapSense_CSHL.c ****             CapSense_rawFilterData1[sensor] = tempRaw;
 408:Generated_Source\PSoC4/CapSense_CSHL.c **** 
 409:Generated_Source\PSoC4/CapSense_CSHL.c ****         #elif (CapSense_RAW_FILTER_MASK & CapSense_IIR2_FILTER)
 410:Generated_Source\PSoC4/CapSense_CSHL.c ****             filteredRawData = CapSense_IIR2Filter(filteredRawData, CapSense_rawFilterData1[sensor])
 411:Generated_Source\PSoC4/CapSense_CSHL.c ****             CapSense_rawFilterData1[sensor] = filteredRawData;
 412:Generated_Source\PSoC4/CapSense_CSHL.c **** 
 413:Generated_Source\PSoC4/CapSense_CSHL.c ****         #elif (CapSense_RAW_FILTER_MASK & CapSense_IIR4_FILTER)
 414:Generated_Source\PSoC4/CapSense_CSHL.c ****             filteredRawData = CapSense_IIR4Filter(filteredRawData, CapSense_rawFilterData1[sensor])
 415:Generated_Source\PSoC4/CapSense_CSHL.c ****             CapSense_rawFilterData1[sensor] = filteredRawData;
 416:Generated_Source\PSoC4/CapSense_CSHL.c **** 
 417:Generated_Source\PSoC4/CapSense_CSHL.c ****         #elif (CapSense_RAW_FILTER_MASK & CapSense_JITTER_FILTER)
 418:Generated_Source\PSoC4/CapSense_CSHL.c ****             filteredRawData = CapSense_JitterFilter(filteredRawData, CapSense_rawFilterData1[sensor
 419:Generated_Source\PSoC4/CapSense_CSHL.c ****             CapSense_rawFilterData1[sensor] = filteredRawData;
 420:Generated_Source\PSoC4/CapSense_CSHL.c **** 
 421:Generated_Source\PSoC4/CapSense_CSHL.c ****         #elif (CapSense_RAW_FILTER_MASK & CapSense_IIR8_FILTER)
 422:Generated_Source\PSoC4/CapSense_CSHL.c ****             filteredRawData = CapSense_IIR8Filter(filteredRawData, CapSense_rawFilterData1[sensor])
 423:Generated_Source\PSoC4/CapSense_CSHL.c ****             CapSense_rawFilterData1[sensor] = filteredRawData;
 424:Generated_Source\PSoC4/CapSense_CSHL.c **** 
 425:Generated_Source\PSoC4/CapSense_CSHL.c ****         #elif (CapSense_RAW_FILTER_MASK & CapSense_IIR16_FILTER)
 426:Generated_Source\PSoC4/CapSense_CSHL.c ****             filteredRawData = CapSense_IIR16Filter(filteredRawData, CapSense_rawFilterData1[sensor]
 427:Generated_Source\PSoC4/CapSense_CSHL.c ****             CapSense_rawFilterData1[sensor] = filteredRawData;
 428:Generated_Source\PSoC4/CapSense_CSHL.c **** 
 429:Generated_Source\PSoC4/CapSense_CSHL.c ****         #else
 430:Generated_Source\PSoC4/CapSense_CSHL.c ****             /* No Raw filters */
 431:Generated_Source\PSoC4/CapSense_CSHL.c ****         #endif  /* (CapSense_RAW_FILTER_MASK & CapSense_MEDIAN_FILTER) */
 432:Generated_Source\PSoC4/CapSense_CSHL.c ****     }
 433:Generated_Source\PSoC4/CapSense_CSHL.c ****     #endif  /* (CapSense_RAW_FILTER_MASK != 0u) */
 434:Generated_Source\PSoC4/CapSense_CSHL.c **** 
 435:Generated_Source\PSoC4/CapSense_CSHL.c ****     #if (CapSense_TUNING_METHOD == CapSense__TUNING_AUTO)
 436:Generated_Source\PSoC4/CapSense_CSHL.c ****         MeasureNoiseEnvelope_P4_v2_60(&CapSense_config, (uint8)sensor, CapSense_sensorRaw);
 437:Generated_Source\PSoC4/CapSense_CSHL.c ****     #endif /* (CapSense_TUNING_METHOD == CapSense__TUNING_AUTO) */
 438:Generated_Source\PSoC4/CapSense_CSHL.c **** 
 439:Generated_Source\PSoC4/CapSense_CSHL.c ****     /* Baseline calculation */
 440:Generated_Source\PSoC4/CapSense_CSHL.c ****     /* Calculate difference RawData[cur] - Baseline[prev] */
 441:Generated_Source\PSoC4/CapSense_CSHL.c ****     if(filteredRawData >= CapSense_sensorBaseline[sensor])
 442:Generated_Source\PSoC4/CapSense_CSHL.c ****     {
 443:Generated_Source\PSoC4/CapSense_CSHL.c ****         CapSense_lowBaselineResetCnt[sensor] = 0u;
 444:Generated_Source\PSoC4/CapSense_CSHL.c ****         tempRaw = filteredRawData - CapSense_sensorBaseline[sensor];
 445:Generated_Source\PSoC4/CapSense_CSHL.c ****         sign = 1u;    /* Positive difference - Calculate the Signal */
 446:Generated_Source\PSoC4/CapSense_CSHL.c ****     }
ARM GAS  C:\Users\TERENC~1\AppData\Local\Temp\ccjR28lu.s 			page 13


 447:Generated_Source\PSoC4/CapSense_CSHL.c ****     else
 448:Generated_Source\PSoC4/CapSense_CSHL.c ****     {
 449:Generated_Source\PSoC4/CapSense_CSHL.c ****         tempRaw = CapSense_sensorBaseline[sensor] - filteredRawData;
 450:Generated_Source\PSoC4/CapSense_CSHL.c ****         sign = 0u;    /* Negative difference - Do NOT calculate the Signal */
 451:Generated_Source\PSoC4/CapSense_CSHL.c ****     }
 452:Generated_Source\PSoC4/CapSense_CSHL.c **** 
 453:Generated_Source\PSoC4/CapSense_CSHL.c ****     #if (CapSense_TUNING_METHOD != CapSense__TUNING_NONE)
 454:Generated_Source\PSoC4/CapSense_CSHL.c ****     if((sign == 0u) && (tempRaw > (uint16) CapSense_negativeNoiseThreshold[widget]))
 455:Generated_Source\PSoC4/CapSense_CSHL.c ****     #else
 456:Generated_Source\PSoC4/CapSense_CSHL.c ****     if((sign == 0u) && (tempRaw > (uint16) CapSense_NEGATIVE_NOISE_THRESHOLD))
 457:Generated_Source\PSoC4/CapSense_CSHL.c ****     #endif /* (CapSense_TUNING_METHOD != CapSense__TUNING_NONE) */
 458:Generated_Source\PSoC4/CapSense_CSHL.c ****     {
 459:Generated_Source\PSoC4/CapSense_CSHL.c ****         if(CapSense_lowBaselineResetCnt[sensor] >= CapSense_lowBaselineReset[sensor])
 460:Generated_Source\PSoC4/CapSense_CSHL.c ****         {
 461:Generated_Source\PSoC4/CapSense_CSHL.c ****             CapSense_BaseInit(sensor);
 462:Generated_Source\PSoC4/CapSense_CSHL.c ****             CapSense_lowBaselineResetCnt[sensor] = 0u;
 463:Generated_Source\PSoC4/CapSense_CSHL.c ****         }
 464:Generated_Source\PSoC4/CapSense_CSHL.c ****         else
 465:Generated_Source\PSoC4/CapSense_CSHL.c ****         {
 466:Generated_Source\PSoC4/CapSense_CSHL.c ****             CapSense_lowBaselineResetCnt[sensor]++;
 467:Generated_Source\PSoC4/CapSense_CSHL.c ****         }
 468:Generated_Source\PSoC4/CapSense_CSHL.c ****     }
 469:Generated_Source\PSoC4/CapSense_CSHL.c ****     else
 470:Generated_Source\PSoC4/CapSense_CSHL.c ****     {
 471:Generated_Source\PSoC4/CapSense_CSHL.c ****         #if (CapSense_AUTO_RESET == CapSense_AUTO_RESET_DISABLE)
 472:Generated_Source\PSoC4/CapSense_CSHL.c ****         #if (CapSense_TUNING_METHOD != CapSense__TUNING_NONE)
 473:Generated_Source\PSoC4/CapSense_CSHL.c ****             /* Update Baseline if lower than noiseThreshold */
 474:Generated_Source\PSoC4/CapSense_CSHL.c ****             if ( (tempRaw <= noiseThreshold) ||
 475:Generated_Source\PSoC4/CapSense_CSHL.c ****              ((tempRaw < (uint16) CapSense_negativeNoiseThreshold[widget])
 476:Generated_Source\PSoC4/CapSense_CSHL.c ****                && (sign == 0u)))
 477:Generated_Source\PSoC4/CapSense_CSHL.c ****             {
 478:Generated_Source\PSoC4/CapSense_CSHL.c ****         #else
 479:Generated_Source\PSoC4/CapSense_CSHL.c ****             /* Update Baseline if lower than noiseThreshold */
 480:Generated_Source\PSoC4/CapSense_CSHL.c ****             if ( (tempRaw <= noiseThreshold) ||
 481:Generated_Source\PSoC4/CapSense_CSHL.c ****                  ((tempRaw < (uint16) CapSense_NEGATIVE_NOISE_THRESHOLD)
 482:Generated_Source\PSoC4/CapSense_CSHL.c ****                    && (sign == 0u)))
 483:Generated_Source\PSoC4/CapSense_CSHL.c ****             {
 484:Generated_Source\PSoC4/CapSense_CSHL.c ****         #endif /* (CapSense_TUNING_METHOD != CapSense__TUNING_NONE) */
 485:Generated_Source\PSoC4/CapSense_CSHL.c ****         #endif /* (CapSense_AUTO_RESET == CapSense_AUTO_RESET_DISABLE) */
 486:Generated_Source\PSoC4/CapSense_CSHL.c ****                 /* Make full Baseline 23 bits */
 487:Generated_Source\PSoC4/CapSense_CSHL.c ****                 calc = (uint32) CapSense_sensorBaseline[sensor] << 8u;
 488:Generated_Source\PSoC4/CapSense_CSHL.c ****                 calc |= (uint32) CapSense_sensorBaselineLow[sensor];
 489:Generated_Source\PSoC4/CapSense_CSHL.c **** 
 490:Generated_Source\PSoC4/CapSense_CSHL.c ****                 /* Add Raw Data to Baseline */
 491:Generated_Source\PSoC4/CapSense_CSHL.c ****                 calc += filteredRawData;
 492:Generated_Source\PSoC4/CapSense_CSHL.c **** 
 493:Generated_Source\PSoC4/CapSense_CSHL.c ****                 /* Sub the high Baseline */
 494:Generated_Source\PSoC4/CapSense_CSHL.c ****                 calc -= CapSense_sensorBaseline[sensor];
 495:Generated_Source\PSoC4/CapSense_CSHL.c **** 
 496:Generated_Source\PSoC4/CapSense_CSHL.c ****                 /* Put Baseline and BaselineLow */
 497:Generated_Source\PSoC4/CapSense_CSHL.c ****                 CapSense_sensorBaseline[sensor] = ((uint16) (calc >> 8u));
 498:Generated_Source\PSoC4/CapSense_CSHL.c ****                 CapSense_sensorBaselineLow[sensor] = ((uint8) calc);
 499:Generated_Source\PSoC4/CapSense_CSHL.c **** 
 500:Generated_Source\PSoC4/CapSense_CSHL.c ****                 CapSense_lowBaselineResetCnt[sensor] = 0u;
 501:Generated_Source\PSoC4/CapSense_CSHL.c ****         #if (CapSense_AUTO_RESET == CapSense_AUTO_RESET_DISABLE)
 502:Generated_Source\PSoC4/CapSense_CSHL.c ****             }
 503:Generated_Source\PSoC4/CapSense_CSHL.c ****         #endif /* (CapSense_AUTO_RESET == CapSense_AUTO_RESET_DISABLE) */
ARM GAS  C:\Users\TERENC~1\AppData\Local\Temp\ccjR28lu.s 			page 14


 504:Generated_Source\PSoC4/CapSense_CSHL.c ****     }
 505:Generated_Source\PSoC4/CapSense_CSHL.c **** 
 506:Generated_Source\PSoC4/CapSense_CSHL.c ****     /* Calculate Signal if positive difference > noiseThreshold */
 507:Generated_Source\PSoC4/CapSense_CSHL.c ****     if((tempRaw > (uint16) noiseThreshold) && (sign != 0u))
 508:Generated_Source\PSoC4/CapSense_CSHL.c ****     {
 509:Generated_Source\PSoC4/CapSense_CSHL.c ****         #if (CapSense_SIGNAL_SIZE == CapSense_SIGNAL_SIZE_UINT8)
 510:Generated_Source\PSoC4/CapSense_CSHL.c ****             /* Over flow defence for uint8 */
 511:Generated_Source\PSoC4/CapSense_CSHL.c ****             if (tempRaw > 0xFFu)
 512:Generated_Source\PSoC4/CapSense_CSHL.c ****             {
 513:Generated_Source\PSoC4/CapSense_CSHL.c ****                 CapSense_sensorSignal[sensor] = 0xFFu;
 514:Generated_Source\PSoC4/CapSense_CSHL.c ****             }
 515:Generated_Source\PSoC4/CapSense_CSHL.c ****             else
 516:Generated_Source\PSoC4/CapSense_CSHL.c ****             {
 517:Generated_Source\PSoC4/CapSense_CSHL.c ****                 CapSense_sensorSignal[sensor] = ((uint8) tempRaw);
 518:Generated_Source\PSoC4/CapSense_CSHL.c ****             }
 519:Generated_Source\PSoC4/CapSense_CSHL.c ****         #else
 520:Generated_Source\PSoC4/CapSense_CSHL.c ****             CapSense_sensorSignal[sensor] = ((uint16) tempRaw);
 521:Generated_Source\PSoC4/CapSense_CSHL.c ****         #endif  /* (CapSense_SIGNAL_SIZE == CapSense_SIGNAL_SIZE_UINT8) */
 522:Generated_Source\PSoC4/CapSense_CSHL.c ****     }
 523:Generated_Source\PSoC4/CapSense_CSHL.c ****     else
 524:Generated_Source\PSoC4/CapSense_CSHL.c ****     {
 525:Generated_Source\PSoC4/CapSense_CSHL.c ****         /* Signal is zero */
 526:Generated_Source\PSoC4/CapSense_CSHL.c ****         CapSense_sensorSignal[sensor] = 0u;
 527:Generated_Source\PSoC4/CapSense_CSHL.c ****     }
 528:Generated_Source\PSoC4/CapSense_CSHL.c **** 
 529:Generated_Source\PSoC4/CapSense_CSHL.c ****     #if (CapSense_TOTAL_GENERICS_COUNT)
 530:Generated_Source\PSoC4/CapSense_CSHL.c ****         /* Exclude generic widget */
 531:Generated_Source\PSoC4/CapSense_CSHL.c ****         }
 532:Generated_Source\PSoC4/CapSense_CSHL.c ****     #endif  /* CapSense_TOTAL_GENERICS_COUNT */
 533:Generated_Source\PSoC4/CapSense_CSHL.c **** }
 534:Generated_Source\PSoC4/CapSense_CSHL.c **** 
 535:Generated_Source\PSoC4/CapSense_CSHL.c **** 
 536:Generated_Source\PSoC4/CapSense_CSHL.c **** /*******************************************************************************
 537:Generated_Source\PSoC4/CapSense_CSHL.c **** * Function Name: CapSense_UpdateSensorBaseline
 538:Generated_Source\PSoC4/CapSense_CSHL.c **** ********************************************************************************
 539:Generated_Source\PSoC4/CapSense_CSHL.c **** *
 540:Generated_Source\PSoC4/CapSense_CSHL.c **** * Summary:
 541:Generated_Source\PSoC4/CapSense_CSHL.c **** *  Updates the CapSense_sensorBaseline[sensor] array element using the
 542:Generated_Source\PSoC4/CapSense_CSHL.c **** *  LP filter with k = 256. The signal calculates the difference of count by
 543:Generated_Source\PSoC4/CapSense_CSHL.c **** *  subtracting the previous baseline from the current raw count value and stores
 544:Generated_Source\PSoC4/CapSense_CSHL.c **** *  it in CapSense_sensorSignal[sensor].
 545:Generated_Source\PSoC4/CapSense_CSHL.c **** *  If the auto reset option is enabled, the baseline updated regards the noise threshold.
 546:Generated_Source\PSoC4/CapSense_CSHL.c **** *  If the auto reset option is disabled, the baseline stops updating.
 547:Generated_Source\PSoC4/CapSense_CSHL.c **** *  Baseline is loaded with raw count value if a signal is greater than zero and
 548:Generated_Source\PSoC4/CapSense_CSHL.c **** *  if signal is less than noise threshold.
 549:Generated_Source\PSoC4/CapSense_CSHL.c **** *  Raw data filters are applied to the values if enabled before baseline
 550:Generated_Source\PSoC4/CapSense_CSHL.c **** *  calculation.
 551:Generated_Source\PSoC4/CapSense_CSHL.c **** *  This API updates the thresholds in the Smartsense Mode.
 552:Generated_Source\PSoC4/CapSense_CSHL.c **** *
 553:Generated_Source\PSoC4/CapSense_CSHL.c **** * Parameters:
 554:Generated_Source\PSoC4/CapSense_CSHL.c **** *  sensor:  Sensor number.
 555:Generated_Source\PSoC4/CapSense_CSHL.c **** *
 556:Generated_Source\PSoC4/CapSense_CSHL.c **** * Return:
 557:Generated_Source\PSoC4/CapSense_CSHL.c **** *  None
 558:Generated_Source\PSoC4/CapSense_CSHL.c **** *
 559:Generated_Source\PSoC4/CapSense_CSHL.c **** * Global Variables:
 560:Generated_Source\PSoC4/CapSense_CSHL.c **** *  CapSense_widgetNumber[]  - stores widget numbers.
ARM GAS  C:\Users\TERENC~1\AppData\Local\Temp\ccjR28lu.s 			page 15


 561:Generated_Source\PSoC4/CapSense_CSHL.c **** *
 562:Generated_Source\PSoC4/CapSense_CSHL.c **** * Side Effects:
 563:Generated_Source\PSoC4/CapSense_CSHL.c **** *  None
 564:Generated_Source\PSoC4/CapSense_CSHL.c **** *
 565:Generated_Source\PSoC4/CapSense_CSHL.c **** *******************************************************************************/
 566:Generated_Source\PSoC4/CapSense_CSHL.c ****  void CapSense_UpdateSensorBaseline(uint32 sensor)
 567:Generated_Source\PSoC4/CapSense_CSHL.c **** {
 568:Generated_Source\PSoC4/CapSense_CSHL.c ****     #if (CapSense_TOTAL_GENERICS_COUNT)
 569:Generated_Source\PSoC4/CapSense_CSHL.c ****         uint32 widget;
 570:Generated_Source\PSoC4/CapSense_CSHL.c **** 
 571:Generated_Source\PSoC4/CapSense_CSHL.c ****         widget = CapSense_widgetNumber[sensor];
 572:Generated_Source\PSoC4/CapSense_CSHL.c **** 
 573:Generated_Source\PSoC4/CapSense_CSHL.c ****         /* Exclude generic widget */
 574:Generated_Source\PSoC4/CapSense_CSHL.c ****         if(widget < CapSense_END_OF_WIDGETS_INDEX)
 575:Generated_Source\PSoC4/CapSense_CSHL.c ****         {
 576:Generated_Source\PSoC4/CapSense_CSHL.c ****     #endif  /* CapSense_TOTAL_GENERICS_COUNT */
 577:Generated_Source\PSoC4/CapSense_CSHL.c **** 
 578:Generated_Source\PSoC4/CapSense_CSHL.c ****     #if (CapSense_TUNING_METHOD == CapSense__TUNING_AUTO)
 579:Generated_Source\PSoC4/CapSense_CSHL.c ****         CapSense_UpdateThresholds(sensor);
 580:Generated_Source\PSoC4/CapSense_CSHL.c ****     #endif /* (CapSense_TUNING_METHOD == CapSense__TUNING_AUTO) */
 581:Generated_Source\PSoC4/CapSense_CSHL.c **** 
 582:Generated_Source\PSoC4/CapSense_CSHL.c ****     CapSense_UpdateBaselineNoThreshold(sensor);
 583:Generated_Source\PSoC4/CapSense_CSHL.c **** 
 584:Generated_Source\PSoC4/CapSense_CSHL.c ****     #if (CapSense_TOTAL_GENERICS_COUNT)
 585:Generated_Source\PSoC4/CapSense_CSHL.c ****         /* Exclude generic widget */
 586:Generated_Source\PSoC4/CapSense_CSHL.c ****         }
 587:Generated_Source\PSoC4/CapSense_CSHL.c ****     #endif  /* CapSense_TOTAL_GENERICS_COUNT */
 588:Generated_Source\PSoC4/CapSense_CSHL.c **** }
 589:Generated_Source\PSoC4/CapSense_CSHL.c **** 
 590:Generated_Source\PSoC4/CapSense_CSHL.c **** 
 591:Generated_Source\PSoC4/CapSense_CSHL.c **** /*******************************************************************************
 592:Generated_Source\PSoC4/CapSense_CSHL.c **** * Function Name: CapSense_UpdateEnabledBaselines
 593:Generated_Source\PSoC4/CapSense_CSHL.c **** ********************************************************************************
 594:Generated_Source\PSoC4/CapSense_CSHL.c **** *
 595:Generated_Source\PSoC4/CapSense_CSHL.c **** * Summary:
 596:Generated_Source\PSoC4/CapSense_CSHL.c **** *  Checks CapSense_sensorEnableMask[] array and calls the
 597:Generated_Source\PSoC4/CapSense_CSHL.c **** *  CapSense_UpdateSensorBaseline function to update the baselines
 598:Generated_Source\PSoC4/CapSense_CSHL.c **** *  for the enabled sensors.
 599:Generated_Source\PSoC4/CapSense_CSHL.c **** *
 600:Generated_Source\PSoC4/CapSense_CSHL.c **** * Parameters:
 601:Generated_Source\PSoC4/CapSense_CSHL.c **** *  None
 602:Generated_Source\PSoC4/CapSense_CSHL.c **** *
 603:Generated_Source\PSoC4/CapSense_CSHL.c **** * Return:
 604:Generated_Source\PSoC4/CapSense_CSHL.c **** *  None
 605:Generated_Source\PSoC4/CapSense_CSHL.c **** *
 606:Generated_Source\PSoC4/CapSense_CSHL.c **** * Global Variables:
 607:Generated_Source\PSoC4/CapSense_CSHL.c **** *  CapSense_sensorEnableMask[] - used to store the sensor scanning
 608:Generated_Source\PSoC4/CapSense_CSHL.c **** *  state.
 609:Generated_Source\PSoC4/CapSense_CSHL.c **** *  CapSense_sensorEnableMask[0] contains the masked bits for sensors
 610:Generated_Source\PSoC4/CapSense_CSHL.c **** *   0 through 7 (sensor 0 is bit 0, sensor 1 is bit 1).
 611:Generated_Source\PSoC4/CapSense_CSHL.c **** *  CapSense_sensorEnableMask[1] contains the masked bits for
 612:Generated_Source\PSoC4/CapSense_CSHL.c **** *  sensors 8 through 15 (if needed), and so on.
 613:Generated_Source\PSoC4/CapSense_CSHL.c **** *  0 - sensor doesn't scan by CapSense_ScanEnabledWidgets().
 614:Generated_Source\PSoC4/CapSense_CSHL.c **** *  1 - sensor scans by CapSense_ScanEnabledWidgets().
 615:Generated_Source\PSoC4/CapSense_CSHL.c **** *
 616:Generated_Source\PSoC4/CapSense_CSHL.c **** * Side Effects:
 617:Generated_Source\PSoC4/CapSense_CSHL.c **** *  None
ARM GAS  C:\Users\TERENC~1\AppData\Local\Temp\ccjR28lu.s 			page 16


 618:Generated_Source\PSoC4/CapSense_CSHL.c **** *
 619:Generated_Source\PSoC4/CapSense_CSHL.c **** *******************************************************************************/
 620:Generated_Source\PSoC4/CapSense_CSHL.c ****  void CapSense_UpdateEnabledBaselines(void)
 621:Generated_Source\PSoC4/CapSense_CSHL.c **** {
 622:Generated_Source\PSoC4/CapSense_CSHL.c ****     uint32 i;
 623:Generated_Source\PSoC4/CapSense_CSHL.c ****     uint32 isSensorEnabled;
 624:Generated_Source\PSoC4/CapSense_CSHL.c **** 
 625:Generated_Source\PSoC4/CapSense_CSHL.c ****     for(i = 0u; i < CapSense_TOTAL_SENSOR_COUNT; i++)
 626:Generated_Source\PSoC4/CapSense_CSHL.c ****     {
 627:Generated_Source\PSoC4/CapSense_CSHL.c ****         isSensorEnabled = CapSense_GetBitValue(CapSense_sensorEnableMask, i);
 628:Generated_Source\PSoC4/CapSense_CSHL.c **** 
 629:Generated_Source\PSoC4/CapSense_CSHL.c ****         if(0u != isSensorEnabled)
 630:Generated_Source\PSoC4/CapSense_CSHL.c ****         {
 631:Generated_Source\PSoC4/CapSense_CSHL.c ****             CapSense_UpdateSensorBaseline(i);
 632:Generated_Source\PSoC4/CapSense_CSHL.c ****         }
 633:Generated_Source\PSoC4/CapSense_CSHL.c ****     }
 634:Generated_Source\PSoC4/CapSense_CSHL.c **** }
 635:Generated_Source\PSoC4/CapSense_CSHL.c **** 
 636:Generated_Source\PSoC4/CapSense_CSHL.c **** /*******************************************************************************
 637:Generated_Source\PSoC4/CapSense_CSHL.c **** * Function Name: CapSense_UpdateWidgetBaseline
 638:Generated_Source\PSoC4/CapSense_CSHL.c **** ********************************************************************************
 639:Generated_Source\PSoC4/CapSense_CSHL.c **** *
 640:Generated_Source\PSoC4/CapSense_CSHL.c **** * Summary:
 641:Generated_Source\PSoC4/CapSense_CSHL.c **** *  Checks CapSense_sensorEnableMask[] array and calls the
 642:Generated_Source\PSoC4/CapSense_CSHL.c **** *  CapSense_UpdateSensorBaseline function to update the baselines
 643:Generated_Source\PSoC4/CapSense_CSHL.c **** *  for the enabled sensors that belong to widget.
 644:Generated_Source\PSoC4/CapSense_CSHL.c **** *
 645:Generated_Source\PSoC4/CapSense_CSHL.c **** * Parameters:
 646:Generated_Source\PSoC4/CapSense_CSHL.c **** *  widget:  Widget number.
 647:Generated_Source\PSoC4/CapSense_CSHL.c **** *
 648:Generated_Source\PSoC4/CapSense_CSHL.c **** * Return:
 649:Generated_Source\PSoC4/CapSense_CSHL.c **** *  None
 650:Generated_Source\PSoC4/CapSense_CSHL.c **** *
 651:Generated_Source\PSoC4/CapSense_CSHL.c **** * Global Variables:
 652:Generated_Source\PSoC4/CapSense_CSHL.c **** *  CapSense_sensorEnableMask[] - used to store the sensor scanning
 653:Generated_Source\PSoC4/CapSense_CSHL.c **** *  state.
 654:Generated_Source\PSoC4/CapSense_CSHL.c **** *  CapSense_sensorEnableMask[0] contains the masked bits for sensors
 655:Generated_Source\PSoC4/CapSense_CSHL.c **** *   0 through 7 (sensor 0 is bit 0, sensor 1 is bit 1).
 656:Generated_Source\PSoC4/CapSense_CSHL.c **** *  CapSense_sensorEnableMask[1] contains the masked bits for
 657:Generated_Source\PSoC4/CapSense_CSHL.c **** *  sensors 8 through 15 (if needed), and so on.
 658:Generated_Source\PSoC4/CapSense_CSHL.c **** *  0 - sensor doesn't scan by CapSense_ScanEnabledWidgets().
 659:Generated_Source\PSoC4/CapSense_CSHL.c **** *  1 - sensor scans by CapSense_ScanEnabledWidgets().
 660:Generated_Source\PSoC4/CapSense_CSHL.c **** *
 661:Generated_Source\PSoC4/CapSense_CSHL.c **** * Side Effects:
 662:Generated_Source\PSoC4/CapSense_CSHL.c **** *  None
 663:Generated_Source\PSoC4/CapSense_CSHL.c **** *
 664:Generated_Source\PSoC4/CapSense_CSHL.c **** *******************************************************************************/
 665:Generated_Source\PSoC4/CapSense_CSHL.c **** void CapSense_UpdateWidgetBaseline(uint32 widget)
 666:Generated_Source\PSoC4/CapSense_CSHL.c **** {
 667:Generated_Source\PSoC4/CapSense_CSHL.c ****     uint32 sensorsPerWidget;
 668:Generated_Source\PSoC4/CapSense_CSHL.c ****     uint32 firstSensor;
 669:Generated_Source\PSoC4/CapSense_CSHL.c ****     uint32 lastSensor;
 670:Generated_Source\PSoC4/CapSense_CSHL.c ****     uint32 i;
 671:Generated_Source\PSoC4/CapSense_CSHL.c ****     uint32 isSensorEnabled;
 672:Generated_Source\PSoC4/CapSense_CSHL.c **** 
 673:Generated_Source\PSoC4/CapSense_CSHL.c ****     /* Get number of sensors in widget */
 674:Generated_Source\PSoC4/CapSense_CSHL.c ****     sensorsPerWidget = CapSense_numberOfSensors[widget];
ARM GAS  C:\Users\TERENC~1\AppData\Local\Temp\ccjR28lu.s 			page 17


 675:Generated_Source\PSoC4/CapSense_CSHL.c **** 
 676:Generated_Source\PSoC4/CapSense_CSHL.c ****     /* Get first sensor in widget */
 677:Generated_Source\PSoC4/CapSense_CSHL.c ****     firstSensor = CapSense_rawDataIndex[widget];
 678:Generated_Source\PSoC4/CapSense_CSHL.c **** 
 679:Generated_Source\PSoC4/CapSense_CSHL.c ****     /* Get last sensor in widget */
 680:Generated_Source\PSoC4/CapSense_CSHL.c ****     lastSensor = (CapSense_rawDataIndex[widget] + sensorsPerWidget);
 681:Generated_Source\PSoC4/CapSense_CSHL.c **** 
 682:Generated_Source\PSoC4/CapSense_CSHL.c ****     for(i = firstSensor; i < lastSensor; i++)
 683:Generated_Source\PSoC4/CapSense_CSHL.c ****     {
 684:Generated_Source\PSoC4/CapSense_CSHL.c ****         isSensorEnabled = CapSense_GetBitValue(CapSense_sensorEnableMask, i);
 685:Generated_Source\PSoC4/CapSense_CSHL.c **** 
 686:Generated_Source\PSoC4/CapSense_CSHL.c ****         if(0u != isSensorEnabled)
 687:Generated_Source\PSoC4/CapSense_CSHL.c ****         {
 688:Generated_Source\PSoC4/CapSense_CSHL.c ****             CapSense_UpdateSensorBaseline(i);
 689:Generated_Source\PSoC4/CapSense_CSHL.c ****         }
 690:Generated_Source\PSoC4/CapSense_CSHL.c ****     }
 691:Generated_Source\PSoC4/CapSense_CSHL.c **** }
 692:Generated_Source\PSoC4/CapSense_CSHL.c **** 
 693:Generated_Source\PSoC4/CapSense_CSHL.c **** 
 694:Generated_Source\PSoC4/CapSense_CSHL.c **** /*******************************************************************************
 695:Generated_Source\PSoC4/CapSense_CSHL.c **** * Function Name: CapSense_GetBaselineData
 696:Generated_Source\PSoC4/CapSense_CSHL.c **** ********************************************************************************
 697:Generated_Source\PSoC4/CapSense_CSHL.c **** *
 698:Generated_Source\PSoC4/CapSense_CSHL.c **** * Summary:
 699:Generated_Source\PSoC4/CapSense_CSHL.c **** *  This function reads the sensor baseline from the component.
 700:Generated_Source\PSoC4/CapSense_CSHL.c **** *
 701:Generated_Source\PSoC4/CapSense_CSHL.c **** * Parameters:
 702:Generated_Source\PSoC4/CapSense_CSHL.c **** *  sensor:  Sensor number.
 703:Generated_Source\PSoC4/CapSense_CSHL.c **** *
 704:Generated_Source\PSoC4/CapSense_CSHL.c **** * Return:
 705:Generated_Source\PSoC4/CapSense_CSHL.c **** *  This API returns the baseline value of the sensor indicated by an argument.
 706:Generated_Source\PSoC4/CapSense_CSHL.c **** *
 707:Generated_Source\PSoC4/CapSense_CSHL.c **** * Global Variables:
 708:Generated_Source\PSoC4/CapSense_CSHL.c **** *  CapSense_sensorBaseline[] - the array with an initial values by scanning
 709:Generated_Source\PSoC4/CapSense_CSHL.c **** *
 710:Generated_Source\PSoC4/CapSense_CSHL.c **** * Side Effects:
 711:Generated_Source\PSoC4/CapSense_CSHL.c **** *  None
 712:Generated_Source\PSoC4/CapSense_CSHL.c **** *
 713:Generated_Source\PSoC4/CapSense_CSHL.c **** *******************************************************************************/
 714:Generated_Source\PSoC4/CapSense_CSHL.c **** uint16 CapSense_GetBaselineData(uint32 sensor)
 715:Generated_Source\PSoC4/CapSense_CSHL.c **** {
 235              		.loc 1 715 0
 236              		.cfi_startproc
 237              		@ args = 0, pretend = 0, frame = 0
 238              		@ frame_needed = 0, uses_anonymous_args = 0
 239              		@ link register save eliminated.
 240              	.LVL23:
 716:Generated_Source\PSoC4/CapSense_CSHL.c ****     return (CapSense_sensorBaseline[sensor]);
 241              		.loc 1 716 0
 242 0000 4000     		lsls	r0, r0, #1
 243              	.LVL24:
 244 0002 014B     		ldr	r3, .L18
 245 0004 185A     		ldrh	r0, [r3, r0]
 717:Generated_Source\PSoC4/CapSense_CSHL.c **** }
 246              		.loc 1 717 0
 247              		@ sp needed
 248 0006 7047     		bx	lr
ARM GAS  C:\Users\TERENC~1\AppData\Local\Temp\ccjR28lu.s 			page 18


 249              	.L19:
 250              		.align	2
 251              	.L18:
 252 0008 00000000 		.word	.LANCHOR0
 253              		.cfi_endproc
 254              	.LFE41:
 255              		.size	CapSense_GetBaselineData, .-CapSense_GetBaselineData
 256              		.section	.text.CapSense_SetBaselineData,"ax",%progbits
 257              		.align	2
 258              		.global	CapSense_SetBaselineData
 259              		.code	16
 260              		.thumb_func
 261              		.type	CapSense_SetBaselineData, %function
 262              	CapSense_SetBaselineData:
 263              	.LFB42:
 718:Generated_Source\PSoC4/CapSense_CSHL.c **** 
 719:Generated_Source\PSoC4/CapSense_CSHL.c **** 
 720:Generated_Source\PSoC4/CapSense_CSHL.c **** /*******************************************************************************
 721:Generated_Source\PSoC4/CapSense_CSHL.c **** * Function Name: CapSense_SetBaselineData
 722:Generated_Source\PSoC4/CapSense_CSHL.c **** ********************************************************************************
 723:Generated_Source\PSoC4/CapSense_CSHL.c **** *
 724:Generated_Source\PSoC4/CapSense_CSHL.c **** * Summary:
 725:Generated_Source\PSoC4/CapSense_CSHL.c **** *  This API writes the data value passed as an argument to the sensor baseline array.
 726:Generated_Source\PSoC4/CapSense_CSHL.c **** *
 727:Generated_Source\PSoC4/CapSense_CSHL.c **** * Parameters:
 728:Generated_Source\PSoC4/CapSense_CSHL.c **** *  sensor:  Sensor number.
 729:Generated_Source\PSoC4/CapSense_CSHL.c **** *  data:    Sensor baseline.
 730:Generated_Source\PSoC4/CapSense_CSHL.c **** *
 731:Generated_Source\PSoC4/CapSense_CSHL.c **** * Return:
 732:Generated_Source\PSoC4/CapSense_CSHL.c **** *  None.
 733:Generated_Source\PSoC4/CapSense_CSHL.c **** *
 734:Generated_Source\PSoC4/CapSense_CSHL.c **** * Global Variables:
 735:Generated_Source\PSoC4/CapSense_CSHL.c **** *  CapSense_sensorBaseline[] - the array with initial values by scanning
 736:Generated_Source\PSoC4/CapSense_CSHL.c **** *
 737:Generated_Source\PSoC4/CapSense_CSHL.c **** * Side Effects:
 738:Generated_Source\PSoC4/CapSense_CSHL.c **** *  None
 739:Generated_Source\PSoC4/CapSense_CSHL.c **** *
 740:Generated_Source\PSoC4/CapSense_CSHL.c **** *******************************************************************************/
 741:Generated_Source\PSoC4/CapSense_CSHL.c **** void CapSense_SetBaselineData(uint32 sensor, uint16 data)
 742:Generated_Source\PSoC4/CapSense_CSHL.c **** {
 264              		.loc 1 742 0
 265              		.cfi_startproc
 266              		@ args = 0, pretend = 0, frame = 0
 267              		@ frame_needed = 0, uses_anonymous_args = 0
 268              		@ link register save eliminated.
 269              	.LVL25:
 743:Generated_Source\PSoC4/CapSense_CSHL.c ****     CapSense_sensorBaseline[sensor] = data;
 270              		.loc 1 743 0
 271 0000 4000     		lsls	r0, r0, #1
 272              	.LVL26:
 273 0002 014B     		ldr	r3, .L21
 274 0004 C152     		strh	r1, [r0, r3]
 744:Generated_Source\PSoC4/CapSense_CSHL.c **** }
 275              		.loc 1 744 0
 276              		@ sp needed
 277 0006 7047     		bx	lr
 278              	.L22:
ARM GAS  C:\Users\TERENC~1\AppData\Local\Temp\ccjR28lu.s 			page 19


 279              		.align	2
 280              	.L21:
 281 0008 00000000 		.word	.LANCHOR0
 282              		.cfi_endproc
 283              	.LFE42:
 284              		.size	CapSense_SetBaselineData, .-CapSense_SetBaselineData
 285              		.section	.text.CapSense_GetDiffCountData,"ax",%progbits
 286              		.align	2
 287              		.global	CapSense_GetDiffCountData
 288              		.code	16
 289              		.thumb_func
 290              		.type	CapSense_GetDiffCountData, %function
 291              	CapSense_GetDiffCountData:
 292              	.LFB43:
 745:Generated_Source\PSoC4/CapSense_CSHL.c **** 
 746:Generated_Source\PSoC4/CapSense_CSHL.c **** 
 747:Generated_Source\PSoC4/CapSense_CSHL.c **** /*******************************************************************************
 748:Generated_Source\PSoC4/CapSense_CSHL.c **** * Function Name: CapSense_GetDiffCountData
 749:Generated_Source\PSoC4/CapSense_CSHL.c **** ********************************************************************************
 750:Generated_Source\PSoC4/CapSense_CSHL.c **** *
 751:Generated_Source\PSoC4/CapSense_CSHL.c **** * Summary:
 752:Generated_Source\PSoC4/CapSense_CSHL.c **** *  This function returns the Sensor Signal from the component.
 753:Generated_Source\PSoC4/CapSense_CSHL.c **** *
 754:Generated_Source\PSoC4/CapSense_CSHL.c **** * Parameters:
 755:Generated_Source\PSoC4/CapSense_CSHL.c **** *  sensor:  Sensor number.
 756:Generated_Source\PSoC4/CapSense_CSHL.c **** *
 757:Generated_Source\PSoC4/CapSense_CSHL.c **** * Return:
 758:Generated_Source\PSoC4/CapSense_CSHL.c **** *  This API returns the difference count value of the sensor indicated by the
 759:Generated_Source\PSoC4/CapSense_CSHL.c **** *  argument.
 760:Generated_Source\PSoC4/CapSense_CSHL.c **** *
 761:Generated_Source\PSoC4/CapSense_CSHL.c **** * Global Variables:
 762:Generated_Source\PSoC4/CapSense_CSHL.c **** *  CapSense_sensorSignal[] - the array with difference counts for sensors
 763:Generated_Source\PSoC4/CapSense_CSHL.c **** *
 764:Generated_Source\PSoC4/CapSense_CSHL.c **** * Side Effects:
 765:Generated_Source\PSoC4/CapSense_CSHL.c **** *  None
 766:Generated_Source\PSoC4/CapSense_CSHL.c **** *
 767:Generated_Source\PSoC4/CapSense_CSHL.c **** *******************************************************************************/
 768:Generated_Source\PSoC4/CapSense_CSHL.c **** uint8 CapSense_GetDiffCountData(uint32 sensor)
 769:Generated_Source\PSoC4/CapSense_CSHL.c **** {
 293              		.loc 1 769 0
 294              		.cfi_startproc
 295              		@ args = 0, pretend = 0, frame = 0
 296              		@ frame_needed = 0, uses_anonymous_args = 0
 297              		@ link register save eliminated.
 298              	.LVL27:
 770:Generated_Source\PSoC4/CapSense_CSHL.c ****     return (CapSense_sensorSignal[sensor]);
 299              		.loc 1 770 0
 300 0000 024B     		ldr	r3, .L24
 301 0002 1818     		adds	r0, r3, r0
 302              	.LVL28:
 303 0004 2C23     		movs	r3, #44
 304 0006 C05C     		ldrb	r0, [r0, r3]
 771:Generated_Source\PSoC4/CapSense_CSHL.c **** }
 305              		.loc 1 771 0
 306              		@ sp needed
 307 0008 7047     		bx	lr
 308              	.L25:
ARM GAS  C:\Users\TERENC~1\AppData\Local\Temp\ccjR28lu.s 			page 20


 309 000a C046     		.align	2
 310              	.L24:
 311 000c 00000000 		.word	.LANCHOR0
 312              		.cfi_endproc
 313              	.LFE43:
 314              		.size	CapSense_GetDiffCountData, .-CapSense_GetDiffCountData
 315              		.section	.text.CapSense_SetDiffCountData,"ax",%progbits
 316              		.align	2
 317              		.global	CapSense_SetDiffCountData
 318              		.code	16
 319              		.thumb_func
 320              		.type	CapSense_SetDiffCountData, %function
 321              	CapSense_SetDiffCountData:
 322              	.LFB44:
 772:Generated_Source\PSoC4/CapSense_CSHL.c **** 
 773:Generated_Source\PSoC4/CapSense_CSHL.c **** 
 774:Generated_Source\PSoC4/CapSense_CSHL.c **** /*******************************************************************************
 775:Generated_Source\PSoC4/CapSense_CSHL.c **** * Function Name: CapSense_SetDiffCountData
 776:Generated_Source\PSoC4/CapSense_CSHL.c **** ********************************************************************************
 777:Generated_Source\PSoC4/CapSense_CSHL.c **** *
 778:Generated_Source\PSoC4/CapSense_CSHL.c **** * Summary:
 779:Generated_Source\PSoC4/CapSense_CSHL.c **** *  This API writes the data value passed as an argument to the sensor signal array.
 780:Generated_Source\PSoC4/CapSense_CSHL.c **** *
 781:Generated_Source\PSoC4/CapSense_CSHL.c **** * Parameters:
 782:Generated_Source\PSoC4/CapSense_CSHL.c **** *  sensor:  Sensor number.
 783:Generated_Source\PSoC4/CapSense_CSHL.c **** *  value:   Sensor signal.
 784:Generated_Source\PSoC4/CapSense_CSHL.c **** *
 785:Generated_Source\PSoC4/CapSense_CSHL.c **** * Return:
 786:Generated_Source\PSoC4/CapSense_CSHL.c **** *  None.
 787:Generated_Source\PSoC4/CapSense_CSHL.c **** *
 788:Generated_Source\PSoC4/CapSense_CSHL.c **** * Global Variables:
 789:Generated_Source\PSoC4/CapSense_CSHL.c **** *  CapSense_sensorSignal[] - the array with difference counts for sensors
 790:Generated_Source\PSoC4/CapSense_CSHL.c **** *
 791:Generated_Source\PSoC4/CapSense_CSHL.c **** * Side Effects:
 792:Generated_Source\PSoC4/CapSense_CSHL.c **** *  None
 793:Generated_Source\PSoC4/CapSense_CSHL.c **** *
 794:Generated_Source\PSoC4/CapSense_CSHL.c **** *******************************************************************************/
 795:Generated_Source\PSoC4/CapSense_CSHL.c **** void CapSense_SetDiffCountData(uint32 sensor, uint8 value)
 796:Generated_Source\PSoC4/CapSense_CSHL.c **** {
 323              		.loc 1 796 0
 324              		.cfi_startproc
 325              		@ args = 0, pretend = 0, frame = 0
 326              		@ frame_needed = 0, uses_anonymous_args = 0
 327              		@ link register save eliminated.
 328              	.LVL29:
 797:Generated_Source\PSoC4/CapSense_CSHL.c ****     CapSense_sensorSignal[sensor] = value;
 329              		.loc 1 797 0
 330 0000 024B     		ldr	r3, .L27
 331 0002 1818     		adds	r0, r3, r0
 332              	.LVL30:
 333 0004 2C23     		movs	r3, #44
 334 0006 C154     		strb	r1, [r0, r3]
 798:Generated_Source\PSoC4/CapSense_CSHL.c **** }
 335              		.loc 1 798 0
 336              		@ sp needed
 337 0008 7047     		bx	lr
 338              	.L28:
ARM GAS  C:\Users\TERENC~1\AppData\Local\Temp\ccjR28lu.s 			page 21


 339 000a C046     		.align	2
 340              	.L27:
 341 000c 00000000 		.word	.LANCHOR0
 342              		.cfi_endproc
 343              	.LFE44:
 344              		.size	CapSense_SetDiffCountData, .-CapSense_SetDiffCountData
 345              		.section	.text.CapSense_GetFingerThreshold,"ax",%progbits
 346              		.align	2
 347              		.global	CapSense_GetFingerThreshold
 348              		.code	16
 349              		.thumb_func
 350              		.type	CapSense_GetFingerThreshold, %function
 351              	CapSense_GetFingerThreshold:
 352              	.LFB45:
 799:Generated_Source\PSoC4/CapSense_CSHL.c **** 
 800:Generated_Source\PSoC4/CapSense_CSHL.c **** 
 801:Generated_Source\PSoC4/CapSense_CSHL.c **** /*******************************************************************************
 802:Generated_Source\PSoC4/CapSense_CSHL.c **** * Function Name: CapSense_GetFingerThreshold
 803:Generated_Source\PSoC4/CapSense_CSHL.c **** ********************************************************************************
 804:Generated_Source\PSoC4/CapSense_CSHL.c **** *
 805:Generated_Source\PSoC4/CapSense_CSHL.c **** * Summary:
 806:Generated_Source\PSoC4/CapSense_CSHL.c **** *  This function reads the finger threshold from the component.
 807:Generated_Source\PSoC4/CapSense_CSHL.c **** *
 808:Generated_Source\PSoC4/CapSense_CSHL.c **** * Parameters:
 809:Generated_Source\PSoC4/CapSense_CSHL.c **** *  widget:  widget number.
 810:Generated_Source\PSoC4/CapSense_CSHL.c **** *
 811:Generated_Source\PSoC4/CapSense_CSHL.c **** * Return:
 812:Generated_Source\PSoC4/CapSense_CSHL.c **** *  This API returns the finger threshold of the widget indicated by the argument.
 813:Generated_Source\PSoC4/CapSense_CSHL.c **** *
 814:Generated_Source\PSoC4/CapSense_CSHL.c **** * Global Variables:
 815:Generated_Source\PSoC4/CapSense_CSHL.c **** *  CapSense_fingerThreshold[] - This array contains the level of signal
 816:Generated_Source\PSoC4/CapSense_CSHL.c **** *  for each widget that is determined if a finger is present on the widget.
 817:Generated_Source\PSoC4/CapSense_CSHL.c **** *
 818:Generated_Source\PSoC4/CapSense_CSHL.c **** * Side Effects:
 819:Generated_Source\PSoC4/CapSense_CSHL.c **** *  None
 820:Generated_Source\PSoC4/CapSense_CSHL.c **** *
 821:Generated_Source\PSoC4/CapSense_CSHL.c **** *******************************************************************************/
 822:Generated_Source\PSoC4/CapSense_CSHL.c **** uint8 CapSense_GetFingerThreshold(uint32 widget)
 823:Generated_Source\PSoC4/CapSense_CSHL.c **** {
 353              		.loc 1 823 0
 354              		.cfi_startproc
 355              		@ args = 0, pretend = 0, frame = 0
 356              		@ frame_needed = 0, uses_anonymous_args = 0
 357              		@ link register save eliminated.
 358              	.LVL31:
 824:Generated_Source\PSoC4/CapSense_CSHL.c ****     return(CapSense_fingerThreshold[widget]);
 359              		.loc 1 824 0
 360 0000 014B     		ldr	r3, .L30
 361 0002 1818     		adds	r0, r3, r0
 362              	.LVL32:
 363 0004 007A     		ldrb	r0, [r0, #8]
 825:Generated_Source\PSoC4/CapSense_CSHL.c **** }
 364              		.loc 1 825 0
 365              		@ sp needed
 366 0006 7047     		bx	lr
 367              	.L31:
 368              		.align	2
ARM GAS  C:\Users\TERENC~1\AppData\Local\Temp\ccjR28lu.s 			page 22


 369              	.L30:
 370 0008 00000000 		.word	.LANCHOR1
 371              		.cfi_endproc
 372              	.LFE45:
 373              		.size	CapSense_GetFingerThreshold, .-CapSense_GetFingerThreshold
 374              		.section	.text.CapSense_GetNoiseThreshold,"ax",%progbits
 375              		.align	2
 376              		.global	CapSense_GetNoiseThreshold
 377              		.code	16
 378              		.thumb_func
 379              		.type	CapSense_GetNoiseThreshold, %function
 380              	CapSense_GetNoiseThreshold:
 381              	.LFB46:
 826:Generated_Source\PSoC4/CapSense_CSHL.c **** 
 827:Generated_Source\PSoC4/CapSense_CSHL.c **** 
 828:Generated_Source\PSoC4/CapSense_CSHL.c **** /*******************************************************************************
 829:Generated_Source\PSoC4/CapSense_CSHL.c **** * Function Name: CapSense_GetNoiseThreshold
 830:Generated_Source\PSoC4/CapSense_CSHL.c **** ********************************************************************************
 831:Generated_Source\PSoC4/CapSense_CSHL.c **** *
 832:Generated_Source\PSoC4/CapSense_CSHL.c **** * Summary:
 833:Generated_Source\PSoC4/CapSense_CSHL.c **** *  This function reads the noise threshold from the component.
 834:Generated_Source\PSoC4/CapSense_CSHL.c **** *
 835:Generated_Source\PSoC4/CapSense_CSHL.c **** * Parameters:
 836:Generated_Source\PSoC4/CapSense_CSHL.c **** *  widget:  widget number.
 837:Generated_Source\PSoC4/CapSense_CSHL.c **** *
 838:Generated_Source\PSoC4/CapSense_CSHL.c **** * Return:
 839:Generated_Source\PSoC4/CapSense_CSHL.c **** *  This API returns the noise threshold of the widget indicated by the argument.
 840:Generated_Source\PSoC4/CapSense_CSHL.c **** *
 841:Generated_Source\PSoC4/CapSense_CSHL.c **** * Global Variables:
 842:Generated_Source\PSoC4/CapSense_CSHL.c **** *  CapSense_noiseThreshold[] - This array contains the level of signal
 843:Generated_Source\PSoC4/CapSense_CSHL.c **** *  for each widget that determines the level of noise in the capacitive scan.
 844:Generated_Source\PSoC4/CapSense_CSHL.c **** *
 845:Generated_Source\PSoC4/CapSense_CSHL.c **** * Side Effects:
 846:Generated_Source\PSoC4/CapSense_CSHL.c **** *  None
 847:Generated_Source\PSoC4/CapSense_CSHL.c **** *
 848:Generated_Source\PSoC4/CapSense_CSHL.c **** *******************************************************************************/
 849:Generated_Source\PSoC4/CapSense_CSHL.c **** uint8 CapSense_GetNoiseThreshold(uint32 widget)
 850:Generated_Source\PSoC4/CapSense_CSHL.c **** {
 382              		.loc 1 850 0
 383              		.cfi_startproc
 384              		@ args = 0, pretend = 0, frame = 0
 385              		@ frame_needed = 0, uses_anonymous_args = 0
 386              		@ link register save eliminated.
 387              	.LVL33:
 851:Generated_Source\PSoC4/CapSense_CSHL.c ****     return (CapSense_noiseThreshold[widget]);
 388              		.loc 1 851 0
 389 0000 014B     		ldr	r3, .L33
 390 0002 185C     		ldrb	r0, [r3, r0]
 391              	.LVL34:
 852:Generated_Source\PSoC4/CapSense_CSHL.c **** }
 392              		.loc 1 852 0
 393              		@ sp needed
 394 0004 7047     		bx	lr
 395              	.L34:
 396 0006 C046     		.align	2
 397              	.L33:
 398 0008 00000000 		.word	CapSense_noiseThreshold
ARM GAS  C:\Users\TERENC~1\AppData\Local\Temp\ccjR28lu.s 			page 23


 399              		.cfi_endproc
 400              	.LFE46:
 401              		.size	CapSense_GetNoiseThreshold, .-CapSense_GetNoiseThreshold
 402              		.section	.text.CapSense_GetFingerHysteresis,"ax",%progbits
 403              		.align	2
 404              		.global	CapSense_GetFingerHysteresis
 405              		.code	16
 406              		.thumb_func
 407              		.type	CapSense_GetFingerHysteresis, %function
 408              	CapSense_GetFingerHysteresis:
 409              	.LFB47:
 853:Generated_Source\PSoC4/CapSense_CSHL.c **** 
 854:Generated_Source\PSoC4/CapSense_CSHL.c **** 
 855:Generated_Source\PSoC4/CapSense_CSHL.c **** /*******************************************************************************
 856:Generated_Source\PSoC4/CapSense_CSHL.c **** * Function Name: CapSense_GetFingerHysteresis
 857:Generated_Source\PSoC4/CapSense_CSHL.c **** ********************************************************************************
 858:Generated_Source\PSoC4/CapSense_CSHL.c **** *
 859:Generated_Source\PSoC4/CapSense_CSHL.c **** * Summary:
 860:Generated_Source\PSoC4/CapSense_CSHL.c **** *  This function reads the Hysteresis value from the component.
 861:Generated_Source\PSoC4/CapSense_CSHL.c **** *
 862:Generated_Source\PSoC4/CapSense_CSHL.c **** * Parameters:
 863:Generated_Source\PSoC4/CapSense_CSHL.c **** *  widget:  widget number.
 864:Generated_Source\PSoC4/CapSense_CSHL.c **** *
 865:Generated_Source\PSoC4/CapSense_CSHL.c **** * Return:
 866:Generated_Source\PSoC4/CapSense_CSHL.c **** *  This API returns the Hysteresis of the widget indicated by the argument.
 867:Generated_Source\PSoC4/CapSense_CSHL.c **** *
 868:Generated_Source\PSoC4/CapSense_CSHL.c **** * Global Variables:
 869:Generated_Source\PSoC4/CapSense_CSHL.c **** *  CapSense_hysteresis[] - This array contains the hysteresis value
 870:Generated_Source\PSoC4/CapSense_CSHL.c **** *   for each widget.
 871:Generated_Source\PSoC4/CapSense_CSHL.c **** *  CapSense_widgetNumberSld - structure with dynamic sliders' parameters.
 872:Generated_Source\PSoC4/CapSense_CSHL.c **** *
 873:Generated_Source\PSoC4/CapSense_CSHL.c **** * Side Effects:
 874:Generated_Source\PSoC4/CapSense_CSHL.c **** *  None
 875:Generated_Source\PSoC4/CapSense_CSHL.c **** *
 876:Generated_Source\PSoC4/CapSense_CSHL.c **** *******************************************************************************/
 877:Generated_Source\PSoC4/CapSense_CSHL.c **** uint8 CapSense_GetFingerHysteresis(uint32 widget)
 878:Generated_Source\PSoC4/CapSense_CSHL.c **** {
 410              		.loc 1 878 0
 411              		.cfi_startproc
 412              		@ args = 0, pretend = 0, frame = 0
 413              		@ frame_needed = 0, uses_anonymous_args = 0
 414              		@ link register save eliminated.
 415              	.LVL35:
 879:Generated_Source\PSoC4/CapSense_CSHL.c ****     return(CapSense_hysteresis[widget]);
 416              		.loc 1 879 0
 417 0000 014B     		ldr	r3, .L36
 418 0002 185C     		ldrb	r0, [r3, r0]
 419              	.LVL36:
 880:Generated_Source\PSoC4/CapSense_CSHL.c **** }
 420              		.loc 1 880 0
 421              		@ sp needed
 422 0004 7047     		bx	lr
 423              	.L37:
 424 0006 C046     		.align	2
 425              	.L36:
 426 0008 00000000 		.word	CapSense_hysteresis
 427              		.cfi_endproc
ARM GAS  C:\Users\TERENC~1\AppData\Local\Temp\ccjR28lu.s 			page 24


 428              	.LFE47:
 429              		.size	CapSense_GetFingerHysteresis, .-CapSense_GetFingerHysteresis
 430              		.section	.text.CapSense_GetNegativeNoiseThreshold,"ax",%progbits
 431              		.align	2
 432              		.global	CapSense_GetNegativeNoiseThreshold
 433              		.code	16
 434              		.thumb_func
 435              		.type	CapSense_GetNegativeNoiseThreshold, %function
 436              	CapSense_GetNegativeNoiseThreshold:
 437              	.LFB48:
 881:Generated_Source\PSoC4/CapSense_CSHL.c **** 
 882:Generated_Source\PSoC4/CapSense_CSHL.c **** 
 883:Generated_Source\PSoC4/CapSense_CSHL.c **** /*******************************************************************************
 884:Generated_Source\PSoC4/CapSense_CSHL.c **** * Function Name: CapSense_GetNegativeNoiseThreshold
 885:Generated_Source\PSoC4/CapSense_CSHL.c **** ********************************************************************************
 886:Generated_Source\PSoC4/CapSense_CSHL.c **** *
 887:Generated_Source\PSoC4/CapSense_CSHL.c **** * Summary:
 888:Generated_Source\PSoC4/CapSense_CSHL.c **** *  This function reads the negative noise threshold from the component.
 889:Generated_Source\PSoC4/CapSense_CSHL.c **** *
 890:Generated_Source\PSoC4/CapSense_CSHL.c **** * Parameters:
 891:Generated_Source\PSoC4/CapSense_CSHL.c **** *  None.
 892:Generated_Source\PSoC4/CapSense_CSHL.c **** *
 893:Generated_Source\PSoC4/CapSense_CSHL.c **** * Return Value:
 894:Generated_Source\PSoC4/CapSense_CSHL.c **** *  This API returns the negative noise threshold
 895:Generated_Source\PSoC4/CapSense_CSHL.c **** *
 896:Generated_Source\PSoC4/CapSense_CSHL.c **** * Global Variables:
 897:Generated_Source\PSoC4/CapSense_CSHL.c **** *  CapSense_negativeNoiseThreshold - This variable specifies the negative
 898:Generated_Source\PSoC4/CapSense_CSHL.c **** *   difference between the raw count and baseline levels for Baseline resetting
 899:Generated_Source\PSoC4/CapSense_CSHL.c **** *   to the raw count level.
 900:Generated_Source\PSoC4/CapSense_CSHL.c **** *
 901:Generated_Source\PSoC4/CapSense_CSHL.c **** * Side Effects:
 902:Generated_Source\PSoC4/CapSense_CSHL.c **** *  None
 903:Generated_Source\PSoC4/CapSense_CSHL.c **** *
 904:Generated_Source\PSoC4/CapSense_CSHL.c **** *******************************************************************************/
 905:Generated_Source\PSoC4/CapSense_CSHL.c **** uint8 CapSense_GetNegativeNoiseThreshold(uint32 widget)
 906:Generated_Source\PSoC4/CapSense_CSHL.c **** {
 438              		.loc 1 906 0
 439              		.cfi_startproc
 440              		@ args = 0, pretend = 0, frame = 0
 441              		@ frame_needed = 0, uses_anonymous_args = 0
 442              		@ link register save eliminated.
 443              	.LVL37:
 907:Generated_Source\PSoC4/CapSense_CSHL.c **** #if (CapSense_TUNING_METHOD != CapSense__TUNING_NONE)
 908:Generated_Source\PSoC4/CapSense_CSHL.c ****     return(CapSense_negativeNoiseThreshold[widget]);
 444              		.loc 1 908 0
 445 0000 014B     		ldr	r3, .L39
 446 0002 185C     		ldrb	r0, [r3, r0]
 447              	.LVL38:
 909:Generated_Source\PSoC4/CapSense_CSHL.c **** #else
 910:Generated_Source\PSoC4/CapSense_CSHL.c ****     return(CapSense_NEGATIVE_NOISE_THRESHOLD);
 911:Generated_Source\PSoC4/CapSense_CSHL.c **** #endif /* (CapSense_TUNING_METHOD != CapSense__TUNING_NONE) */
 912:Generated_Source\PSoC4/CapSense_CSHL.c **** }
 448              		.loc 1 912 0
 449              		@ sp needed
 450 0004 7047     		bx	lr
 451              	.L40:
 452 0006 C046     		.align	2
ARM GAS  C:\Users\TERENC~1\AppData\Local\Temp\ccjR28lu.s 			page 25


 453              	.L39:
 454 0008 00000000 		.word	CapSense_negativeNoiseThreshold
 455              		.cfi_endproc
 456              	.LFE48:
 457              		.size	CapSense_GetNegativeNoiseThreshold, .-CapSense_GetNegativeNoiseThreshold
 458              		.section	.text.CapSense_SetFingerThreshold,"ax",%progbits
 459              		.align	2
 460              		.global	CapSense_SetFingerThreshold
 461              		.code	16
 462              		.thumb_func
 463              		.type	CapSense_SetFingerThreshold, %function
 464              	CapSense_SetFingerThreshold:
 465              	.LFB49:
 913:Generated_Source\PSoC4/CapSense_CSHL.c **** 
 914:Generated_Source\PSoC4/CapSense_CSHL.c **** 
 915:Generated_Source\PSoC4/CapSense_CSHL.c **** #if(CapSense_TUNING_METHOD != CapSense__TUNING_NONE)
 916:Generated_Source\PSoC4/CapSense_CSHL.c ****     /*******************************************************************************
 917:Generated_Source\PSoC4/CapSense_CSHL.c ****     * Function Name: CapSense_SetFingerThreshold
 918:Generated_Source\PSoC4/CapSense_CSHL.c ****     ********************************************************************************
 919:Generated_Source\PSoC4/CapSense_CSHL.c ****     *
 920:Generated_Source\PSoC4/CapSense_CSHL.c ****     * Summary:
 921:Generated_Source\PSoC4/CapSense_CSHL.c ****     *  This API sets the finger threshold value for a widget.
 922:Generated_Source\PSoC4/CapSense_CSHL.c ****     *
 923:Generated_Source\PSoC4/CapSense_CSHL.c ****     * Parameters:
 924:Generated_Source\PSoC4/CapSense_CSHL.c ****     *  sensorNumber:  widget index.
 925:Generated_Source\PSoC4/CapSense_CSHL.c ****     *  value:  Finger threshold value for the widget.
 926:Generated_Source\PSoC4/CapSense_CSHL.c ****     *
 927:Generated_Source\PSoC4/CapSense_CSHL.c ****     * Return Value:
 928:Generated_Source\PSoC4/CapSense_CSHL.c ****     *  None
 929:Generated_Source\PSoC4/CapSense_CSHL.c ****     *
 930:Generated_Source\PSoC4/CapSense_CSHL.c ****     * Global Variables:
 931:Generated_Source\PSoC4/CapSense_CSHL.c ****     *  CapSense_fingerThreshold[] - This array contains the level of signal
 932:Generated_Source\PSoC4/CapSense_CSHL.c ****     *   for each widget that determines if a finger is present on the widget.
 933:Generated_Source\PSoC4/CapSense_CSHL.c ****     *
 934:Generated_Source\PSoC4/CapSense_CSHL.c ****     * Side Effects:
 935:Generated_Source\PSoC4/CapSense_CSHL.c ****     *  None
 936:Generated_Source\PSoC4/CapSense_CSHL.c ****     *
 937:Generated_Source\PSoC4/CapSense_CSHL.c ****     *******************************************************************************/
 938:Generated_Source\PSoC4/CapSense_CSHL.c ****     void CapSense_SetFingerThreshold(uint32 widget, uint8 value)
 939:Generated_Source\PSoC4/CapSense_CSHL.c ****     {
 466              		.loc 1 939 0
 467              		.cfi_startproc
 468              		@ args = 0, pretend = 0, frame = 0
 469              		@ frame_needed = 0, uses_anonymous_args = 0
 470              		@ link register save eliminated.
 471              	.LVL39:
 940:Generated_Source\PSoC4/CapSense_CSHL.c ****         CapSense_fingerThreshold[widget] = value;
 472              		.loc 1 940 0
 473 0000 014B     		ldr	r3, .L42
 474 0002 1818     		adds	r0, r3, r0
 475              	.LVL40:
 476 0004 0172     		strb	r1, [r0, #8]
 941:Generated_Source\PSoC4/CapSense_CSHL.c ****     }
 477              		.loc 1 941 0
 478              		@ sp needed
 479 0006 7047     		bx	lr
 480              	.L43:
ARM GAS  C:\Users\TERENC~1\AppData\Local\Temp\ccjR28lu.s 			page 26


 481              		.align	2
 482              	.L42:
 483 0008 00000000 		.word	.LANCHOR1
 484              		.cfi_endproc
 485              	.LFE49:
 486              		.size	CapSense_SetFingerThreshold, .-CapSense_SetFingerThreshold
 487              		.section	.text.CapSense_SetNoiseThreshold,"ax",%progbits
 488              		.align	2
 489              		.global	CapSense_SetNoiseThreshold
 490              		.code	16
 491              		.thumb_func
 492              		.type	CapSense_SetNoiseThreshold, %function
 493              	CapSense_SetNoiseThreshold:
 494              	.LFB50:
 942:Generated_Source\PSoC4/CapSense_CSHL.c **** 
 943:Generated_Source\PSoC4/CapSense_CSHL.c **** 
 944:Generated_Source\PSoC4/CapSense_CSHL.c ****     /*******************************************************************************
 945:Generated_Source\PSoC4/CapSense_CSHL.c ****     * Function Name: CapSense_SetNoiseThreshold
 946:Generated_Source\PSoC4/CapSense_CSHL.c ****     ********************************************************************************
 947:Generated_Source\PSoC4/CapSense_CSHL.c ****     *
 948:Generated_Source\PSoC4/CapSense_CSHL.c ****     * Summary:
 949:Generated_Source\PSoC4/CapSense_CSHL.c ****     *  This API sets the Noise Threshold value for each widget.
 950:Generated_Source\PSoC4/CapSense_CSHL.c ****     *
 951:Generated_Source\PSoC4/CapSense_CSHL.c ****     * Parameters:
 952:Generated_Source\PSoC4/CapSense_CSHL.c ****     *  widget:  Sensor index number.
 953:Generated_Source\PSoC4/CapSense_CSHL.c ****     *  value:   Noise Threshold value for widget.
 954:Generated_Source\PSoC4/CapSense_CSHL.c ****     *
 955:Generated_Source\PSoC4/CapSense_CSHL.c ****     * Return Value:
 956:Generated_Source\PSoC4/CapSense_CSHL.c ****     *  None
 957:Generated_Source\PSoC4/CapSense_CSHL.c ****     *
 958:Generated_Source\PSoC4/CapSense_CSHL.c ****     * Global Variables:
 959:Generated_Source\PSoC4/CapSense_CSHL.c ****     *  CapSense_noiseThreshold[] - This array contains the level of signal
 960:Generated_Source\PSoC4/CapSense_CSHL.c ****     *   for each widget that determines the level of noise in the capacitive scan.
 961:Generated_Source\PSoC4/CapSense_CSHL.c ****     *
 962:Generated_Source\PSoC4/CapSense_CSHL.c ****     * Side Effects:
 963:Generated_Source\PSoC4/CapSense_CSHL.c ****     *  None
 964:Generated_Source\PSoC4/CapSense_CSHL.c ****     *
 965:Generated_Source\PSoC4/CapSense_CSHL.c ****     *******************************************************************************/
 966:Generated_Source\PSoC4/CapSense_CSHL.c ****     void CapSense_SetNoiseThreshold(uint32 widget, uint8 value)
 967:Generated_Source\PSoC4/CapSense_CSHL.c ****     {
 495              		.loc 1 967 0
 496              		.cfi_startproc
 497              		@ args = 0, pretend = 0, frame = 0
 498              		@ frame_needed = 0, uses_anonymous_args = 0
 499              		@ link register save eliminated.
 500              	.LVL41:
 968:Generated_Source\PSoC4/CapSense_CSHL.c ****         CapSense_noiseThreshold[widget] = value;
 501              		.loc 1 968 0
 502 0000 014B     		ldr	r3, .L45
 503 0002 1954     		strb	r1, [r3, r0]
 969:Generated_Source\PSoC4/CapSense_CSHL.c ****     }
 504              		.loc 1 969 0
 505              		@ sp needed
 506 0004 7047     		bx	lr
 507              	.L46:
 508 0006 C046     		.align	2
 509              	.L45:
ARM GAS  C:\Users\TERENC~1\AppData\Local\Temp\ccjR28lu.s 			page 27


 510 0008 00000000 		.word	CapSense_noiseThreshold
 511              		.cfi_endproc
 512              	.LFE50:
 513              		.size	CapSense_SetNoiseThreshold, .-CapSense_SetNoiseThreshold
 514              		.section	.text.CapSense_SetFingerHysteresis,"ax",%progbits
 515              		.align	2
 516              		.global	CapSense_SetFingerHysteresis
 517              		.code	16
 518              		.thumb_func
 519              		.type	CapSense_SetFingerHysteresis, %function
 520              	CapSense_SetFingerHysteresis:
 521              	.LFB51:
 970:Generated_Source\PSoC4/CapSense_CSHL.c **** 
 971:Generated_Source\PSoC4/CapSense_CSHL.c **** 
 972:Generated_Source\PSoC4/CapSense_CSHL.c ****     /*******************************************************************************
 973:Generated_Source\PSoC4/CapSense_CSHL.c ****     * Function Name: CapSense_SetFingerHysteresis
 974:Generated_Source\PSoC4/CapSense_CSHL.c ****     ********************************************************************************
 975:Generated_Source\PSoC4/CapSense_CSHL.c ****     *
 976:Generated_Source\PSoC4/CapSense_CSHL.c ****     * Summary:
 977:Generated_Source\PSoC4/CapSense_CSHL.c ****     *  This API sets the Hysteresis value of a widget
 978:Generated_Source\PSoC4/CapSense_CSHL.c ****     *
 979:Generated_Source\PSoC4/CapSense_CSHL.c ****     * Parameters:
 980:Generated_Source\PSoC4/CapSense_CSHL.c ****     *  value:  Hysteresis value for widgets.
 981:Generated_Source\PSoC4/CapSense_CSHL.c ****     *  widget:  widget number
 982:Generated_Source\PSoC4/CapSense_CSHL.c ****     *
 983:Generated_Source\PSoC4/CapSense_CSHL.c ****     * Return Value:
 984:Generated_Source\PSoC4/CapSense_CSHL.c ****     *  None
 985:Generated_Source\PSoC4/CapSense_CSHL.c ****     *
 986:Generated_Source\PSoC4/CapSense_CSHL.c ****     * Global Variables:
 987:Generated_Source\PSoC4/CapSense_CSHL.c ****     *  CapSense_hysteresis[] - This array contains the hysteresis value for each widget.
 988:Generated_Source\PSoC4/CapSense_CSHL.c ****     *  CapSense_widgetNumberSld - structure with dynamic sliders' parameters.
 989:Generated_Source\PSoC4/CapSense_CSHL.c ****     *
 990:Generated_Source\PSoC4/CapSense_CSHL.c ****     * Side Effects:
 991:Generated_Source\PSoC4/CapSense_CSHL.c ****     *  None
 992:Generated_Source\PSoC4/CapSense_CSHL.c ****     *
 993:Generated_Source\PSoC4/CapSense_CSHL.c ****     *******************************************************************************/
 994:Generated_Source\PSoC4/CapSense_CSHL.c ****     void CapSense_SetFingerHysteresis(uint32 widget, uint8 value)
 995:Generated_Source\PSoC4/CapSense_CSHL.c ****     {
 522              		.loc 1 995 0
 523              		.cfi_startproc
 524              		@ args = 0, pretend = 0, frame = 0
 525              		@ frame_needed = 0, uses_anonymous_args = 0
 526              		@ link register save eliminated.
 527              	.LVL42:
 996:Generated_Source\PSoC4/CapSense_CSHL.c ****         CapSense_hysteresis[widget] = value;
 528              		.loc 1 996 0
 529 0000 014B     		ldr	r3, .L48
 530 0002 1954     		strb	r1, [r3, r0]
 997:Generated_Source\PSoC4/CapSense_CSHL.c ****     }
 531              		.loc 1 997 0
 532              		@ sp needed
 533 0004 7047     		bx	lr
 534              	.L49:
 535 0006 C046     		.align	2
 536              	.L48:
 537 0008 00000000 		.word	CapSense_hysteresis
 538              		.cfi_endproc
ARM GAS  C:\Users\TERENC~1\AppData\Local\Temp\ccjR28lu.s 			page 28


 539              	.LFE51:
 540              		.size	CapSense_SetFingerHysteresis, .-CapSense_SetFingerHysteresis
 541              		.section	.text.CapSense_SetNegativeNoiseThreshold,"ax",%progbits
 542              		.align	2
 543              		.global	CapSense_SetNegativeNoiseThreshold
 544              		.code	16
 545              		.thumb_func
 546              		.type	CapSense_SetNegativeNoiseThreshold, %function
 547              	CapSense_SetNegativeNoiseThreshold:
 548              	.LFB52:
 998:Generated_Source\PSoC4/CapSense_CSHL.c **** 
 999:Generated_Source\PSoC4/CapSense_CSHL.c **** 
1000:Generated_Source\PSoC4/CapSense_CSHL.c ****     /*******************************************************************************
1001:Generated_Source\PSoC4/CapSense_CSHL.c ****     * Function Name: CapSense_SetNegativeNoiseThreshold
1002:Generated_Source\PSoC4/CapSense_CSHL.c ****     ********************************************************************************
1003:Generated_Source\PSoC4/CapSense_CSHL.c ****     *
1004:Generated_Source\PSoC4/CapSense_CSHL.c ****     * Summary:
1005:Generated_Source\PSoC4/CapSense_CSHL.c ****     *  This API sets the Negative Noise Threshold value of a widget
1006:Generated_Source\PSoC4/CapSense_CSHL.c ****     *
1007:Generated_Source\PSoC4/CapSense_CSHL.c ****     * Parameters:
1008:Generated_Source\PSoC4/CapSense_CSHL.c ****     *  value:  Negative Noise Threshold value for widgets.
1009:Generated_Source\PSoC4/CapSense_CSHL.c ****     *  widget: widget number
1010:Generated_Source\PSoC4/CapSense_CSHL.c ****     *
1011:Generated_Source\PSoC4/CapSense_CSHL.c ****     * Return Value:
1012:Generated_Source\PSoC4/CapSense_CSHL.c ****     *  None
1013:Generated_Source\PSoC4/CapSense_CSHL.c ****     *
1014:Generated_Source\PSoC4/CapSense_CSHL.c ****     * Global Variables:
1015:Generated_Source\PSoC4/CapSense_CSHL.c ****     *  CapSense_negativeNoiseThreshold  - This parameter specifies the negative
1016:Generated_Source\PSoC4/CapSense_CSHL.c ****     *   difference between the raw count and baseline levels for Baseline resetting to
1017:Generated_Source\PSoC4/CapSense_CSHL.c ****     *   the raw count level.
1018:Generated_Source\PSoC4/CapSense_CSHL.c ****     *
1019:Generated_Source\PSoC4/CapSense_CSHL.c ****     * Side Effects:
1020:Generated_Source\PSoC4/CapSense_CSHL.c ****     *  None
1021:Generated_Source\PSoC4/CapSense_CSHL.c ****     *
1022:Generated_Source\PSoC4/CapSense_CSHL.c ****     *******************************************************************************/
1023:Generated_Source\PSoC4/CapSense_CSHL.c ****     void CapSense_SetNegativeNoiseThreshold(uint32 widget, uint8 value)
1024:Generated_Source\PSoC4/CapSense_CSHL.c ****     {
 549              		.loc 1 1024 0
 550              		.cfi_startproc
 551              		@ args = 0, pretend = 0, frame = 0
 552              		@ frame_needed = 0, uses_anonymous_args = 0
 553              		@ link register save eliminated.
 554              	.LVL43:
1025:Generated_Source\PSoC4/CapSense_CSHL.c ****         CapSense_negativeNoiseThreshold[widget] = value;
 555              		.loc 1 1025 0
 556 0000 014B     		ldr	r3, .L51
 557 0002 1954     		strb	r1, [r3, r0]
1026:Generated_Source\PSoC4/CapSense_CSHL.c ****     }
 558              		.loc 1 1026 0
 559              		@ sp needed
 560 0004 7047     		bx	lr
 561              	.L52:
 562 0006 C046     		.align	2
 563              	.L51:
 564 0008 00000000 		.word	CapSense_negativeNoiseThreshold
 565              		.cfi_endproc
 566              	.LFE52:
ARM GAS  C:\Users\TERENC~1\AppData\Local\Temp\ccjR28lu.s 			page 29


 567              		.size	CapSense_SetNegativeNoiseThreshold, .-CapSense_SetNegativeNoiseThreshold
 568              		.section	.text.CapSense_SetDebounce,"ax",%progbits
 569              		.align	2
 570              		.global	CapSense_SetDebounce
 571              		.code	16
 572              		.thumb_func
 573              		.type	CapSense_SetDebounce, %function
 574              	CapSense_SetDebounce:
 575              	.LFB53:
1027:Generated_Source\PSoC4/CapSense_CSHL.c **** 
1028:Generated_Source\PSoC4/CapSense_CSHL.c **** 
1029:Generated_Source\PSoC4/CapSense_CSHL.c ****     /*******************************************************************************
1030:Generated_Source\PSoC4/CapSense_CSHL.c ****     * Function Name: CapSense_SetDebounce
1031:Generated_Source\PSoC4/CapSense_CSHL.c ****     ********************************************************************************
1032:Generated_Source\PSoC4/CapSense_CSHL.c ****     *
1033:Generated_Source\PSoC4/CapSense_CSHL.c ****     * Summary:
1034:Generated_Source\PSoC4/CapSense_CSHL.c ****     *  This API sets the debounce value for a widget.
1035:Generated_Source\PSoC4/CapSense_CSHL.c ****     *
1036:Generated_Source\PSoC4/CapSense_CSHL.c ****     * Parameters:
1037:Generated_Source\PSoC4/CapSense_CSHL.c ****     *  value:  Debounce value for widget.
1038:Generated_Source\PSoC4/CapSense_CSHL.c ****     *  widget: widget index.
1039:Generated_Source\PSoC4/CapSense_CSHL.c ****     *
1040:Generated_Source\PSoC4/CapSense_CSHL.c ****     * Return Value:
1041:Generated_Source\PSoC4/CapSense_CSHL.c ****     *  None
1042:Generated_Source\PSoC4/CapSense_CSHL.c ****     *
1043:Generated_Source\PSoC4/CapSense_CSHL.c ****     * Global Variables:
1044:Generated_Source\PSoC4/CapSense_CSHL.c ****     *  CapSense_debounce[] - This array contains the debounce value for each widget.
1045:Generated_Source\PSoC4/CapSense_CSHL.c ****     *  CapSense_widgetNumberSld - structure with dynamic sliders' parameters.
1046:Generated_Source\PSoC4/CapSense_CSHL.c ****     *
1047:Generated_Source\PSoC4/CapSense_CSHL.c ****     * Side Effects:
1048:Generated_Source\PSoC4/CapSense_CSHL.c ****     *  None
1049:Generated_Source\PSoC4/CapSense_CSHL.c ****     *
1050:Generated_Source\PSoC4/CapSense_CSHL.c ****     *******************************************************************************/
1051:Generated_Source\PSoC4/CapSense_CSHL.c ****     void CapSense_SetDebounce(uint32 widget, uint8 value)
1052:Generated_Source\PSoC4/CapSense_CSHL.c ****     {
 576              		.loc 1 1052 0
 577              		.cfi_startproc
 578              		@ args = 0, pretend = 0, frame = 0
 579              		@ frame_needed = 0, uses_anonymous_args = 0
 580              		@ link register save eliminated.
 581              	.LVL44:
1053:Generated_Source\PSoC4/CapSense_CSHL.c ****         CapSense_debounce[widget] = value;
 582              		.loc 1 1053 0
 583 0000 014B     		ldr	r3, .L54
 584 0002 1954     		strb	r1, [r3, r0]
1054:Generated_Source\PSoC4/CapSense_CSHL.c ****     }
 585              		.loc 1 1054 0
 586              		@ sp needed
 587 0004 7047     		bx	lr
 588              	.L55:
 589 0006 C046     		.align	2
 590              	.L54:
 591 0008 00000000 		.word	.LANCHOR1
 592              		.cfi_endproc
 593              	.LFE53:
 594              		.size	CapSense_SetDebounce, .-CapSense_SetDebounce
 595              		.section	.text.CapSense_SetLowBaselineReset,"ax",%progbits
ARM GAS  C:\Users\TERENC~1\AppData\Local\Temp\ccjR28lu.s 			page 30


 596              		.align	2
 597              		.global	CapSense_SetLowBaselineReset
 598              		.code	16
 599              		.thumb_func
 600              		.type	CapSense_SetLowBaselineReset, %function
 601              	CapSense_SetLowBaselineReset:
 602              	.LFB54:
1055:Generated_Source\PSoC4/CapSense_CSHL.c **** 
1056:Generated_Source\PSoC4/CapSense_CSHL.c **** 
1057:Generated_Source\PSoC4/CapSense_CSHL.c ****     /*******************************************************************************
1058:Generated_Source\PSoC4/CapSense_CSHL.c ****     * Function Name: CapSense_SetLowBaselineReset
1059:Generated_Source\PSoC4/CapSense_CSHL.c ****     ********************************************************************************
1060:Generated_Source\PSoC4/CapSense_CSHL.c ****     *
1061:Generated_Source\PSoC4/CapSense_CSHL.c ****     * Summary:
1062:Generated_Source\PSoC4/CapSense_CSHL.c ****     *  This API sets the low baseline reset threshold value for the sensor.
1063:Generated_Source\PSoC4/CapSense_CSHL.c ****     *
1064:Generated_Source\PSoC4/CapSense_CSHL.c ****     * Parameters:
1065:Generated_Source\PSoC4/CapSense_CSHL.c ****     *  value: low baseline reset threshold value.
1066:Generated_Source\PSoC4/CapSense_CSHL.c ****     *  sensor: Sensor index.
1067:Generated_Source\PSoC4/CapSense_CSHL.c ****     *
1068:Generated_Source\PSoC4/CapSense_CSHL.c ****     * Return Value:
1069:Generated_Source\PSoC4/CapSense_CSHL.c ****     *  None
1070:Generated_Source\PSoC4/CapSense_CSHL.c ****     *
1071:Generated_Source\PSoC4/CapSense_CSHL.c ****     * Global Variables:
1072:Generated_Source\PSoC4/CapSense_CSHL.c ****     *  CapSense_lowBaselineReset[] - This array contains the Baseline update
1073:Generated_Source\PSoC4/CapSense_CSHL.c ****     *  threshold value for each sensor.
1074:Generated_Source\PSoC4/CapSense_CSHL.c ****     *
1075:Generated_Source\PSoC4/CapSense_CSHL.c ****     * Side Effects:
1076:Generated_Source\PSoC4/CapSense_CSHL.c ****     *  None
1077:Generated_Source\PSoC4/CapSense_CSHL.c ****     *
1078:Generated_Source\PSoC4/CapSense_CSHL.c ****     *******************************************************************************/
1079:Generated_Source\PSoC4/CapSense_CSHL.c ****     void CapSense_SetLowBaselineReset(uint32 sensor, uint8 value)
1080:Generated_Source\PSoC4/CapSense_CSHL.c ****     {
 603              		.loc 1 1080 0
 604              		.cfi_startproc
 605              		@ args = 0, pretend = 0, frame = 0
 606              		@ frame_needed = 0, uses_anonymous_args = 0
 607              		@ link register save eliminated.
 608              	.LVL45:
1081:Generated_Source\PSoC4/CapSense_CSHL.c ****         CapSense_lowBaselineReset[sensor] = value;
 609              		.loc 1 1081 0
 610 0000 014B     		ldr	r3, .L57
 611 0002 1818     		adds	r0, r3, r0
 612              	.LVL46:
 613 0004 0174     		strb	r1, [r0, #16]
1082:Generated_Source\PSoC4/CapSense_CSHL.c ****     }
 614              		.loc 1 1082 0
 615              		@ sp needed
 616 0006 7047     		bx	lr
 617              	.L58:
 618              		.align	2
 619              	.L57:
 620 0008 00000000 		.word	.LANCHOR1
 621              		.cfi_endproc
 622              	.LFE54:
 623              		.size	CapSense_SetLowBaselineReset, .-CapSense_SetLowBaselineReset
 624              		.section	.text.CapSense_CheckIsSensorActive,"ax",%progbits
ARM GAS  C:\Users\TERENC~1\AppData\Local\Temp\ccjR28lu.s 			page 31


 625              		.align	2
 626              		.global	CapSense_CheckIsSensorActive
 627              		.code	16
 628              		.thumb_func
 629              		.type	CapSense_CheckIsSensorActive, %function
 630              	CapSense_CheckIsSensorActive:
 631              	.LFB55:
1083:Generated_Source\PSoC4/CapSense_CSHL.c **** #endif /* (CapSense_TUNING_METHOD != CapSense__TUNING_NONE) */
1084:Generated_Source\PSoC4/CapSense_CSHL.c **** 
1085:Generated_Source\PSoC4/CapSense_CSHL.c **** 
1086:Generated_Source\PSoC4/CapSense_CSHL.c **** /*******************************************************************************
1087:Generated_Source\PSoC4/CapSense_CSHL.c **** * Function Name: CapSense_CheckIsSensorActive
1088:Generated_Source\PSoC4/CapSense_CSHL.c **** ********************************************************************************
1089:Generated_Source\PSoC4/CapSense_CSHL.c **** *
1090:Generated_Source\PSoC4/CapSense_CSHL.c **** * Summary:
1091:Generated_Source\PSoC4/CapSense_CSHL.c **** *  Compares the CapSense_sensorSignal[sensor] array element to the finger
1092:Generated_Source\PSoC4/CapSense_CSHL.c **** *  threshold of the widget it belongs to. The hysteresis and debounce are taken into
1093:Generated_Source\PSoC4/CapSense_CSHL.c **** *  account. The hysteresis is added or subtracted from the finger threshold
1094:Generated_Source\PSoC4/CapSense_CSHL.c **** *  based on whether the sensor is currently active.
1095:Generated_Source\PSoC4/CapSense_CSHL.c **** *  If the sensor is active, the threshold is lowered by the hysteresis amount.
1096:Generated_Source\PSoC4/CapSense_CSHL.c **** *  If the sensor is inactive, the threshold is raised by the hysteresis amount.
1097:Generated_Source\PSoC4/CapSense_CSHL.c **** *  The debounce counter is added to the sensor active transition.
1098:Generated_Source\PSoC4/CapSense_CSHL.c **** *  This function updates the CapSense_sensorOnMask[] array element.
1099:Generated_Source\PSoC4/CapSense_CSHL.c **** *
1100:Generated_Source\PSoC4/CapSense_CSHL.c **** * Parameters:
1101:Generated_Source\PSoC4/CapSense_CSHL.c **** *  sensor:  Sensor number.
1102:Generated_Source\PSoC4/CapSense_CSHL.c **** *
1103:Generated_Source\PSoC4/CapSense_CSHL.c **** * Return:
1104:Generated_Source\PSoC4/CapSense_CSHL.c **** *  Returns sensor state 1 if active, 0 if not active.
1105:Generated_Source\PSoC4/CapSense_CSHL.c **** *
1106:Generated_Source\PSoC4/CapSense_CSHL.c **** * Global Variables:
1107:Generated_Source\PSoC4/CapSense_CSHL.c **** *  CapSense_sensorSignal[] - used to store the difference between
1108:Generated_Source\PSoC4/CapSense_CSHL.c **** *  the current value of raw data and a previous value of the baseline.
1109:Generated_Source\PSoC4/CapSense_CSHL.c **** *  CapSense_debounceCounter[]   - used to store the current debounce
1110:Generated_Source\PSoC4/CapSense_CSHL.c **** *  counter of the sensor. the widget which have this parameter are buttons, matrix
1111:Generated_Source\PSoC4/CapSense_CSHL.c **** *  buttons, proximity, and guard. All other widgets don't have the  debounce parameter
1112:Generated_Source\PSoC4/CapSense_CSHL.c **** *  and use the last element of this array with value 0 (it means no debounce).
1113:Generated_Source\PSoC4/CapSense_CSHL.c **** *  CapSense_sensorOnMask[] - used to store the sensors on/off state.
1114:Generated_Source\PSoC4/CapSense_CSHL.c **** *  CapSense_sensorOnMask[0] contains the masked bits for sensors
1115:Generated_Source\PSoC4/CapSense_CSHL.c **** *   0 through 7 (sensor 0 is bit 0, sensor 1 is bit 1).
1116:Generated_Source\PSoC4/CapSense_CSHL.c **** *  CapSense_sensorEnableMask[1] contains the masked bits for
1117:Generated_Source\PSoC4/CapSense_CSHL.c **** *  sensors 8 through 15 (if needed), and so on.
1118:Generated_Source\PSoC4/CapSense_CSHL.c **** *  0 - sensor is inactive.
1119:Generated_Source\PSoC4/CapSense_CSHL.c **** *  1 - sensor is active.
1120:Generated_Source\PSoC4/CapSense_CSHL.c **** *
1121:Generated_Source\PSoC4/CapSense_CSHL.c **** * Side Effects:
1122:Generated_Source\PSoC4/CapSense_CSHL.c **** *  None
1123:Generated_Source\PSoC4/CapSense_CSHL.c **** *
1124:Generated_Source\PSoC4/CapSense_CSHL.c **** *******************************************************************************/
1125:Generated_Source\PSoC4/CapSense_CSHL.c **** uint32 CapSense_CheckIsSensorActive(uint32 sensor)
1126:Generated_Source\PSoC4/CapSense_CSHL.c **** {
 632              		.loc 1 1126 0
 633              		.cfi_startproc
 634              		@ args = 0, pretend = 0, frame = 0
 635              		@ frame_needed = 0, uses_anonymous_args = 0
 636              	.LVL47:
 637 0000 F0B5     		push	{r4, r5, r6, r7, lr}
ARM GAS  C:\Users\TERENC~1\AppData\Local\Temp\ccjR28lu.s 			page 32


 638              		.cfi_def_cfa_offset 20
 639              		.cfi_offset 4, -20
 640              		.cfi_offset 5, -16
 641              		.cfi_offset 6, -12
 642              		.cfi_offset 7, -8
 643              		.cfi_offset 14, -4
 644 0002 4746     		mov	r7, r8
 645 0004 80B4     		push	{r7}
 646              		.cfi_def_cfa_offset 24
 647              		.cfi_offset 8, -24
 648 0006 0500     		movs	r5, r0
1127:Generated_Source\PSoC4/CapSense_CSHL.c ****     uint8 widget;
1128:Generated_Source\PSoC4/CapSense_CSHL.c ****     uint8 debounce;
1129:Generated_Source\PSoC4/CapSense_CSHL.c ****     uint8 debounceIndex;
1130:Generated_Source\PSoC4/CapSense_CSHL.c **** 
1131:Generated_Source\PSoC4/CapSense_CSHL.c ****     uint8 fingerThreshold;
1132:Generated_Source\PSoC4/CapSense_CSHL.c ****     uint8 hysteresis;
1133:Generated_Source\PSoC4/CapSense_CSHL.c ****     
1134:Generated_Source\PSoC4/CapSense_CSHL.c **** 
1135:Generated_Source\PSoC4/CapSense_CSHL.c ****     /* Prepare to find debounce counter index */
1136:Generated_Source\PSoC4/CapSense_CSHL.c ****     widget = CapSense_widgetNumber[sensor];
 649              		.loc 1 1136 0
 650 0008 294B     		ldr	r3, .L66
 651 000a 1B5C     		ldrb	r3, [r3, r0]
 652              	.LVL48:
1137:Generated_Source\PSoC4/CapSense_CSHL.c **** 
1138:Generated_Source\PSoC4/CapSense_CSHL.c ****     fingerThreshold = CapSense_fingerThreshold[widget];
 653              		.loc 1 1138 0
 654 000c 294A     		ldr	r2, .L66+4
 655 000e D118     		adds	r1, r2, r3
 656 0010 097A     		ldrb	r1, [r1, #8]
 657 0012 8846     		mov	r8, r1
 658              	.LVL49:
1139:Generated_Source\PSoC4/CapSense_CSHL.c ****     hysteresis = CapSense_hysteresis[widget];
 659              		.loc 1 1139 0
 660 0014 2849     		ldr	r1, .L66+8
 661 0016 CE5C     		ldrb	r6, [r1, r3]
 662              	.LVL50:
1140:Generated_Source\PSoC4/CapSense_CSHL.c ****     debounce = CapSense_debounce[widget];
 663              		.loc 1 1140 0
 664 0018 D75C     		ldrb	r7, [r2, r3]
 665              	.LVL51:
1141:Generated_Source\PSoC4/CapSense_CSHL.c **** 
1142:Generated_Source\PSoC4/CapSense_CSHL.c ****         if (widget < CapSense_TOTAL_CENTROIDS_COUNT)
 666              		.loc 1 1142 0
 667 001a 002B     		cmp	r3, #0
 668 001c 05D1     		bne	.L60
 669              	.LVL52:
1143:Generated_Source\PSoC4/CapSense_CSHL.c ****     {
1144:Generated_Source\PSoC4/CapSense_CSHL.c ****         debounceIndex = CapSense_UNUSED_DEBOUNCE_COUNTER_INDEX;
1145:Generated_Source\PSoC4/CapSense_CSHL.c ****         CapSense_debounceCounter[debounceIndex] = 1u;
 670              		.loc 1 1145 0
 671 001e 0122     		movs	r2, #1
 672 0020 264B     		ldr	r3, .L66+12
 673              	.LVL53:
 674 0022 3C33     		adds	r3, r3, #60
 675 0024 5A71     		strb	r2, [r3, #5]
ARM GAS  C:\Users\TERENC~1\AppData\Local\Temp\ccjR28lu.s 			page 33


1144:Generated_Source\PSoC4/CapSense_CSHL.c ****         CapSense_debounceCounter[debounceIndex] = 1u;
 676              		.loc 1 1144 0
 677 0026 0524     		movs	r4, #5
 678 0028 01E0     		b	.L61
 679              	.LVL54:
 680              	.L60:
1146:Generated_Source\PSoC4/CapSense_CSHL.c ****     }
1147:Generated_Source\PSoC4/CapSense_CSHL.c ****     else
1148:Generated_Source\PSoC4/CapSense_CSHL.c ****     {
1149:Generated_Source\PSoC4/CapSense_CSHL.c ****         debounceIndex = widget - (CapSense_END_OF_TOUCH_PAD_INDEX + 1u);
 681              		.loc 1 1149 0
 682 002a 013B     		subs	r3, r3, #1
 683              	.LVL55:
 684 002c DCB2     		uxtb	r4, r3
 685              	.LVL56:
 686              	.L61:
1150:Generated_Source\PSoC4/CapSense_CSHL.c ****     }
1151:Generated_Source\PSoC4/CapSense_CSHL.c **** 
1152:Generated_Source\PSoC4/CapSense_CSHL.c **** 
1153:Generated_Source\PSoC4/CapSense_CSHL.c ****     /* Was on */
1154:Generated_Source\PSoC4/CapSense_CSHL.c ****     if (0u != CapSense_GetBitValue(CapSense_sensorOnMask, sensor))
 687              		.loc 1 1154 0
 688 002e 2900     		movs	r1, r5
 689 0030 2248     		ldr	r0, .L66+12
 690              	.LVL57:
 691 0032 4430     		adds	r0, r0, #68
 692 0034 FFF7FEFF 		bl	CapSense_GetBitValue
 693              	.LVL58:
 694 0038 0028     		cmp	r0, #0
 695 003a 12D0     		beq	.L62
1155:Generated_Source\PSoC4/CapSense_CSHL.c ****     {
1156:Generated_Source\PSoC4/CapSense_CSHL.c ****         /* Hysteresis minus */
1157:Generated_Source\PSoC4/CapSense_CSHL.c ****         if (CapSense_sensorSignal[sensor] < (fingerThreshold - hysteresis))
 696              		.loc 1 1157 0
 697 003c 1F4B     		ldr	r3, .L66+12
 698 003e 5B19     		adds	r3, r3, r5
 699 0040 2C22     		movs	r2, #44
 700 0042 9A5C     		ldrb	r2, [r3, r2]
 701 0044 4346     		mov	r3, r8
 702 0046 9B1B     		subs	r3, r3, r6
 703 0048 9A42     		cmp	r2, r3
 704 004a 26DA     		bge	.L63
1158:Generated_Source\PSoC4/CapSense_CSHL.c ****         {
1159:Generated_Source\PSoC4/CapSense_CSHL.c ****             CapSense_SetBitValue(CapSense_sensorOnMask, sensor, 0u);
 705              		.loc 1 1159 0
 706 004c 1B4E     		ldr	r6, .L66+12
 707              	.LVL59:
 708 004e 3000     		movs	r0, r6
 709 0050 4430     		adds	r0, r0, #68
 710 0052 0022     		movs	r2, #0
 711 0054 2900     		movs	r1, r5
 712 0056 FFF7FEFF 		bl	CapSense_SetBitValue
 713              	.LVL60:
1160:Generated_Source\PSoC4/CapSense_CSHL.c ****             /* Sensor inactive - reset Debounce counter */
1161:Generated_Source\PSoC4/CapSense_CSHL.c ****             CapSense_debounceCounter[debounceIndex] = debounce;
 714              		.loc 1 1161 0
 715 005a 3419     		adds	r4, r6, r4
ARM GAS  C:\Users\TERENC~1\AppData\Local\Temp\ccjR28lu.s 			page 34


 716              	.LVL61:
 717 005c 3C23     		movs	r3, #60
 718 005e E754     		strb	r7, [r4, r3]
 719 0060 1BE0     		b	.L63
 720              	.LVL62:
 721              	.L62:
1162:Generated_Source\PSoC4/CapSense_CSHL.c ****         }
1163:Generated_Source\PSoC4/CapSense_CSHL.c ****     }
1164:Generated_Source\PSoC4/CapSense_CSHL.c ****     else    /* Was off */
1165:Generated_Source\PSoC4/CapSense_CSHL.c ****     {
1166:Generated_Source\PSoC4/CapSense_CSHL.c ****         /* Hysteresis plus */
1167:Generated_Source\PSoC4/CapSense_CSHL.c ****         if (CapSense_sensorSignal[sensor] >= (fingerThreshold + hysteresis))
 722              		.loc 1 1167 0
 723 0062 164B     		ldr	r3, .L66+12
 724 0064 5B19     		adds	r3, r3, r5
 725 0066 2C22     		movs	r2, #44
 726 0068 9A5C     		ldrb	r2, [r3, r2]
 727 006a 3300     		movs	r3, r6
 728 006c 4344     		add	r3, r3, r8
 729 006e 9A42     		cmp	r2, r3
 730 0070 0FDB     		blt	.L64
1168:Generated_Source\PSoC4/CapSense_CSHL.c ****         {
1169:Generated_Source\PSoC4/CapSense_CSHL.c ****             CapSense_debounceCounter[debounceIndex]--;
 731              		.loc 1 1169 0
 732 0072 3C21     		movs	r1, #60
 733 0074 114B     		ldr	r3, .L66+12
 734 0076 1C19     		adds	r4, r3, r4
 735              	.LVL63:
 736 0078 625C     		ldrb	r2, [r4, r1]
 737 007a 013A     		subs	r2, r2, #1
 738 007c D2B2     		uxtb	r2, r2
 739 007e 6254     		strb	r2, [r4, r1]
1170:Generated_Source\PSoC4/CapSense_CSHL.c ****             /* Sensor active, decrement debounce counter */
1171:Generated_Source\PSoC4/CapSense_CSHL.c ****             if(CapSense_debounceCounter[debounceIndex] == 0u)
 740              		.loc 1 1171 0
 741 0080 002A     		cmp	r2, #0
 742 0082 0AD1     		bne	.L63
1172:Generated_Source\PSoC4/CapSense_CSHL.c ****             {
1173:Generated_Source\PSoC4/CapSense_CSHL.c ****                 CapSense_SetBitValue(CapSense_sensorOnMask, sensor, 1u);
 743              		.loc 1 1173 0
 744 0084 0132     		adds	r2, r2, #1
 745 0086 2900     		movs	r1, r5
 746 0088 1800     		movs	r0, r3
 747 008a 4430     		adds	r0, r0, #68
 748 008c FFF7FEFF 		bl	CapSense_SetBitValue
 749              	.LVL64:
 750 0090 03E0     		b	.L63
 751              	.LVL65:
 752              	.L64:
1174:Generated_Source\PSoC4/CapSense_CSHL.c ****             }
1175:Generated_Source\PSoC4/CapSense_CSHL.c ****         }
1176:Generated_Source\PSoC4/CapSense_CSHL.c ****         else
1177:Generated_Source\PSoC4/CapSense_CSHL.c ****         {
1178:Generated_Source\PSoC4/CapSense_CSHL.c ****             /* Sensor inactive - reset Debounce counter */
1179:Generated_Source\PSoC4/CapSense_CSHL.c ****             CapSense_debounceCounter[debounceIndex] = debounce;
 753              		.loc 1 1179 0
 754 0092 0A4B     		ldr	r3, .L66+12
ARM GAS  C:\Users\TERENC~1\AppData\Local\Temp\ccjR28lu.s 			page 35


 755 0094 1C19     		adds	r4, r3, r4
 756              	.LVL66:
 757 0096 3C23     		movs	r3, #60
 758 0098 E754     		strb	r7, [r4, r3]
 759              	.LVL67:
 760              	.L63:
1180:Generated_Source\PSoC4/CapSense_CSHL.c ****         }
1181:Generated_Source\PSoC4/CapSense_CSHL.c ****     }
1182:Generated_Source\PSoC4/CapSense_CSHL.c **** 
1183:Generated_Source\PSoC4/CapSense_CSHL.c ****     return ((uint32)((0u != CapSense_GetBitValue(CapSense_sensorOnMask, sensor)) ? 1u : 0u));
 761              		.loc 1 1183 0
 762 009a 2900     		movs	r1, r5
 763 009c 0748     		ldr	r0, .L66+12
 764 009e 4430     		adds	r0, r0, #68
 765 00a0 FFF7FEFF 		bl	CapSense_GetBitValue
 766              	.LVL68:
 767 00a4 0028     		cmp	r0, #0
 768 00a6 00D0     		beq	.L65
 769 00a8 0120     		movs	r0, #1
 770              	.L65:
1184:Generated_Source\PSoC4/CapSense_CSHL.c **** }
 771              		.loc 1 1184 0 discriminator 4
 772              		@ sp needed
 773              	.LVL69:
 774              	.LVL70:
 775              	.LVL71:
 776 00aa 04BC     		pop	{r2}
 777 00ac 9046     		mov	r8, r2
 778 00ae F0BD     		pop	{r4, r5, r6, r7, pc}
 779              	.L67:
 780              		.align	2
 781              	.L66:
 782 00b0 00000000 		.word	CapSense_widgetNumber
 783 00b4 00000000 		.word	.LANCHOR1
 784 00b8 00000000 		.word	CapSense_hysteresis
 785 00bc 00000000 		.word	.LANCHOR0
 786              		.cfi_endproc
 787              	.LFE55:
 788              		.size	CapSense_CheckIsSensorActive, .-CapSense_CheckIsSensorActive
 789              		.section	.text.CapSense_CheckIsWidgetActive,"ax",%progbits
 790              		.align	2
 791              		.global	CapSense_CheckIsWidgetActive
 792              		.code	16
 793              		.thumb_func
 794              		.type	CapSense_CheckIsWidgetActive, %function
 795              	CapSense_CheckIsWidgetActive:
 796              	.LFB56:
1185:Generated_Source\PSoC4/CapSense_CSHL.c **** 
1186:Generated_Source\PSoC4/CapSense_CSHL.c **** 
1187:Generated_Source\PSoC4/CapSense_CSHL.c **** /*******************************************************************************
1188:Generated_Source\PSoC4/CapSense_CSHL.c **** * Function Name: CapSense_CheckIsWidgetActive
1189:Generated_Source\PSoC4/CapSense_CSHL.c **** ********************************************************************************
1190:Generated_Source\PSoC4/CapSense_CSHL.c **** *
1191:Generated_Source\PSoC4/CapSense_CSHL.c **** * Summary:
1192:Generated_Source\PSoC4/CapSense_CSHL.c **** *  Compares the CapSense_sensorSignal[] array element to the finger threshold of
1193:Generated_Source\PSoC4/CapSense_CSHL.c **** * the widget it belongs to. The hysteresis and debounce are taken into account.
1194:Generated_Source\PSoC4/CapSense_CSHL.c **** * The hysteresis is added or subtracted from the finger threshold based on whether
ARM GAS  C:\Users\TERENC~1\AppData\Local\Temp\ccjR28lu.s 			page 36


1195:Generated_Source\PSoC4/CapSense_CSHL.c **** *  the sensor is currently active. If the sensor is active, the threshold is
1196:Generated_Source\PSoC4/CapSense_CSHL.c **** *  lowered by the hysteresis amount. If the sensor is inactive, the threshold
1197:Generated_Source\PSoC4/CapSense_CSHL.c **** *  is raised by the hysteresis amount.
1198:Generated_Source\PSoC4/CapSense_CSHL.c **** * The debounce counter added to the sensor active transition.
1199:Generated_Source\PSoC4/CapSense_CSHL.c **** * This function updates CapSense_sensorOnMask[] array element
1200:Generated_Source\PSoC4/CapSense_CSHL.c **** *
1201:Generated_Source\PSoC4/CapSense_CSHL.c **** * Parameters:
1202:Generated_Source\PSoC4/CapSense_CSHL.c **** *  widget:  widget number.
1203:Generated_Source\PSoC4/CapSense_CSHL.c **** *
1204:Generated_Source\PSoC4/CapSense_CSHL.c **** * Return:
1205:Generated_Source\PSoC4/CapSense_CSHL.c **** *  Returns widget sensor state 1 if one or more sensors within widget is/are
1206:Generated_Source\PSoC4/CapSense_CSHL.c **** *  active, 0 if all sensors within widget are inactive.
1207:Generated_Source\PSoC4/CapSense_CSHL.c **** *
1208:Generated_Source\PSoC4/CapSense_CSHL.c **** * Global Variables:
1209:Generated_Source\PSoC4/CapSense_CSHL.c **** *  rawDataIndex[]: Contains the  1st sensor position in the widget
1210:Generated_Source\PSoC4/CapSense_CSHL.c **** *
1211:Generated_Source\PSoC4/CapSense_CSHL.c **** * Side Effects:
1212:Generated_Source\PSoC4/CapSense_CSHL.c **** *  None
1213:Generated_Source\PSoC4/CapSense_CSHL.c **** *
1214:Generated_Source\PSoC4/CapSense_CSHL.c **** *******************************************************************************/
1215:Generated_Source\PSoC4/CapSense_CSHL.c **** uint32 CapSense_CheckIsWidgetActive(uint32 widget)
1216:Generated_Source\PSoC4/CapSense_CSHL.c **** {
 797              		.loc 1 1216 0
 798              		.cfi_startproc
 799              		@ args = 0, pretend = 0, frame = 0
 800              		@ frame_needed = 0, uses_anonymous_args = 0
 801              	.LVL72:
 802 0000 70B5     		push	{r4, r5, r6, lr}
 803              		.cfi_def_cfa_offset 16
 804              		.cfi_offset 4, -16
 805              		.cfi_offset 5, -12
 806              		.cfi_offset 6, -8
 807              		.cfi_offset 14, -4
1217:Generated_Source\PSoC4/CapSense_CSHL.c ****     uint32 rawIndex = (uint32)CapSense_rawDataIndex[widget];
 808              		.loc 1 1217 0
 809 0002 084B     		ldr	r3, .L72
 810 0004 1C5C     		ldrb	r4, [r3, r0]
 811              	.LVL73:
1218:Generated_Source\PSoC4/CapSense_CSHL.c ****     uint32 numOfSensors = (uint32)CapSense_numberOfSensors[widget] + rawIndex;
 812              		.loc 1 1218 0
 813 0006 1818     		adds	r0, r3, r0
 814              	.LVL74:
 815 0008 057A     		ldrb	r5, [r0, #8]
 816 000a 6519     		adds	r5, r4, r5
 817              	.LVL75:
1219:Generated_Source\PSoC4/CapSense_CSHL.c ****     uint32 state = 0u;
 818              		.loc 1 1219 0
 819 000c 0026     		movs	r6, #0
 820              	.LVL76:
 821              	.L70:
1220:Generated_Source\PSoC4/CapSense_CSHL.c **** 
1221:Generated_Source\PSoC4/CapSense_CSHL.c ****     /* Check all sensors of widget */
1222:Generated_Source\PSoC4/CapSense_CSHL.c ****     do
1223:Generated_Source\PSoC4/CapSense_CSHL.c ****     {
1224:Generated_Source\PSoC4/CapSense_CSHL.c ****         if(CapSense_CheckIsSensorActive((uint32)rawIndex) != 0u)
 822              		.loc 1 1224 0
 823 000e 2000     		movs	r0, r4
ARM GAS  C:\Users\TERENC~1\AppData\Local\Temp\ccjR28lu.s 			page 37


 824 0010 FFF7FEFF 		bl	CapSense_CheckIsSensorActive
 825              	.LVL77:
 826 0014 0028     		cmp	r0, #0
 827 0016 00D0     		beq	.L69
1225:Generated_Source\PSoC4/CapSense_CSHL.c ****         {
1226:Generated_Source\PSoC4/CapSense_CSHL.c ****             state = CapSense_SENSOR_IS_ACTIVE;
 828              		.loc 1 1226 0
 829 0018 0126     		movs	r6, #1
 830              	.LVL78:
 831              	.L69:
1227:Generated_Source\PSoC4/CapSense_CSHL.c ****         }
1228:Generated_Source\PSoC4/CapSense_CSHL.c ****         rawIndex++;
 832              		.loc 1 1228 0
 833 001a 0134     		adds	r4, r4, #1
 834              	.LVL79:
1229:Generated_Source\PSoC4/CapSense_CSHL.c ****     }
1230:Generated_Source\PSoC4/CapSense_CSHL.c ****     while(rawIndex < numOfSensors);
 835              		.loc 1 1230 0
 836 001c A542     		cmp	r5, r4
 837 001e F6D8     		bhi	.L70
1231:Generated_Source\PSoC4/CapSense_CSHL.c **** 
1232:Generated_Source\PSoC4/CapSense_CSHL.c **** 
1233:Generated_Source\PSoC4/CapSense_CSHL.c **** 
1234:Generated_Source\PSoC4/CapSense_CSHL.c ****     return state;
1235:Generated_Source\PSoC4/CapSense_CSHL.c **** }
 838              		.loc 1 1235 0
 839 0020 3000     		movs	r0, r6
 840              		@ sp needed
 841              	.LVL80:
 842              	.LVL81:
 843              	.LVL82:
 844 0022 70BD     		pop	{r4, r5, r6, pc}
 845              	.L73:
 846              		.align	2
 847              	.L72:
 848 0024 00000000 		.word	.LANCHOR2
 849              		.cfi_endproc
 850              	.LFE56:
 851              		.size	CapSense_CheckIsWidgetActive, .-CapSense_CheckIsWidgetActive
 852              		.section	.text.CapSense_CheckIsAnyWidgetActive,"ax",%progbits
 853              		.align	2
 854              		.global	CapSense_CheckIsAnyWidgetActive
 855              		.code	16
 856              		.thumb_func
 857              		.type	CapSense_CheckIsAnyWidgetActive, %function
 858              	CapSense_CheckIsAnyWidgetActive:
 859              	.LFB57:
1236:Generated_Source\PSoC4/CapSense_CSHL.c **** 
1237:Generated_Source\PSoC4/CapSense_CSHL.c **** 
1238:Generated_Source\PSoC4/CapSense_CSHL.c **** /*******************************************************************************
1239:Generated_Source\PSoC4/CapSense_CSHL.c **** * Function Name: CapSense_CheckIsAnyWidgetActive
1240:Generated_Source\PSoC4/CapSense_CSHL.c **** ********************************************************************************
1241:Generated_Source\PSoC4/CapSense_CSHL.c **** *
1242:Generated_Source\PSoC4/CapSense_CSHL.c **** * Summary:
1243:Generated_Source\PSoC4/CapSense_CSHL.c **** *  Compares all the sensors of the CapSense_Signal[] array to their finger
1244:Generated_Source\PSoC4/CapSense_CSHL.c **** *  threshold. Calls CapSense_CheckIsWidgetActive() for each widget so
1245:Generated_Source\PSoC4/CapSense_CSHL.c **** *  the CapSense_sensorOnMask[] array is up to date after calling this
ARM GAS  C:\Users\TERENC~1\AppData\Local\Temp\ccjR28lu.s 			page 38


1246:Generated_Source\PSoC4/CapSense_CSHL.c **** *  function.
1247:Generated_Source\PSoC4/CapSense_CSHL.c **** *
1248:Generated_Source\PSoC4/CapSense_CSHL.c **** * Parameters:
1249:Generated_Source\PSoC4/CapSense_CSHL.c **** *  widget:  widget number.
1250:Generated_Source\PSoC4/CapSense_CSHL.c **** *
1251:Generated_Source\PSoC4/CapSense_CSHL.c **** * Return:
1252:Generated_Source\PSoC4/CapSense_CSHL.c **** *  Returns 1 if any widget is active, 0 none of widgets are active.
1253:Generated_Source\PSoC4/CapSense_CSHL.c **** *
1254:Generated_Source\PSoC4/CapSense_CSHL.c **** * Global Variables:
1255:Generated_Source\PSoC4/CapSense_CSHL.c **** *  None
1256:Generated_Source\PSoC4/CapSense_CSHL.c **** *
1257:Generated_Source\PSoC4/CapSense_CSHL.c **** * Side Effects:
1258:Generated_Source\PSoC4/CapSense_CSHL.c **** *  None
1259:Generated_Source\PSoC4/CapSense_CSHL.c **** *
1260:Generated_Source\PSoC4/CapSense_CSHL.c **** *******************************************************************************/
1261:Generated_Source\PSoC4/CapSense_CSHL.c **** uint32 CapSense_CheckIsAnyWidgetActive(void)
1262:Generated_Source\PSoC4/CapSense_CSHL.c **** {
 860              		.loc 1 1262 0
 861              		.cfi_startproc
 862              		@ args = 0, pretend = 0, frame = 0
 863              		@ frame_needed = 0, uses_anonymous_args = 0
 864 0000 70B5     		push	{r4, r5, r6, lr}
 865              		.cfi_def_cfa_offset 16
 866              		.cfi_offset 4, -16
 867              		.cfi_offset 5, -12
 868              		.cfi_offset 6, -8
 869              		.cfi_offset 14, -4
 870              	.LVL83:
1263:Generated_Source\PSoC4/CapSense_CSHL.c **** 
1264:Generated_Source\PSoC4/CapSense_CSHL.c ****         uint32 i;
1265:Generated_Source\PSoC4/CapSense_CSHL.c ****     uint32 state = 0u;
 871              		.loc 1 1265 0
 872 0002 0025     		movs	r5, #0
1266:Generated_Source\PSoC4/CapSense_CSHL.c ****     
1267:Generated_Source\PSoC4/CapSense_CSHL.c ****     for(i = 0u; i < CapSense_TOTAL_WIDGET_COUNT; i++)
 873              		.loc 1 1267 0
 874 0004 0024     		movs	r4, #0
 875 0006 06E0     		b	.L75
 876              	.LVL84:
 877              	.L77:
1268:Generated_Source\PSoC4/CapSense_CSHL.c ****     {
1269:Generated_Source\PSoC4/CapSense_CSHL.c ****         if (CapSense_CheckIsWidgetActive(i) != 0u)
 878              		.loc 1 1269 0
 879 0008 2000     		movs	r0, r4
 880 000a FFF7FEFF 		bl	CapSense_CheckIsWidgetActive
 881              	.LVL85:
 882 000e 0028     		cmp	r0, #0
 883 0010 00D0     		beq	.L76
1270:Generated_Source\PSoC4/CapSense_CSHL.c ****         {
1271:Generated_Source\PSoC4/CapSense_CSHL.c ****             state = CapSense_WIDGET_IS_ACTIVE;
 884              		.loc 1 1271 0
 885 0012 0125     		movs	r5, #1
 886              	.LVL86:
 887              	.L76:
1267:Generated_Source\PSoC4/CapSense_CSHL.c ****     {
 888              		.loc 1 1267 0 discriminator 2
 889 0014 0134     		adds	r4, r4, #1
ARM GAS  C:\Users\TERENC~1\AppData\Local\Temp\ccjR28lu.s 			page 39


 890              	.LVL87:
 891              	.L75:
1267:Generated_Source\PSoC4/CapSense_CSHL.c ****     {
 892              		.loc 1 1267 0 is_stmt 0 discriminator 1
 893 0016 052C     		cmp	r4, #5
 894 0018 F6D9     		bls	.L77
1272:Generated_Source\PSoC4/CapSense_CSHL.c ****         }
1273:Generated_Source\PSoC4/CapSense_CSHL.c ****     }
1274:Generated_Source\PSoC4/CapSense_CSHL.c ****     
1275:Generated_Source\PSoC4/CapSense_CSHL.c **** 
1276:Generated_Source\PSoC4/CapSense_CSHL.c **** 
1277:Generated_Source\PSoC4/CapSense_CSHL.c ****     return state;
1278:Generated_Source\PSoC4/CapSense_CSHL.c **** }
 895              		.loc 1 1278 0 is_stmt 1
 896 001a 2800     		movs	r0, r5
 897              		@ sp needed
 898              	.LVL88:
 899              	.LVL89:
 900 001c 70BD     		pop	{r4, r5, r6, pc}
 901              		.cfi_endproc
 902              	.LFE57:
 903              		.size	CapSense_CheckIsAnyWidgetActive, .-CapSense_CheckIsAnyWidgetActive
 904 001e C046     		.section	.text.CapSense_EnableWidget,"ax",%progbits
 905              		.align	2
 906              		.global	CapSense_EnableWidget
 907              		.code	16
 908              		.thumb_func
 909              		.type	CapSense_EnableWidget, %function
 910              	CapSense_EnableWidget:
 911              	.LFB58:
1279:Generated_Source\PSoC4/CapSense_CSHL.c **** 
1280:Generated_Source\PSoC4/CapSense_CSHL.c **** 
1281:Generated_Source\PSoC4/CapSense_CSHL.c **** /*******************************************************************************
1282:Generated_Source\PSoC4/CapSense_CSHL.c **** * Function Name: CapSense_EnableWidget
1283:Generated_Source\PSoC4/CapSense_CSHL.c **** ********************************************************************************
1284:Generated_Source\PSoC4/CapSense_CSHL.c **** *
1285:Generated_Source\PSoC4/CapSense_CSHL.c **** * Summary:
1286:Generated_Source\PSoC4/CapSense_CSHL.c **** *  Enables all the widget elements (sensors) to the scanning process.
1287:Generated_Source\PSoC4/CapSense_CSHL.c **** *
1288:Generated_Source\PSoC4/CapSense_CSHL.c **** * Parameters:
1289:Generated_Source\PSoC4/CapSense_CSHL.c **** *  widget:  widget number.
1290:Generated_Source\PSoC4/CapSense_CSHL.c **** *
1291:Generated_Source\PSoC4/CapSense_CSHL.c **** * Return:
1292:Generated_Source\PSoC4/CapSense_CSHL.c **** *  None
1293:Generated_Source\PSoC4/CapSense_CSHL.c **** *
1294:Generated_Source\PSoC4/CapSense_CSHL.c **** * Global Variables:
1295:Generated_Source\PSoC4/CapSense_CSHL.c **** *  CapSense_sensorEnableMask[] - used to store the sensor scanning
1296:Generated_Source\PSoC4/CapSense_CSHL.c **** *  state.
1297:Generated_Source\PSoC4/CapSense_CSHL.c **** *  CapSense_sensorEnableMask[0] contains the masked bits for sensors
1298:Generated_Source\PSoC4/CapSense_CSHL.c **** *  0 through 7 (sensor 0 is bit 0, sensor 1 is bit 1).
1299:Generated_Source\PSoC4/CapSense_CSHL.c **** *  CapSense_sensorEnableMask[1] contains the masked bits for
1300:Generated_Source\PSoC4/CapSense_CSHL.c **** *  sensors 8 through 15 (if needed), and so on.
1301:Generated_Source\PSoC4/CapSense_CSHL.c **** *  0 - sensor doesn't scan by CapSense_ScanEnabledWidgets().
1302:Generated_Source\PSoC4/CapSense_CSHL.c **** *  1 - sensor scans by CapSense_ScanEnabledWidgets().
1303:Generated_Source\PSoC4/CapSense_CSHL.c **** *
1304:Generated_Source\PSoC4/CapSense_CSHL.c **** * Side Effects:
1305:Generated_Source\PSoC4/CapSense_CSHL.c **** *  None
ARM GAS  C:\Users\TERENC~1\AppData\Local\Temp\ccjR28lu.s 			page 40


1306:Generated_Source\PSoC4/CapSense_CSHL.c **** *
1307:Generated_Source\PSoC4/CapSense_CSHL.c **** *******************************************************************************/
1308:Generated_Source\PSoC4/CapSense_CSHL.c **** void CapSense_EnableWidget(uint32 widget)
1309:Generated_Source\PSoC4/CapSense_CSHL.c **** {
 912              		.loc 1 1309 0
 913              		.cfi_startproc
 914              		@ args = 0, pretend = 0, frame = 0
 915              		@ frame_needed = 0, uses_anonymous_args = 0
 916              	.LVL90:
 917 0000 70B5     		push	{r4, r5, r6, lr}
 918              		.cfi_def_cfa_offset 16
 919              		.cfi_offset 4, -16
 920              		.cfi_offset 5, -12
 921              		.cfi_offset 6, -8
 922              		.cfi_offset 14, -4
1310:Generated_Source\PSoC4/CapSense_CSHL.c **** 
1311:Generated_Source\PSoC4/CapSense_CSHL.c ****     uint8 rawIndex = CapSense_rawDataIndex[widget];
 923              		.loc 1 1311 0
 924 0002 084B     		ldr	r3, .L81
 925 0004 1C5C     		ldrb	r4, [r3, r0]
 926              	.LVL91:
1312:Generated_Source\PSoC4/CapSense_CSHL.c ****     uint8 numOfSensors = CapSense_numberOfSensors[widget] + rawIndex;
 927              		.loc 1 1312 0
 928 0006 1818     		adds	r0, r3, r0
 929              	.LVL92:
 930 0008 057A     		ldrb	r5, [r0, #8]
 931 000a 6519     		adds	r5, r4, r5
 932 000c EDB2     		uxtb	r5, r5
 933              	.LVL93:
 934              	.L80:
1313:Generated_Source\PSoC4/CapSense_CSHL.c **** 
1314:Generated_Source\PSoC4/CapSense_CSHL.c ****     /* Enable all sensors of widget */
1315:Generated_Source\PSoC4/CapSense_CSHL.c ****     do
1316:Generated_Source\PSoC4/CapSense_CSHL.c ****     {
1317:Generated_Source\PSoC4/CapSense_CSHL.c ****         CapSense_SetBitValue(CapSense_sensorEnableMask, (uint32)rawIndex, 1u);
 935              		.loc 1 1317 0 discriminator 1
 936 000e 0122     		movs	r2, #1
 937 0010 2100     		movs	r1, r4
 938 0012 0548     		ldr	r0, .L81+4
 939 0014 FFF7FEFF 		bl	CapSense_SetBitValue
 940              	.LVL94:
1318:Generated_Source\PSoC4/CapSense_CSHL.c ****         rawIndex++;
 941              		.loc 1 1318 0 discriminator 1
 942 0018 0134     		adds	r4, r4, #1
 943              	.LVL95:
 944 001a E4B2     		uxtb	r4, r4
 945              	.LVL96:
1319:Generated_Source\PSoC4/CapSense_CSHL.c ****     }
1320:Generated_Source\PSoC4/CapSense_CSHL.c ****     while(rawIndex < numOfSensors);
 946              		.loc 1 1320 0 discriminator 1
 947 001c A542     		cmp	r5, r4
 948 001e F6D8     		bhi	.L80
1321:Generated_Source\PSoC4/CapSense_CSHL.c **** }
 949              		.loc 1 1321 0
 950              		@ sp needed
 951              	.LVL97:
 952              	.LVL98:
ARM GAS  C:\Users\TERENC~1\AppData\Local\Temp\ccjR28lu.s 			page 41


 953 0020 70BD     		pop	{r4, r5, r6, pc}
 954              	.L82:
 955 0022 C046     		.align	2
 956              	.L81:
 957 0024 00000000 		.word	.LANCHOR2
 958 0028 00000000 		.word	CapSense_sensorEnableMask
 959              		.cfi_endproc
 960              	.LFE58:
 961              		.size	CapSense_EnableWidget, .-CapSense_EnableWidget
 962              		.section	.text.CapSense_DisableWidget,"ax",%progbits
 963              		.align	2
 964              		.global	CapSense_DisableWidget
 965              		.code	16
 966              		.thumb_func
 967              		.type	CapSense_DisableWidget, %function
 968              	CapSense_DisableWidget:
 969              	.LFB59:
1322:Generated_Source\PSoC4/CapSense_CSHL.c **** 
1323:Generated_Source\PSoC4/CapSense_CSHL.c **** 
1324:Generated_Source\PSoC4/CapSense_CSHL.c **** /*******************************************************************************
1325:Generated_Source\PSoC4/CapSense_CSHL.c **** * Function Name: CapSense_DisableWidget
1326:Generated_Source\PSoC4/CapSense_CSHL.c **** ********************************************************************************
1327:Generated_Source\PSoC4/CapSense_CSHL.c **** *
1328:Generated_Source\PSoC4/CapSense_CSHL.c **** * Summary:
1329:Generated_Source\PSoC4/CapSense_CSHL.c **** *  Disables all the widget elements (sensors) from the scanning process.
1330:Generated_Source\PSoC4/CapSense_CSHL.c **** *
1331:Generated_Source\PSoC4/CapSense_CSHL.c **** * Parameters:
1332:Generated_Source\PSoC4/CapSense_CSHL.c **** *  widget:  widget number.
1333:Generated_Source\PSoC4/CapSense_CSHL.c **** *
1334:Generated_Source\PSoC4/CapSense_CSHL.c **** * Return:
1335:Generated_Source\PSoC4/CapSense_CSHL.c **** *  None
1336:Generated_Source\PSoC4/CapSense_CSHL.c **** *
1337:Generated_Source\PSoC4/CapSense_CSHL.c **** * Global Variables:
1338:Generated_Source\PSoC4/CapSense_CSHL.c **** *  CapSense_sensorEnableMask[] - used to store the sensor scanning
1339:Generated_Source\PSoC4/CapSense_CSHL.c **** *  state.
1340:Generated_Source\PSoC4/CapSense_CSHL.c **** *  CapSense_sensorEnableMask[0] contains the masked bits for sensors
1341:Generated_Source\PSoC4/CapSense_CSHL.c **** *  0 through 7 (sensor 0 is bit 0, sensor 1 is bit 1).
1342:Generated_Source\PSoC4/CapSense_CSHL.c **** *  CapSense_sensorEnableMask[1] contains the masked bits for
1343:Generated_Source\PSoC4/CapSense_CSHL.c **** *  sensors 8 through 15 (if needed), and so on.
1344:Generated_Source\PSoC4/CapSense_CSHL.c **** *  0 - sensor isn't scanned by CapSense_ScanEnabledWidgets().
1345:Generated_Source\PSoC4/CapSense_CSHL.c **** *  1 - sensor is scanned by CapSense_ScanEnabledWidgets().
1346:Generated_Source\PSoC4/CapSense_CSHL.c **** *
1347:Generated_Source\PSoC4/CapSense_CSHL.c **** * Side Effects:
1348:Generated_Source\PSoC4/CapSense_CSHL.c **** *  None
1349:Generated_Source\PSoC4/CapSense_CSHL.c **** *
1350:Generated_Source\PSoC4/CapSense_CSHL.c **** *******************************************************************************/
1351:Generated_Source\PSoC4/CapSense_CSHL.c **** void CapSense_DisableWidget(uint32 widget)
1352:Generated_Source\PSoC4/CapSense_CSHL.c **** {
 970              		.loc 1 1352 0
 971              		.cfi_startproc
 972              		@ args = 0, pretend = 0, frame = 0
 973              		@ frame_needed = 0, uses_anonymous_args = 0
 974              	.LVL99:
 975 0000 70B5     		push	{r4, r5, r6, lr}
 976              		.cfi_def_cfa_offset 16
 977              		.cfi_offset 4, -16
 978              		.cfi_offset 5, -12
ARM GAS  C:\Users\TERENC~1\AppData\Local\Temp\ccjR28lu.s 			page 42


 979              		.cfi_offset 6, -8
 980              		.cfi_offset 14, -4
1353:Generated_Source\PSoC4/CapSense_CSHL.c ****     uint8 rawIndex = CapSense_rawDataIndex[widget];
 981              		.loc 1 1353 0
 982 0002 084B     		ldr	r3, .L85
 983 0004 1C5C     		ldrb	r4, [r3, r0]
 984              	.LVL100:
1354:Generated_Source\PSoC4/CapSense_CSHL.c ****     uint8 numOfSensors = CapSense_numberOfSensors[widget] + rawIndex;
 985              		.loc 1 1354 0
 986 0006 1818     		adds	r0, r3, r0
 987              	.LVL101:
 988 0008 057A     		ldrb	r5, [r0, #8]
 989 000a 6519     		adds	r5, r4, r5
 990 000c EDB2     		uxtb	r5, r5
 991              	.LVL102:
 992              	.L84:
1355:Generated_Source\PSoC4/CapSense_CSHL.c **** 
1356:Generated_Source\PSoC4/CapSense_CSHL.c ****     /* Disable all sensors of widget */
1357:Generated_Source\PSoC4/CapSense_CSHL.c ****     do
1358:Generated_Source\PSoC4/CapSense_CSHL.c ****     {
1359:Generated_Source\PSoC4/CapSense_CSHL.c **** 
1360:Generated_Source\PSoC4/CapSense_CSHL.c ****         CapSense_SetBitValue(CapSense_sensorEnableMask, (uint32)rawIndex, 0u);
 993              		.loc 1 1360 0 discriminator 1
 994 000e 0022     		movs	r2, #0
 995 0010 2100     		movs	r1, r4
 996 0012 0548     		ldr	r0, .L85+4
 997 0014 FFF7FEFF 		bl	CapSense_SetBitValue
 998              	.LVL103:
1361:Generated_Source\PSoC4/CapSense_CSHL.c ****         rawIndex++;
 999              		.loc 1 1361 0 discriminator 1
 1000 0018 0134     		adds	r4, r4, #1
 1001              	.LVL104:
 1002 001a E4B2     		uxtb	r4, r4
 1003              	.LVL105:
1362:Generated_Source\PSoC4/CapSense_CSHL.c ****     }
1363:Generated_Source\PSoC4/CapSense_CSHL.c ****     while(rawIndex < numOfSensors);
 1004              		.loc 1 1363 0 discriminator 1
 1005 001c A542     		cmp	r5, r4
 1006 001e F6D8     		bhi	.L84
1364:Generated_Source\PSoC4/CapSense_CSHL.c **** }
 1007              		.loc 1 1364 0
 1008              		@ sp needed
 1009              	.LVL106:
 1010              	.LVL107:
 1011 0020 70BD     		pop	{r4, r5, r6, pc}
 1012              	.L86:
 1013 0022 C046     		.align	2
 1014              	.L85:
 1015 0024 00000000 		.word	.LANCHOR2
 1016 0028 00000000 		.word	CapSense_sensorEnableMask
 1017              		.cfi_endproc
 1018              	.LFE59:
 1019              		.size	CapSense_DisableWidget, .-CapSense_DisableWidget
 1020              		.section	.text.CapSense_FindMaximum,"ax",%progbits
 1021              		.align	2
 1022              		.global	CapSense_FindMaximum
 1023              		.code	16
ARM GAS  C:\Users\TERENC~1\AppData\Local\Temp\ccjR28lu.s 			page 43


 1024              		.thumb_func
 1025              		.type	CapSense_FindMaximum, %function
 1026              	CapSense_FindMaximum:
 1027              	.LFB60:
1365:Generated_Source\PSoC4/CapSense_CSHL.c **** 
1366:Generated_Source\PSoC4/CapSense_CSHL.c **** 
1367:Generated_Source\PSoC4/CapSense_CSHL.c **** #if(CapSense_TOTAL_CENTROIDS_BASIC_COUNT)
1368:Generated_Source\PSoC4/CapSense_CSHL.c ****     /*******************************************************************************
1369:Generated_Source\PSoC4/CapSense_CSHL.c ****     * Function Name: CapSense_FindMaximum
1370:Generated_Source\PSoC4/CapSense_CSHL.c ****     ********************************************************************************
1371:Generated_Source\PSoC4/CapSense_CSHL.c ****     *
1372:Generated_Source\PSoC4/CapSense_CSHL.c ****     * Summary:
1373:Generated_Source\PSoC4/CapSense_CSHL.c ****     *  Finds the index of the maximum element within a defined centroid. Checks
1374:Generated_Source\PSoC4/CapSense_CSHL.c ****     *  CapSense_sensorSignal[] within a defined centroid and
1375:Generated_Source\PSoC4/CapSense_CSHL.c ****     *  returns the index of the maximum element. The values below the finger threshold are
1376:Generated_Source\PSoC4/CapSense_CSHL.c ****     *  ignored.
1377:Generated_Source\PSoC4/CapSense_CSHL.c ****     *  The centroid is defined by offset of the first element and a number of elements - count.
1378:Generated_Source\PSoC4/CapSense_CSHL.c ****     *  The diplexed centroid requires at least two consecutive elements above
1379:Generated_Source\PSoC4/CapSense_CSHL.c ****     *  FingerThreshold to find the index of the maximum element.
1380:Generated_Source\PSoC4/CapSense_CSHL.c ****     *
1381:Generated_Source\PSoC4/CapSense_CSHL.c ****     * Parameters:
1382:Generated_Source\PSoC4/CapSense_CSHL.c ****     *  offset:  Start index of centroid in CapSense_sensorSignal[] array.
1383:Generated_Source\PSoC4/CapSense_CSHL.c ****     *  count:   number of elements within centroid.
1384:Generated_Source\PSoC4/CapSense_CSHL.c ****     *  fingerThreshold:  Finger threshold.
1385:Generated_Source\PSoC4/CapSense_CSHL.c ****     *  diplex:   pointer to diplex table.
1386:Generated_Source\PSoC4/CapSense_CSHL.c ****     *
1387:Generated_Source\PSoC4/CapSense_CSHL.c ****     * Return:
1388:Generated_Source\PSoC4/CapSense_CSHL.c ****     *  Returns the index of the maximum element within a defined centroid.
1389:Generated_Source\PSoC4/CapSense_CSHL.c ****     *  If the index of the maximum element isn't found it returns 0xFF.
1390:Generated_Source\PSoC4/CapSense_CSHL.c ****     *
1391:Generated_Source\PSoC4/CapSense_CSHL.c ****     * Global Variables:
1392:Generated_Source\PSoC4/CapSense_CSHL.c ****     *  CapSense_startOfSlider[] - contains the index of the first slider element
1393:Generated_Source\PSoC4/CapSense_CSHL.c ****     *
1394:Generated_Source\PSoC4/CapSense_CSHL.c ****     * Side Effects:
1395:Generated_Source\PSoC4/CapSense_CSHL.c ****     *  None
1396:Generated_Source\PSoC4/CapSense_CSHL.c ****     *
1397:Generated_Source\PSoC4/CapSense_CSHL.c ****     *******************************************************************************/
1398:Generated_Source\PSoC4/CapSense_CSHL.c ****     #if (CapSense_IS_DIPLEX_SLIDER)
1399:Generated_Source\PSoC4/CapSense_CSHL.c ****         uint8 CapSense_FindMaximum(uint8 offset, uint8 count, uint8 fingerThreshold, const uint8 *d
1400:Generated_Source\PSoC4/CapSense_CSHL.c ****     #else
1401:Generated_Source\PSoC4/CapSense_CSHL.c ****         uint8 CapSense_FindMaximum(uint8 offset, uint8 count, uint8 fingerThreshold)
1402:Generated_Source\PSoC4/CapSense_CSHL.c ****     #endif /* (CapSense_IS_DIPLEX_SLIDER) */
1403:Generated_Source\PSoC4/CapSense_CSHL.c ****     {
 1028              		.loc 1 1403 0
 1029              		.cfi_startproc
 1030              		@ args = 0, pretend = 0, frame = 0
 1031              		@ frame_needed = 0, uses_anonymous_args = 0
 1032              	.LVL108:
 1033 0000 70B5     		push	{r4, r5, r6, lr}
 1034              		.cfi_def_cfa_offset 16
 1035              		.cfi_offset 4, -16
 1036              		.cfi_offset 5, -12
 1037              		.cfi_offset 6, -8
 1038              		.cfi_offset 14, -4
 1039              	.LVL109:
1404:Generated_Source\PSoC4/CapSense_CSHL.c ****         uint8 i;
1405:Generated_Source\PSoC4/CapSense_CSHL.c ****         #if (CapSense_IS_DIPLEX_SLIDER)
ARM GAS  C:\Users\TERENC~1\AppData\Local\Temp\ccjR28lu.s 			page 44


1406:Generated_Source\PSoC4/CapSense_CSHL.c ****             uint8 curPos = 0u;
1407:Generated_Source\PSoC4/CapSense_CSHL.c ****             /* No centroid at Start */
1408:Generated_Source\PSoC4/CapSense_CSHL.c ****             uint8 curCntrdSize = 0u;
1409:Generated_Source\PSoC4/CapSense_CSHL.c ****             uint8 curCtrdStartPos = CapSense_MAXIMUM_CENTROID;
1410:Generated_Source\PSoC4/CapSense_CSHL.c ****             /* Biggest centroid is zero */
1411:Generated_Source\PSoC4/CapSense_CSHL.c ****             uint8 biggestCtrdSize = 0u;
1412:Generated_Source\PSoC4/CapSense_CSHL.c ****             uint8 biggestCtrdStartPos = 0u;
1413:Generated_Source\PSoC4/CapSense_CSHL.c ****         #endif /* (CapSense_IS_DIPLEX_SLIDER) */
1414:Generated_Source\PSoC4/CapSense_CSHL.c ****         uint8 maximum = CapSense_MAXIMUM_CENTROID;
1415:Generated_Source\PSoC4/CapSense_CSHL.c **** 
1416:Generated_Source\PSoC4/CapSense_CSHL.c ****         uint8 temp = 0u;
1417:Generated_Source\PSoC4/CapSense_CSHL.c ****         uint8 *startOfSlider = &CapSense_sensorSignal[offset];
 1040              		.loc 1 1417 0
 1041 0002 094D     		ldr	r5, .L92
 1042 0004 2C35     		adds	r5, r5, #44
 1043 0006 2D18     		adds	r5, r5, r0
 1044              	.LVL110:
1416:Generated_Source\PSoC4/CapSense_CSHL.c ****         uint8 *startOfSlider = &CapSense_sensorSignal[offset];
 1045              		.loc 1 1416 0
 1046 0008 0026     		movs	r6, #0
1414:Generated_Source\PSoC4/CapSense_CSHL.c **** 
 1047              		.loc 1 1414 0
 1048 000a FF20     		movs	r0, #255
 1049              	.LVL111:
1418:Generated_Source\PSoC4/CapSense_CSHL.c **** 
1419:Generated_Source\PSoC4/CapSense_CSHL.c ****         #if (CapSense_IS_DIPLEX_SLIDER)
1420:Generated_Source\PSoC4/CapSense_CSHL.c ****             if(diplex != 0u)
1421:Generated_Source\PSoC4/CapSense_CSHL.c ****             {
1422:Generated_Source\PSoC4/CapSense_CSHL.c ****                 /* Initialize */
1423:Generated_Source\PSoC4/CapSense_CSHL.c ****                 i = 0u;
1424:Generated_Source\PSoC4/CapSense_CSHL.c **** 
1425:Generated_Source\PSoC4/CapSense_CSHL.c ****                 /* Make slider x2 as Diplexed */
1426:Generated_Source\PSoC4/CapSense_CSHL.c ****                 count <<= 1u;
1427:Generated_Source\PSoC4/CapSense_CSHL.c ****                 while(1u)
1428:Generated_Source\PSoC4/CapSense_CSHL.c ****                 {
1429:Generated_Source\PSoC4/CapSense_CSHL.c ****                     if (startOfSlider[curPos] > 0u)    /* Looking for centroids */
1430:Generated_Source\PSoC4/CapSense_CSHL.c ****                     {
1431:Generated_Source\PSoC4/CapSense_CSHL.c ****                         if (curCtrdStartPos == CapSense_MAXIMUM_CENTROID)
1432:Generated_Source\PSoC4/CapSense_CSHL.c ****                         {
1433:Generated_Source\PSoC4/CapSense_CSHL.c ****                             /* Start of centroid */
1434:Generated_Source\PSoC4/CapSense_CSHL.c ****                             curCtrdStartPos = i;
1435:Generated_Source\PSoC4/CapSense_CSHL.c ****                             curCntrdSize++;
1436:Generated_Source\PSoC4/CapSense_CSHL.c ****                         }
1437:Generated_Source\PSoC4/CapSense_CSHL.c ****                         else
1438:Generated_Source\PSoC4/CapSense_CSHL.c ****                         {
1439:Generated_Source\PSoC4/CapSense_CSHL.c ****                             curCntrdSize++;
1440:Generated_Source\PSoC4/CapSense_CSHL.c ****                         }
1441:Generated_Source\PSoC4/CapSense_CSHL.c ****                     }
1442:Generated_Source\PSoC4/CapSense_CSHL.c ****                     else   /* Select biggest and indicate zero start */
1443:Generated_Source\PSoC4/CapSense_CSHL.c ****                     {
1444:Generated_Source\PSoC4/CapSense_CSHL.c ****                         if(curCntrdSize > 0u)
1445:Generated_Source\PSoC4/CapSense_CSHL.c ****                         {
1446:Generated_Source\PSoC4/CapSense_CSHL.c ****                             /* We are at the end of current */
1447:Generated_Source\PSoC4/CapSense_CSHL.c ****                             if(curCntrdSize > biggestCtrdSize)
1448:Generated_Source\PSoC4/CapSense_CSHL.c ****                             {
1449:Generated_Source\PSoC4/CapSense_CSHL.c ****                                 biggestCtrdSize = curCntrdSize;
1450:Generated_Source\PSoC4/CapSense_CSHL.c ****                                 biggestCtrdStartPos = curCtrdStartPos;
ARM GAS  C:\Users\TERENC~1\AppData\Local\Temp\ccjR28lu.s 			page 45


1451:Generated_Source\PSoC4/CapSense_CSHL.c ****                             }
1452:Generated_Source\PSoC4/CapSense_CSHL.c **** 
1453:Generated_Source\PSoC4/CapSense_CSHL.c ****                             curCntrdSize = 0u;
1454:Generated_Source\PSoC4/CapSense_CSHL.c ****                             curCtrdStartPos = CapSense_MAXIMUM_CENTROID;
1455:Generated_Source\PSoC4/CapSense_CSHL.c ****                         }
1456:Generated_Source\PSoC4/CapSense_CSHL.c ****                     }
1457:Generated_Source\PSoC4/CapSense_CSHL.c **** 
1458:Generated_Source\PSoC4/CapSense_CSHL.c ****                     i++;
1459:Generated_Source\PSoC4/CapSense_CSHL.c ****                     curPos = diplex[i];
1460:Generated_Source\PSoC4/CapSense_CSHL.c ****                     if(i == count)
1461:Generated_Source\PSoC4/CapSense_CSHL.c ****                     {
1462:Generated_Source\PSoC4/CapSense_CSHL.c ****                         break;
1463:Generated_Source\PSoC4/CapSense_CSHL.c ****                     }
1464:Generated_Source\PSoC4/CapSense_CSHL.c ****                 }
1465:Generated_Source\PSoC4/CapSense_CSHL.c **** 
1466:Generated_Source\PSoC4/CapSense_CSHL.c ****                     /* Find biggest centroid if two are same size, last one wins
1467:Generated_Source\PSoC4/CapSense_CSHL.c ****                        We are at the end of current */
1468:Generated_Source\PSoC4/CapSense_CSHL.c ****                 if (curCntrdSize >= biggestCtrdSize)
1469:Generated_Source\PSoC4/CapSense_CSHL.c ****                 {
1470:Generated_Source\PSoC4/CapSense_CSHL.c ****                     biggestCtrdSize = curCntrdSize;
1471:Generated_Source\PSoC4/CapSense_CSHL.c ****                     biggestCtrdStartPos = curCtrdStartPos;
1472:Generated_Source\PSoC4/CapSense_CSHL.c ****                 }
1473:Generated_Source\PSoC4/CapSense_CSHL.c ****             }
1474:Generated_Source\PSoC4/CapSense_CSHL.c ****             else
1475:Generated_Source\PSoC4/CapSense_CSHL.c ****             {
1476:Generated_Source\PSoC4/CapSense_CSHL.c ****                 /* Without diplexing */
1477:Generated_Source\PSoC4/CapSense_CSHL.c ****                 biggestCtrdSize = count;
1478:Generated_Source\PSoC4/CapSense_CSHL.c ****             }
1479:Generated_Source\PSoC4/CapSense_CSHL.c **** 
1480:Generated_Source\PSoC4/CapSense_CSHL.c **** 
1481:Generated_Source\PSoC4/CapSense_CSHL.c ****             /* Check centroid size */
1482:Generated_Source\PSoC4/CapSense_CSHL.c ****             #if (CapSense_IS_NON_DIPLEX_SLIDER)
1483:Generated_Source\PSoC4/CapSense_CSHL.c ****                 if((biggestCtrdSize >= 2u) || ((biggestCtrdSize == 1u) && (diplex == 0u)))
1484:Generated_Source\PSoC4/CapSense_CSHL.c ****             #else
1485:Generated_Source\PSoC4/CapSense_CSHL.c ****                 if(biggestCtrdSize >= 2u)
1486:Generated_Source\PSoC4/CapSense_CSHL.c ****             #endif /* (CapSense_IS_NON_DIPLEX_SLIDER) */
1487:Generated_Source\PSoC4/CapSense_CSHL.c ****                 {
1488:Generated_Source\PSoC4/CapSense_CSHL.c ****                     for (i = biggestCtrdStartPos; i < (biggestCtrdStartPos + biggestCtrdSize); i++)
1489:Generated_Source\PSoC4/CapSense_CSHL.c ****                     {
1490:Generated_Source\PSoC4/CapSense_CSHL.c ****                         #if (CapSense_IS_DIPLEX_SLIDER && CapSense_IS_NON_DIPLEX_SLIDER)
1491:Generated_Source\PSoC4/CapSense_CSHL.c ****                             if (diplex == 0u)
1492:Generated_Source\PSoC4/CapSense_CSHL.c ****                             {
1493:Generated_Source\PSoC4/CapSense_CSHL.c ****                                 curPos = i;
1494:Generated_Source\PSoC4/CapSense_CSHL.c ****                             }
1495:Generated_Source\PSoC4/CapSense_CSHL.c ****                             else
1496:Generated_Source\PSoC4/CapSense_CSHL.c ****                             {
1497:Generated_Source\PSoC4/CapSense_CSHL.c ****                                 curPos = diplex[i];
1498:Generated_Source\PSoC4/CapSense_CSHL.c ****                             }
1499:Generated_Source\PSoC4/CapSense_CSHL.c ****                         #elif (CapSense_IS_DIPLEX_SLIDER)
1500:Generated_Source\PSoC4/CapSense_CSHL.c ****                             curPos = diplex[i];
1501:Generated_Source\PSoC4/CapSense_CSHL.c ****                         #endif /* (CapSense_IS_DIPLEX_SLIDER && CapSense_IS_NON_DIPLEX_SLIDER) */
1502:Generated_Source\PSoC4/CapSense_CSHL.c ****                         /* Looking for greater element within centroid */
1503:Generated_Source\PSoC4/CapSense_CSHL.c ****                         if(startOfSlider[curPos] > fingerThreshold)
1504:Generated_Source\PSoC4/CapSense_CSHL.c ****                         {
1505:Generated_Source\PSoC4/CapSense_CSHL.c ****                             if(startOfSlider[curPos] > temp)
1506:Generated_Source\PSoC4/CapSense_CSHL.c ****                             {
1507:Generated_Source\PSoC4/CapSense_CSHL.c ****                                 maximum = i;
ARM GAS  C:\Users\TERENC~1\AppData\Local\Temp\ccjR28lu.s 			page 46


1508:Generated_Source\PSoC4/CapSense_CSHL.c ****                                 temp = startOfSlider[curPos];
1509:Generated_Source\PSoC4/CapSense_CSHL.c ****                             }
1510:Generated_Source\PSoC4/CapSense_CSHL.c ****                         }
1511:Generated_Source\PSoC4/CapSense_CSHL.c ****                     }
1512:Generated_Source\PSoC4/CapSense_CSHL.c ****                 }
1513:Generated_Source\PSoC4/CapSense_CSHL.c ****         #else
1514:Generated_Source\PSoC4/CapSense_CSHL.c ****             for (i = 0u; i < count; i++)
 1050              		.loc 1 1514 0
 1051 000c 0023     		movs	r3, #0
 1052 000e 08E0     		b	.L88
 1053              	.LVL112:
 1054              	.L90:
1515:Generated_Source\PSoC4/CapSense_CSHL.c ****             {
1516:Generated_Source\PSoC4/CapSense_CSHL.c ****                 /* Looking for greater element within centroid */
1517:Generated_Source\PSoC4/CapSense_CSHL.c ****                 if(startOfSlider[i] > fingerThreshold)
 1055              		.loc 1 1517 0
 1056 0010 EC5C     		ldrb	r4, [r5, r3]
 1057 0012 9442     		cmp	r4, r2
 1058 0014 03D9     		bls	.L89
1518:Generated_Source\PSoC4/CapSense_CSHL.c ****                 {
1519:Generated_Source\PSoC4/CapSense_CSHL.c ****                     if(startOfSlider[i] > temp)
 1059              		.loc 1 1519 0
 1060 0016 A642     		cmp	r6, r4
 1061 0018 01D2     		bcs	.L89
1520:Generated_Source\PSoC4/CapSense_CSHL.c ****                     {
1521:Generated_Source\PSoC4/CapSense_CSHL.c ****                         maximum = i;
1522:Generated_Source\PSoC4/CapSense_CSHL.c ****                         temp = startOfSlider[i];
 1062              		.loc 1 1522 0
 1063 001a 2600     		movs	r6, r4
 1064              	.LVL113:
1521:Generated_Source\PSoC4/CapSense_CSHL.c ****                         temp = startOfSlider[i];
 1065              		.loc 1 1521 0
 1066 001c 1800     		movs	r0, r3
 1067              	.LVL114:
 1068              	.L89:
1514:Generated_Source\PSoC4/CapSense_CSHL.c ****             {
 1069              		.loc 1 1514 0 discriminator 2
 1070 001e 0133     		adds	r3, r3, #1
 1071              	.LVL115:
 1072 0020 DBB2     		uxtb	r3, r3
 1073              	.LVL116:
 1074              	.L88:
1514:Generated_Source\PSoC4/CapSense_CSHL.c ****             {
 1075              		.loc 1 1514 0 is_stmt 0 discriminator 1
 1076 0022 8B42     		cmp	r3, r1
 1077 0024 F4D3     		bcc	.L90
1523:Generated_Source\PSoC4/CapSense_CSHL.c ****                     }
1524:Generated_Source\PSoC4/CapSense_CSHL.c ****                 }
1525:Generated_Source\PSoC4/CapSense_CSHL.c ****             }
1526:Generated_Source\PSoC4/CapSense_CSHL.c ****         #endif /* (CapSense_IS_DIPLEX_SLIDER) */
1527:Generated_Source\PSoC4/CapSense_CSHL.c ****         return (maximum);
1528:Generated_Source\PSoC4/CapSense_CSHL.c ****     }
 1078              		.loc 1 1528 0 is_stmt 1
 1079              		@ sp needed
 1080              	.LVL117:
 1081              	.LVL118:
 1082 0026 70BD     		pop	{r4, r5, r6, pc}
ARM GAS  C:\Users\TERENC~1\AppData\Local\Temp\ccjR28lu.s 			page 47


 1083              	.L93:
 1084              		.align	2
 1085              	.L92:
 1086 0028 00000000 		.word	.LANCHOR0
 1087              		.cfi_endproc
 1088              	.LFE60:
 1089              		.size	CapSense_FindMaximum, .-CapSense_FindMaximum
 1090              		.global	__aeabi_idiv
 1091              		.section	.text.CapSense_CalcCentroid,"ax",%progbits
 1092              		.align	2
 1093              		.global	CapSense_CalcCentroid
 1094              		.code	16
 1095              		.thumb_func
 1096              		.type	CapSense_CalcCentroid, %function
 1097              	CapSense_CalcCentroid:
 1098              	.LFB61:
1529:Generated_Source\PSoC4/CapSense_CSHL.c **** 
1530:Generated_Source\PSoC4/CapSense_CSHL.c **** 
1531:Generated_Source\PSoC4/CapSense_CSHL.c ****     /*******************************************************************************
1532:Generated_Source\PSoC4/CapSense_CSHL.c ****     * Function Name: CapSense_CalcCentroid
1533:Generated_Source\PSoC4/CapSense_CSHL.c ****     ********************************************************************************
1534:Generated_Source\PSoC4/CapSense_CSHL.c ****     *
1535:Generated_Source\PSoC4/CapSense_CSHL.c ****     * Summary:
1536:Generated_Source\PSoC4/CapSense_CSHL.c ****     *  Returns a position value calculated according to the index of the maximum element and API
1537:Generated_Source\PSoC4/CapSense_CSHL.c ****     *  resolution.
1538:Generated_Source\PSoC4/CapSense_CSHL.c ****     *
1539:Generated_Source\PSoC4/CapSense_CSHL.c ****     * Parameters:
1540:Generated_Source\PSoC4/CapSense_CSHL.c ****     *  type:  widget type.
1541:Generated_Source\PSoC4/CapSense_CSHL.c ****     *  diplex:  pointer to diplex table.
1542:Generated_Source\PSoC4/CapSense_CSHL.c ****     *  maximum:  Index of maximum element within centroid.
1543:Generated_Source\PSoC4/CapSense_CSHL.c ****     *  offset:   Start index of centroid in CapSense_sensorSignal[] array.
1544:Generated_Source\PSoC4/CapSense_CSHL.c ****     *  count:    Number of elements within centroid.
1545:Generated_Source\PSoC4/CapSense_CSHL.c ****     *  resolution:  multiplicator calculated according to centroid type and
1546:Generated_Source\PSoC4/CapSense_CSHL.c ****     *  API resolution.
1547:Generated_Source\PSoC4/CapSense_CSHL.c ****     *  noiseThreshold:  Noise threshold.
1548:Generated_Source\PSoC4/CapSense_CSHL.c ****     *
1549:Generated_Source\PSoC4/CapSense_CSHL.c ****     * Return:
1550:Generated_Source\PSoC4/CapSense_CSHL.c ****     *  Returns a position value of the slider.
1551:Generated_Source\PSoC4/CapSense_CSHL.c ****     *
1552:Generated_Source\PSoC4/CapSense_CSHL.c ****     * Side Effects:
1553:Generated_Source\PSoC4/CapSense_CSHL.c ****     *  None
1554:Generated_Source\PSoC4/CapSense_CSHL.c ****     *
1555:Generated_Source\PSoC4/CapSense_CSHL.c ****     *******************************************************************************/
1556:Generated_Source\PSoC4/CapSense_CSHL.c **** #if (CapSense_TOTAL_TRACKPAD_GESTURES_COUNT > 0u)
1557:Generated_Source\PSoC4/CapSense_CSHL.c ****     uint8 CapSense_CalcCentroid(uint8 maximum, uint8 offset,
1558:Generated_Source\PSoC4/CapSense_CSHL.c ****                                         uint8 count, uint32 resolution, uint8 noiseThreshold)
1559:Generated_Source\PSoC4/CapSense_CSHL.c **** #else
1560:Generated_Source\PSoC4/CapSense_CSHL.c ****     uint8 CapSense_CalcCentroid(uint8 maximum, uint8 offset,
1561:Generated_Source\PSoC4/CapSense_CSHL.c ****                                         uint8 count, uint16 resolution, uint8 noiseThreshold)
1562:Generated_Source\PSoC4/CapSense_CSHL.c **** #endif /* (CapSense_TOTAL_TRACKPAD_GESTURES_COUNT > 0u) */
1563:Generated_Source\PSoC4/CapSense_CSHL.c ****     {
 1099              		.loc 1 1563 0
 1100              		.cfi_startproc
 1101              		@ args = 4, pretend = 0, frame = 8
 1102              		@ frame_needed = 0, uses_anonymous_args = 0
 1103              	.LVL119:
 1104 0000 F0B5     		push	{r4, r5, r6, r7, lr}
ARM GAS  C:\Users\TERENC~1\AppData\Local\Temp\ccjR28lu.s 			page 48


 1105              		.cfi_def_cfa_offset 20
 1106              		.cfi_offset 4, -20
 1107              		.cfi_offset 5, -16
 1108              		.cfi_offset 6, -12
 1109              		.cfi_offset 7, -8
 1110              		.cfi_offset 14, -4
 1111 0002 83B0     		sub	sp, sp, #12
 1112              		.cfi_def_cfa_offset 32
 1113 0004 0400     		movs	r4, r0
 1114 0006 1600     		movs	r6, r2
 1115 0008 0193     		str	r3, [sp, #4]
 1116 000a 08AB     		add	r3, sp, #32
 1117              	.LVL120:
 1118 000c 1878     		ldrb	r0, [r3]
 1119              	.LVL121:
1564:Generated_Source\PSoC4/CapSense_CSHL.c ****         #if ((CapSense_TOTAL_LINEAR_SLIDERS_COUNT > 0u) || (CapSense_TOTAL_TOUCH_PADS_BASIC_COUNT >
1565:Generated_Source\PSoC4/CapSense_CSHL.c ****             uint8 posPrev;
1566:Generated_Source\PSoC4/CapSense_CSHL.c ****             uint8 posNext;
1567:Generated_Source\PSoC4/CapSense_CSHL.c ****         #endif /* ((CapSense_TOTAL_LINEAR_SLIDERS_COUNT>0u) || (CapSense_TOTAL_TOUCH_PADS_BASIC_COU
1568:Generated_Source\PSoC4/CapSense_CSHL.c **** 
1569:Generated_Source\PSoC4/CapSense_CSHL.c ****         /* Helps during centroid calculation */
1570:Generated_Source\PSoC4/CapSense_CSHL.c ****         #if (CapSense_TOTAL_CENTROIDS_BASIC_COUNT)
1571:Generated_Source\PSoC4/CapSense_CSHL.c ****             static uint8 CapSense_centroid[3u];
1572:Generated_Source\PSoC4/CapSense_CSHL.c ****         #endif  /* (CapSense_TOTAL_CENTROIDS_BASIC_COUNT) */
1573:Generated_Source\PSoC4/CapSense_CSHL.c **** 
1574:Generated_Source\PSoC4/CapSense_CSHL.c ****         #if (CapSense_IS_DIPLEX_SLIDER)
1575:Generated_Source\PSoC4/CapSense_CSHL.c ****             uint8 pos;
1576:Generated_Source\PSoC4/CapSense_CSHL.c ****         #endif /* (CapSense_IS_DIPLEX_SLIDER) */
1577:Generated_Source\PSoC4/CapSense_CSHL.c **** 
1578:Generated_Source\PSoC4/CapSense_CSHL.c ****         uint8 position;
1579:Generated_Source\PSoC4/CapSense_CSHL.c ****         uint32 numerator;
1580:Generated_Source\PSoC4/CapSense_CSHL.c ****         int32 denominator;
1581:Generated_Source\PSoC4/CapSense_CSHL.c **** 
1582:Generated_Source\PSoC4/CapSense_CSHL.c ****         uint8  *startOfSlider = &CapSense_sensorSignal[offset];
 1120              		.loc 1 1582 0
 1121 000e 344A     		ldr	r2, .L103
 1122              	.LVL122:
 1123 0010 1300     		movs	r3, r2
 1124              	.LVL123:
 1125 0012 2C33     		adds	r3, r3, #44
 1126 0014 5B18     		adds	r3, r3, r1
 1127              	.LVL124:
1583:Generated_Source\PSoC4/CapSense_CSHL.c **** 
1584:Generated_Source\PSoC4/CapSense_CSHL.c ****         #if ((CapSense_TOTAL_LINEAR_SLIDERS_COUNT > 0u) || (CapSense_TOTAL_TOUCH_PADS_BASIC_COUNT >
1585:Generated_Source\PSoC4/CapSense_CSHL.c ****             posPrev = 0u;
1586:Generated_Source\PSoC4/CapSense_CSHL.c ****         #endif /* ((CapSense_TOTAL_LINEAR_SLIDERS_COUNT>0u) || (CapSense_TOTAL_TOUCH_PADS_BASIC_COU
1587:Generated_Source\PSoC4/CapSense_CSHL.c **** 
1588:Generated_Source\PSoC4/CapSense_CSHL.c ****         #if (CapSense_ADD_SLIDER_TYPE)
1589:Generated_Source\PSoC4/CapSense_CSHL.c ****             if(type == CapSense_TYPE_RADIAL_SLIDER)
1590:Generated_Source\PSoC4/CapSense_CSHL.c ****             {
1591:Generated_Source\PSoC4/CapSense_CSHL.c ****         #endif /* (CapSense_ADD_SLIDER_TYPE) */
1592:Generated_Source\PSoC4/CapSense_CSHL.c **** 
1593:Generated_Source\PSoC4/CapSense_CSHL.c ****             #if (CapSense_TOTAL_RADIAL_SLIDERS_COUNT > 0u)
1594:Generated_Source\PSoC4/CapSense_CSHL.c ****                 /* Copy Signal to the centroid array */
1595:Generated_Source\PSoC4/CapSense_CSHL.c ****                 CapSense_centroid[CapSense_POS] = startOfSlider[maximum];
 1128              		.loc 1 1595 0
 1129 0016 1D5D     		ldrb	r5, [r3, r4]
ARM GAS  C:\Users\TERENC~1\AppData\Local\Temp\ccjR28lu.s 			page 49


 1130 0018 4832     		adds	r2, r2, #72
 1131 001a 5570     		strb	r5, [r2, #1]
1596:Generated_Source\PSoC4/CapSense_CSHL.c **** 
1597:Generated_Source\PSoC4/CapSense_CSHL.c ****                 /* Check borders for ROTARY Slider */
1598:Generated_Source\PSoC4/CapSense_CSHL.c ****                 if (maximum == 0u)                   /* Start of centroid */
 1132              		.loc 1 1598 0
 1133 001c 002C     		cmp	r4, #0
 1134 001e 09D1     		bne	.L95
1599:Generated_Source\PSoC4/CapSense_CSHL.c ****                 {
1600:Generated_Source\PSoC4/CapSense_CSHL.c ****                     CapSense_centroid[CapSense_POS_PREV] = startOfSlider[count - 1u];
 1135              		.loc 1 1600 0
 1136 0020 9A19     		adds	r2, r3, r6
 1137 0022 013A     		subs	r2, r2, #1
 1138 0024 1778     		ldrb	r7, [r2]
 1139 0026 2E4A     		ldr	r2, .L103
 1140 0028 4821     		movs	r1, #72
 1141              	.LVL125:
 1142 002a 5754     		strb	r7, [r2, r1]
1601:Generated_Source\PSoC4/CapSense_CSHL.c ****                     CapSense_centroid[CapSense_POS_NEXT] = startOfSlider[1u];
 1143              		.loc 1 1601 0
 1144 002c 4832     		adds	r2, r2, #72
 1145 002e 5B78     		ldrb	r3, [r3, #1]
 1146              	.LVL126:
 1147 0030 9370     		strb	r3, [r2, #2]
 1148 0032 17E0     		b	.L96
 1149              	.LVL127:
 1150              	.L95:
1602:Generated_Source\PSoC4/CapSense_CSHL.c ****                 }
1603:Generated_Source\PSoC4/CapSense_CSHL.c ****                 else if (maximum == (count - 1u))    /* End of centroid */
 1151              		.loc 1 1603 0
 1152 0034 721E     		subs	r2, r6, #1
 1153 0036 9442     		cmp	r4, r2
 1154 0038 0BD1     		bne	.L97
1604:Generated_Source\PSoC4/CapSense_CSHL.c ****                 {
1605:Generated_Source\PSoC4/CapSense_CSHL.c ****                     CapSense_centroid[CapSense_POS_PREV] = startOfSlider[maximum - 1u];
 1155              		.loc 1 1605 0
 1156 003a 1B19     		adds	r3, r3, r4
 1157              	.LVL128:
 1158 003c 013B     		subs	r3, r3, #1
 1159 003e 1F78     		ldrb	r7, [r3]
 1160 0040 274B     		ldr	r3, .L103
 1161              	.LVL129:
 1162 0042 4822     		movs	r2, #72
 1163 0044 9F54     		strb	r7, [r3, r2]
1606:Generated_Source\PSoC4/CapSense_CSHL.c ****                     CapSense_centroid[CapSense_POS_NEXT] = startOfSlider[0u];
 1164              		.loc 1 1606 0
 1165 0046 5918     		adds	r1, r3, r1
 1166              	.LVL130:
 1167 0048 1C3A     		subs	r2, r2, #28
 1168 004a 8A5C     		ldrb	r2, [r1, r2]
 1169 004c 4833     		adds	r3, r3, #72
 1170 004e 9A70     		strb	r2, [r3, #2]
 1171 0050 08E0     		b	.L96
 1172              	.LVL131:
 1173              	.L97:
1607:Generated_Source\PSoC4/CapSense_CSHL.c ****                 }
1608:Generated_Source\PSoC4/CapSense_CSHL.c ****                 else                                /* Not first Not last */
ARM GAS  C:\Users\TERENC~1\AppData\Local\Temp\ccjR28lu.s 			page 50


1609:Generated_Source\PSoC4/CapSense_CSHL.c ****                 {
1610:Generated_Source\PSoC4/CapSense_CSHL.c ****                     CapSense_centroid[CapSense_POS_PREV] = startOfSlider[maximum - 1u];
 1174              		.loc 1 1610 0
 1175 0052 1B19     		adds	r3, r3, r4
 1176              	.LVL132:
 1177 0054 5A1E     		subs	r2, r3, #1
 1178 0056 1778     		ldrb	r7, [r2]
 1179 0058 214A     		ldr	r2, .L103
 1180              	.LVL133:
 1181 005a 4821     		movs	r1, #72
 1182              	.LVL134:
 1183 005c 5754     		strb	r7, [r2, r1]
1611:Generated_Source\PSoC4/CapSense_CSHL.c ****                     CapSense_centroid[CapSense_POS_NEXT] = startOfSlider[maximum + 1u];
 1184              		.loc 1 1611 0
 1185 005e 5B78     		ldrb	r3, [r3, #1]
 1186 0060 4832     		adds	r2, r2, #72
 1187 0062 9370     		strb	r3, [r2, #2]
 1188              	.L96:
1612:Generated_Source\PSoC4/CapSense_CSHL.c ****                 }
1613:Generated_Source\PSoC4/CapSense_CSHL.c ****             #endif /* (CapSense_TOTAL_RADIAL_SLIDERS_COUNT > 0u) */
1614:Generated_Source\PSoC4/CapSense_CSHL.c **** 
1615:Generated_Source\PSoC4/CapSense_CSHL.c ****         #if (CapSense_ADD_SLIDER_TYPE)
1616:Generated_Source\PSoC4/CapSense_CSHL.c ****             }
1617:Generated_Source\PSoC4/CapSense_CSHL.c ****             else
1618:Generated_Source\PSoC4/CapSense_CSHL.c ****             {
1619:Generated_Source\PSoC4/CapSense_CSHL.c ****         #endif /* (CapSense_ADD_SLIDER_TYPE) */
1620:Generated_Source\PSoC4/CapSense_CSHL.c **** 
1621:Generated_Source\PSoC4/CapSense_CSHL.c ****             #if ((CapSense_TOTAL_LINEAR_SLIDERS_COUNT > 0u) || (CapSense_TOTAL_TOUCH_PADS_BASIC_COU
1622:Generated_Source\PSoC4/CapSense_CSHL.c ****                 #if (CapSense_IS_DIPLEX_SLIDER && CapSense_IS_NON_DIPLEX_SLIDER)
1623:Generated_Source\PSoC4/CapSense_CSHL.c ****                     /* Calculate next and previous near to maximum */
1624:Generated_Source\PSoC4/CapSense_CSHL.c ****                     if(diplex == 0u)
1625:Generated_Source\PSoC4/CapSense_CSHL.c ****                     {
1626:Generated_Source\PSoC4/CapSense_CSHL.c ****                         pos     = maximum;
1627:Generated_Source\PSoC4/CapSense_CSHL.c ****                         posPrev = maximum - 1u;
1628:Generated_Source\PSoC4/CapSense_CSHL.c ****                         posNext = maximum + 1u;
1629:Generated_Source\PSoC4/CapSense_CSHL.c ****                     }
1630:Generated_Source\PSoC4/CapSense_CSHL.c ****                     else
1631:Generated_Source\PSoC4/CapSense_CSHL.c ****                     {
1632:Generated_Source\PSoC4/CapSense_CSHL.c ****                         pos     = diplex[maximum];
1633:Generated_Source\PSoC4/CapSense_CSHL.c ****                         posPrev = diplex[maximum - 1u];
1634:Generated_Source\PSoC4/CapSense_CSHL.c ****                         posNext = diplex[maximum + 1u];
1635:Generated_Source\PSoC4/CapSense_CSHL.c ****                         count <<= 1u;
1636:Generated_Source\PSoC4/CapSense_CSHL.c ****                     }
1637:Generated_Source\PSoC4/CapSense_CSHL.c ****                 #elif (CapSense_IS_DIPLEX_SLIDER)
1638:Generated_Source\PSoC4/CapSense_CSHL.c ****                     /* Calculate next and previous near to maximum */
1639:Generated_Source\PSoC4/CapSense_CSHL.c ****                     pos     = diplex[maximum];
1640:Generated_Source\PSoC4/CapSense_CSHL.c ****                     posPrev = diplex[maximum - 1u];
1641:Generated_Source\PSoC4/CapSense_CSHL.c ****                     posNext = diplex[maximum + 1u];
1642:Generated_Source\PSoC4/CapSense_CSHL.c ****                     count <<= 1u;
1643:Generated_Source\PSoC4/CapSense_CSHL.c ****                 #else
1644:Generated_Source\PSoC4/CapSense_CSHL.c ****                     /* Calculate next and previous near to maximum */
1645:Generated_Source\PSoC4/CapSense_CSHL.c ****                     if (maximum >= 1u)
1646:Generated_Source\PSoC4/CapSense_CSHL.c ****                     {
1647:Generated_Source\PSoC4/CapSense_CSHL.c ****                         posPrev = maximum - 1u;
1648:Generated_Source\PSoC4/CapSense_CSHL.c ****                     }
1649:Generated_Source\PSoC4/CapSense_CSHL.c ****                     posNext = maximum + 1u;
1650:Generated_Source\PSoC4/CapSense_CSHL.c ****                 #endif /* (CapSense_IS_DIPLEX_SLIDER && CapSense_IS_NON_DIPLEX_SLIDER) */
ARM GAS  C:\Users\TERENC~1\AppData\Local\Temp\ccjR28lu.s 			page 51


1651:Generated_Source\PSoC4/CapSense_CSHL.c **** 
1652:Generated_Source\PSoC4/CapSense_CSHL.c ****                 /* Copy Signal to the centroid array */
1653:Generated_Source\PSoC4/CapSense_CSHL.c ****                 #if (CapSense_IS_DIPLEX_SLIDER)
1654:Generated_Source\PSoC4/CapSense_CSHL.c ****                     CapSense_centroid[CapSense_POS] = startOfSlider[pos];
1655:Generated_Source\PSoC4/CapSense_CSHL.c ****                 #else
1656:Generated_Source\PSoC4/CapSense_CSHL.c ****                     CapSense_centroid[CapSense_POS] = startOfSlider[maximum];
1657:Generated_Source\PSoC4/CapSense_CSHL.c ****                 #endif /* (CapSense_IS_DIPLEX_SLIDER) */
1658:Generated_Source\PSoC4/CapSense_CSHL.c **** 
1659:Generated_Source\PSoC4/CapSense_CSHL.c ****                 /* Check borders for LINEAR Slider */
1660:Generated_Source\PSoC4/CapSense_CSHL.c ****                 if (maximum == 0u)                   /* Start of centroid */
1661:Generated_Source\PSoC4/CapSense_CSHL.c ****                 {
1662:Generated_Source\PSoC4/CapSense_CSHL.c ****                     CapSense_centroid[CapSense_POS_PREV] = 0u;
1663:Generated_Source\PSoC4/CapSense_CSHL.c ****                     CapSense_centroid[CapSense_POS_NEXT] = startOfSlider[posNext];
1664:Generated_Source\PSoC4/CapSense_CSHL.c ****                 }
1665:Generated_Source\PSoC4/CapSense_CSHL.c ****                 else if (maximum == ((count) - 1u)) /* End of centroid */
1666:Generated_Source\PSoC4/CapSense_CSHL.c ****                 {
1667:Generated_Source\PSoC4/CapSense_CSHL.c ****                     CapSense_centroid[CapSense_POS_PREV] = startOfSlider[posPrev];
1668:Generated_Source\PSoC4/CapSense_CSHL.c ****                     CapSense_centroid[CapSense_POS_NEXT] = 0u;
1669:Generated_Source\PSoC4/CapSense_CSHL.c ****                 }
1670:Generated_Source\PSoC4/CapSense_CSHL.c ****                 else                                /* Not first Not last */
1671:Generated_Source\PSoC4/CapSense_CSHL.c ****                 {
1672:Generated_Source\PSoC4/CapSense_CSHL.c ****                     CapSense_centroid[CapSense_POS_PREV] = startOfSlider[posPrev];
1673:Generated_Source\PSoC4/CapSense_CSHL.c ****                     CapSense_centroid[CapSense_POS_NEXT] = startOfSlider[posNext];
1674:Generated_Source\PSoC4/CapSense_CSHL.c ****                 }
1675:Generated_Source\PSoC4/CapSense_CSHL.c ****             #endif /* ((CapSense_TOTAL_LINEAR_SLIDERS_COUNT>0u)||(CapSense_TOTAL_TOUCH_PADS_BASIC_C
1676:Generated_Source\PSoC4/CapSense_CSHL.c **** 
1677:Generated_Source\PSoC4/CapSense_CSHL.c ****         #if (CapSense_ADD_SLIDER_TYPE)
1678:Generated_Source\PSoC4/CapSense_CSHL.c ****             }
1679:Generated_Source\PSoC4/CapSense_CSHL.c ****         #endif /* (CapSense_ADD_SLIDER_TYPE) */
1680:Generated_Source\PSoC4/CapSense_CSHL.c **** 
1681:Generated_Source\PSoC4/CapSense_CSHL.c ****         /* Subtract noiseThreshold */
1682:Generated_Source\PSoC4/CapSense_CSHL.c ****         if(CapSense_centroid[CapSense_POS_PREV] > noiseThreshold)
 1189              		.loc 1 1682 0
 1190 0064 4823     		movs	r3, #72
 1191 0066 1E4A     		ldr	r2, .L103
 1192 0068 D35C     		ldrb	r3, [r2, r3]
 1193 006a 8342     		cmp	r3, r0
 1194 006c 04D9     		bls	.L98
1683:Generated_Source\PSoC4/CapSense_CSHL.c ****         {
1684:Generated_Source\PSoC4/CapSense_CSHL.c ****             CapSense_centroid[CapSense_POS_PREV] -= noiseThreshold;
 1195              		.loc 1 1684 0
 1196 006e 1B1A     		subs	r3, r3, r0
 1197 0070 4822     		movs	r2, #72
 1198 0072 1B49     		ldr	r1, .L103
 1199 0074 8B54     		strb	r3, [r1, r2]
 1200 0076 03E0     		b	.L99
 1201              	.L98:
1685:Generated_Source\PSoC4/CapSense_CSHL.c ****         }
1686:Generated_Source\PSoC4/CapSense_CSHL.c ****         else
1687:Generated_Source\PSoC4/CapSense_CSHL.c ****         {
1688:Generated_Source\PSoC4/CapSense_CSHL.c ****             CapSense_centroid[CapSense_POS_PREV] = 0u;
 1202              		.loc 1 1688 0
 1203 0078 0021     		movs	r1, #0
 1204 007a 4823     		movs	r3, #72
 1205 007c 184A     		ldr	r2, .L103
 1206 007e D154     		strb	r1, [r2, r3]
 1207              	.L99:
ARM GAS  C:\Users\TERENC~1\AppData\Local\Temp\ccjR28lu.s 			page 52


1689:Generated_Source\PSoC4/CapSense_CSHL.c ****         }
1690:Generated_Source\PSoC4/CapSense_CSHL.c **** 
1691:Generated_Source\PSoC4/CapSense_CSHL.c ****         /* Maximum always greater than fingerThreshold, so greater than noiseThreshold */
1692:Generated_Source\PSoC4/CapSense_CSHL.c ****         CapSense_centroid[CapSense_POS] -= noiseThreshold;
 1208              		.loc 1 1692 0
 1209 0080 174A     		ldr	r2, .L103
 1210 0082 4832     		adds	r2, r2, #72
 1211 0084 5378     		ldrb	r3, [r2, #1]
 1212 0086 1B1A     		subs	r3, r3, r0
 1213 0088 DBB2     		uxtb	r3, r3
 1214 008a 5370     		strb	r3, [r2, #1]
1693:Generated_Source\PSoC4/CapSense_CSHL.c **** 
1694:Generated_Source\PSoC4/CapSense_CSHL.c ****         /* Subtract noiseThreshold */
1695:Generated_Source\PSoC4/CapSense_CSHL.c ****         if(CapSense_centroid[CapSense_POS_NEXT] > noiseThreshold)
 1215              		.loc 1 1695 0
 1216 008c 9278     		ldrb	r2, [r2, #2]
 1217 008e 9042     		cmp	r0, r2
 1218 0090 04D2     		bcs	.L100
1696:Generated_Source\PSoC4/CapSense_CSHL.c ****         {
1697:Generated_Source\PSoC4/CapSense_CSHL.c ****             CapSense_centroid[CapSense_POS_NEXT] -= noiseThreshold;
 1219              		.loc 1 1697 0
 1220 0092 101A     		subs	r0, r2, r0
 1221 0094 124A     		ldr	r2, .L103
 1222 0096 4832     		adds	r2, r2, #72
 1223 0098 9070     		strb	r0, [r2, #2]
 1224 009a 03E0     		b	.L101
 1225              	.L100:
1698:Generated_Source\PSoC4/CapSense_CSHL.c ****         }
1699:Generated_Source\PSoC4/CapSense_CSHL.c ****         else
1700:Generated_Source\PSoC4/CapSense_CSHL.c ****         {
1701:Generated_Source\PSoC4/CapSense_CSHL.c ****             CapSense_centroid[CapSense_POS_NEXT] = 0u;
 1226              		.loc 1 1701 0
 1227 009c 0021     		movs	r1, #0
 1228 009e 104A     		ldr	r2, .L103
 1229 00a0 4832     		adds	r2, r2, #72
 1230 00a2 9170     		strb	r1, [r2, #2]
 1231              	.L101:
1702:Generated_Source\PSoC4/CapSense_CSHL.c ****         }
1703:Generated_Source\PSoC4/CapSense_CSHL.c **** 
1704:Generated_Source\PSoC4/CapSense_CSHL.c **** 
1705:Generated_Source\PSoC4/CapSense_CSHL.c ****         /* Si+1 - Si-1 */
1706:Generated_Source\PSoC4/CapSense_CSHL.c ****         numerator = (uint32) CapSense_centroid[CapSense_POS_NEXT] -
 1232              		.loc 1 1706 0
 1233 00a4 0E49     		ldr	r1, .L103
 1234 00a6 0A00     		movs	r2, r1
 1235 00a8 4832     		adds	r2, r2, #72
 1236 00aa 9278     		ldrb	r2, [r2, #2]
1707:Generated_Source\PSoC4/CapSense_CSHL.c ****                     (uint32) CapSense_centroid[CapSense_POS_PREV];
 1237              		.loc 1 1707 0
 1238 00ac 4820     		movs	r0, #72
 1239 00ae 095C     		ldrb	r1, [r1, r0]
1706:Generated_Source\PSoC4/CapSense_CSHL.c ****                     (uint32) CapSense_centroid[CapSense_POS_PREV];
 1240              		.loc 1 1706 0
 1241 00b0 501A     		subs	r0, r2, r1
 1242              	.LVL135:
1708:Generated_Source\PSoC4/CapSense_CSHL.c **** 
1709:Generated_Source\PSoC4/CapSense_CSHL.c ****         /* Si+1 + Si + Si-1 */
ARM GAS  C:\Users\TERENC~1\AppData\Local\Temp\ccjR28lu.s 			page 53


1710:Generated_Source\PSoC4/CapSense_CSHL.c ****         denominator = (int32) CapSense_centroid[CapSense_POS_PREV] +
 1243              		.loc 1 1710 0
 1244 00b2 C918     		adds	r1, r1, r3
 1245 00b4 8918     		adds	r1, r1, r2
 1246              	.LVL136:
1711:Generated_Source\PSoC4/CapSense_CSHL.c ****                       (int32) CapSense_centroid[CapSense_POS] +
1712:Generated_Source\PSoC4/CapSense_CSHL.c ****                       (int32) CapSense_centroid[CapSense_POS_NEXT];
1713:Generated_Source\PSoC4/CapSense_CSHL.c **** 
1714:Generated_Source\PSoC4/CapSense_CSHL.c ****         /* (numerator/denominator) + maximum */
1715:Generated_Source\PSoC4/CapSense_CSHL.c ****         denominator = (((int32)(uint32)((uint32)numerator << 8u)/denominator) + (int32)(uint32)((ui
 1247              		.loc 1 1715 0
 1248 00b6 0002     		lsls	r0, r0, #8
 1249              	.LVL137:
 1250 00b8 FFF7FEFF 		bl	__aeabi_idiv
 1251              	.LVL138:
 1252 00bc 2402     		lsls	r4, r4, #8
 1253              	.LVL139:
1716:Generated_Source\PSoC4/CapSense_CSHL.c **** 
1717:Generated_Source\PSoC4/CapSense_CSHL.c ****         #if(CapSense_TOTAL_RADIAL_SLIDERS_COUNT > 0u)
1718:Generated_Source\PSoC4/CapSense_CSHL.c ****             /* Only required for RADIAL Slider */
1719:Generated_Source\PSoC4/CapSense_CSHL.c ****             if(denominator < 0)
 1254              		.loc 1 1719 0
 1255 00be 0419     		adds	r4, r0, r4
 1256 00c0 01D5     		bpl	.L102
 1257              	.LVL140:
1720:Generated_Source\PSoC4/CapSense_CSHL.c ****             {
1721:Generated_Source\PSoC4/CapSense_CSHL.c ****                 denominator += (int32)((uint16)((uint16) count << 8u));
 1258              		.loc 1 1721 0
 1259 00c2 3602     		lsls	r6, r6, #8
 1260 00c4 A419     		adds	r4, r4, r6
 1261              	.LVL141:
 1262              	.L102:
1722:Generated_Source\PSoC4/CapSense_CSHL.c ****             }
1723:Generated_Source\PSoC4/CapSense_CSHL.c ****         #endif /* (CapSense_TOTAL_RADIAL_SLIDERS_COUNT > 0u) */
1724:Generated_Source\PSoC4/CapSense_CSHL.c **** 
1725:Generated_Source\PSoC4/CapSense_CSHL.c ****         denominator *= (int16)resolution;
 1263              		.loc 1 1725 0
 1264 00c6 6B46     		mov	r3, sp
 1265 00c8 0420     		movs	r0, #4
 1266 00ca 185E     		ldrsh	r0, [r3, r0]
 1267 00cc 4443     		muls	r4, r0
 1268              	.LVL142:
1726:Generated_Source\PSoC4/CapSense_CSHL.c **** 
1727:Generated_Source\PSoC4/CapSense_CSHL.c ****         /* Round result and put it to uint8 */
1728:Generated_Source\PSoC4/CapSense_CSHL.c ****         position = ((uint8) HI16((uint32)denominator + CapSense_CENTROID_ROUND_VALUE));
 1269              		.loc 1 1728 0
 1270 00ce FE23     		movs	r3, #254
 1271 00d0 DB01     		lsls	r3, r3, #7
 1272 00d2 9C46     		mov	ip, r3
 1273 00d4 6444     		add	r4, r4, ip
 1274              	.LVL143:
 1275 00d6 240C     		lsrs	r4, r4, #16
 1276              	.LVL144:
 1277 00d8 E0B2     		uxtb	r0, r4
 1278              	.LVL145:
1729:Generated_Source\PSoC4/CapSense_CSHL.c **** 
1730:Generated_Source\PSoC4/CapSense_CSHL.c ****         return (position);
ARM GAS  C:\Users\TERENC~1\AppData\Local\Temp\ccjR28lu.s 			page 54


1731:Generated_Source\PSoC4/CapSense_CSHL.c ****     }
 1279              		.loc 1 1731 0
 1280 00da 03B0     		add	sp, sp, #12
 1281              		@ sp needed
 1282 00dc F0BD     		pop	{r4, r5, r6, r7, pc}
 1283              	.L104:
 1284 00de C046     		.align	2
 1285              	.L103:
 1286 00e0 00000000 		.word	.LANCHOR0
 1287              		.cfi_endproc
 1288              	.LFE61:
 1289              		.size	CapSense_CalcCentroid, .-CapSense_CalcCentroid
 1290              		.section	.text.CapSense_GetCentroidPos,"ax",%progbits
 1291              		.align	2
 1292              		.global	CapSense_GetCentroidPos
 1293              		.code	16
 1294              		.thumb_func
 1295              		.type	CapSense_GetCentroidPos, %function
 1296              	CapSense_GetCentroidPos:
 1297              	.LFB62:
1732:Generated_Source\PSoC4/CapSense_CSHL.c **** #endif /* (CapSense_TOTAL_CENTROIDS_BASIC_COUNT) */
1733:Generated_Source\PSoC4/CapSense_CSHL.c **** 
1734:Generated_Source\PSoC4/CapSense_CSHL.c **** 
1735:Generated_Source\PSoC4/CapSense_CSHL.c **** #if((CapSense_TOTAL_RADIAL_SLIDERS_COUNT > 0u) || (CapSense_TOTAL_LINEAR_SLIDERS_COUNT > 0u))
1736:Generated_Source\PSoC4/CapSense_CSHL.c ****     /*******************************************************************************
1737:Generated_Source\PSoC4/CapSense_CSHL.c ****     * Function Name: CapSense_GetCentroidPos
1738:Generated_Source\PSoC4/CapSense_CSHL.c ****     ********************************************************************************
1739:Generated_Source\PSoC4/CapSense_CSHL.c ****     *
1740:Generated_Source\PSoC4/CapSense_CSHL.c ****     * Summary:
1741:Generated_Source\PSoC4/CapSense_CSHL.c ****     *  Checks the CapSense_Signal[ ] array for a centroid within
1742:Generated_Source\PSoC4/CapSense_CSHL.c ****     *  a slider specified range. The centroid position is calculated according to the resolution
1743:Generated_Source\PSoC4/CapSense_CSHL.c ****     *  specified in the CapSense customizer. The position filters are applied to the
1744:Generated_Source\PSoC4/CapSense_CSHL.c ****     *  result if enabled.
1745:Generated_Source\PSoC4/CapSense_CSHL.c ****     *
1746:Generated_Source\PSoC4/CapSense_CSHL.c ****     * Parameters:
1747:Generated_Source\PSoC4/CapSense_CSHL.c ****     *  widget:  Widget number.
1748:Generated_Source\PSoC4/CapSense_CSHL.c ****     *  For every linear slider widget there are defines in this format:
1749:Generated_Source\PSoC4/CapSense_CSHL.c ****     *  #define CapSense_"widget_name"__LS           5
1750:Generated_Source\PSoC4/CapSense_CSHL.c ****     *
1751:Generated_Source\PSoC4/CapSense_CSHL.c ****     * Return:
1752:Generated_Source\PSoC4/CapSense_CSHL.c ****     *  Returns a position value of the linear slider.
1753:Generated_Source\PSoC4/CapSense_CSHL.c ****     *
1754:Generated_Source\PSoC4/CapSense_CSHL.c ****     * Global Variables:
1755:Generated_Source\PSoC4/CapSense_CSHL.c ****     *  None
1756:Generated_Source\PSoC4/CapSense_CSHL.c ****     *
1757:Generated_Source\PSoC4/CapSense_CSHL.c ****     * Side Effects:
1758:Generated_Source\PSoC4/CapSense_CSHL.c ****     *  If any sensor within the slider widget is active, the function returns values
1759:Generated_Source\PSoC4/CapSense_CSHL.c ****     *  from zero to the API resolution value set in the CapSense customizer. If no
1760:Generated_Source\PSoC4/CapSense_CSHL.c ****     *  sensors are active, the function returns 0xFFFF. If an error occurs during
1761:Generated_Source\PSoC4/CapSense_CSHL.c ****     *  execution of the centroid/diplexing algorithm, the function returns 0xFFFF.
1762:Generated_Source\PSoC4/CapSense_CSHL.c ****     *  There are no checks of the widget type argument provided to this function.
1763:Generated_Source\PSoC4/CapSense_CSHL.c ****     *  The unproper widget type provided will cause unexpected position calculations.
1764:Generated_Source\PSoC4/CapSense_CSHL.c ****     *
1765:Generated_Source\PSoC4/CapSense_CSHL.c ****     * Note:
1766:Generated_Source\PSoC4/CapSense_CSHL.c ****     *  If noise counts on the slider segments are greater than the noise
1767:Generated_Source\PSoC4/CapSense_CSHL.c ****     *  threshold, this subroutine may generate a false centroid result. The noise
1768:Generated_Source\PSoC4/CapSense_CSHL.c ****     *  threshold should be set carefully (high enough above the noise level) so
ARM GAS  C:\Users\TERENC~1\AppData\Local\Temp\ccjR28lu.s 			page 55


1769:Generated_Source\PSoC4/CapSense_CSHL.c ****     *  that noise will not generate a false centroid.
1770:Generated_Source\PSoC4/CapSense_CSHL.c ****     *******************************************************************************/
1771:Generated_Source\PSoC4/CapSense_CSHL.c ****     uint16 CapSense_GetCentroidPos(uint32 widget)
1772:Generated_Source\PSoC4/CapSense_CSHL.c ****     {
 1298              		.loc 1 1772 0
 1299              		.cfi_startproc
 1300              		@ args = 0, pretend = 0, frame = 0
 1301              		@ frame_needed = 0, uses_anonymous_args = 0
 1302              	.LVL146:
 1303 0000 70B5     		push	{r4, r5, r6, lr}
 1304              		.cfi_def_cfa_offset 16
 1305              		.cfi_offset 4, -16
 1306              		.cfi_offset 5, -12
 1307              		.cfi_offset 6, -8
 1308              		.cfi_offset 14, -4
 1309 0002 82B0     		sub	sp, sp, #8
 1310              		.cfi_def_cfa_offset 24
 1311 0004 0400     		movs	r4, r0
1773:Generated_Source\PSoC4/CapSense_CSHL.c ****         #if (CapSense_IS_DIPLEX_SLIDER)
1774:Generated_Source\PSoC4/CapSense_CSHL.c ****             const uint8 *diplex;
1775:Generated_Source\PSoC4/CapSense_CSHL.c ****         #endif /* (CapSense_IS_DIPLEX_SLIDER) */
1776:Generated_Source\PSoC4/CapSense_CSHL.c **** 
1777:Generated_Source\PSoC4/CapSense_CSHL.c ****         #if (0u != CapSense_LINEAR_SLIDERS_POS_FILTERS_MASK)
1778:Generated_Source\PSoC4/CapSense_CSHL.c ****             uint8 posIndex;
1779:Generated_Source\PSoC4/CapSense_CSHL.c ****             uint8 firstTimeIndex = CapSense_posFiltersData[widget];
1780:Generated_Source\PSoC4/CapSense_CSHL.c ****             uint8 posFiltersMask = CapSense_posFiltersMask[widget];
1781:Generated_Source\PSoC4/CapSense_CSHL.c ****         #endif /* (0u != CapSense_LINEAR_SLIDERS_POS_FILTERS_MASK) */
1782:Generated_Source\PSoC4/CapSense_CSHL.c **** 
1783:Generated_Source\PSoC4/CapSense_CSHL.c ****         #if ((0u != (CapSense_MEDIAN_FILTER & CapSense_LINEAR_SLIDERS_POS_FILTERS_MASK)) || \
1784:Generated_Source\PSoC4/CapSense_CSHL.c ****              (0u != (CapSense_AVERAGING_FILTER & CapSense_LINEAR_SLIDERS_POS_FILTERS_MASK)))
1785:Generated_Source\PSoC4/CapSense_CSHL.c ****             uint8 tempPos;
1786:Generated_Source\PSoC4/CapSense_CSHL.c ****         #endif /* ((0u != (CapSense_MEDIAN_FILTER & CapSense_LINEAR_SLIDERS_POS_FILTERS_MASK)) || \
1787:Generated_Source\PSoC4/CapSense_CSHL.c ****                *   (0u != (CapSense_AVERAGING_FILTER & CapSense_LINEAR_SLIDERS_POS_FILTERS_MASK)))
1788:Generated_Source\PSoC4/CapSense_CSHL.c ****                */
1789:Generated_Source\PSoC4/CapSense_CSHL.c **** 
1790:Generated_Source\PSoC4/CapSense_CSHL.c ****         uint8 maximum;
1791:Generated_Source\PSoC4/CapSense_CSHL.c ****         uint16 position;
1792:Generated_Source\PSoC4/CapSense_CSHL.c ****         uint8 offset = CapSense_rawDataIndex[widget];
 1312              		.loc 1 1792 0
 1313 0006 0D4B     		ldr	r3, .L108
 1314 0008 1D5C     		ldrb	r5, [r3, r0]
 1315              	.LVL147:
1793:Generated_Source\PSoC4/CapSense_CSHL.c ****         uint8 count = CapSense_numberOfSensors[widget];
 1316              		.loc 1 1793 0
 1317 000a 1B18     		adds	r3, r3, r0
 1318 000c 1E7A     		ldrb	r6, [r3, #8]
 1319              	.LVL148:
1794:Generated_Source\PSoC4/CapSense_CSHL.c **** 
1795:Generated_Source\PSoC4/CapSense_CSHL.c ****         #if (CapSense_IS_DIPLEX_SLIDER)
1796:Generated_Source\PSoC4/CapSense_CSHL.c ****             if(widget < CapSense_TOTAL_DIPLEXED_SLIDERS_COUNT)
1797:Generated_Source\PSoC4/CapSense_CSHL.c ****             {
1798:Generated_Source\PSoC4/CapSense_CSHL.c ****                 maximum = CapSense_diplexTable[widget];
1799:Generated_Source\PSoC4/CapSense_CSHL.c ****                 diplex = &CapSense_diplexTable[maximum];
1800:Generated_Source\PSoC4/CapSense_CSHL.c ****             }
1801:Generated_Source\PSoC4/CapSense_CSHL.c ****             else
1802:Generated_Source\PSoC4/CapSense_CSHL.c ****             {
1803:Generated_Source\PSoC4/CapSense_CSHL.c ****                 diplex = 0u;
ARM GAS  C:\Users\TERENC~1\AppData\Local\Temp\ccjR28lu.s 			page 56


1804:Generated_Source\PSoC4/CapSense_CSHL.c ****             }
1805:Generated_Source\PSoC4/CapSense_CSHL.c ****         #endif /* (CapSense_IS_DIPLEX_SLIDER) */
1806:Generated_Source\PSoC4/CapSense_CSHL.c **** 
1807:Generated_Source\PSoC4/CapSense_CSHL.c ****         /* Find Maximum within centroid */
1808:Generated_Source\PSoC4/CapSense_CSHL.c ****         #if (CapSense_IS_DIPLEX_SLIDER)
1809:Generated_Source\PSoC4/CapSense_CSHL.c ****             maximum = CapSense_FindMaximum(offset, count, (uint8)CapSense_fingerThreshold[widget], 
1810:Generated_Source\PSoC4/CapSense_CSHL.c ****         #else
1811:Generated_Source\PSoC4/CapSense_CSHL.c ****             maximum = CapSense_FindMaximum(offset, count, (uint8)CapSense_fingerThreshold[widget]);
 1320              		.loc 1 1811 0
 1321 000e 0C4B     		ldr	r3, .L108+4
 1322 0010 1B18     		adds	r3, r3, r0
 1323 0012 1A7A     		ldrb	r2, [r3, #8]
 1324 0014 3100     		movs	r1, r6
 1325 0016 2800     		movs	r0, r5
 1326              	.LVL149:
 1327 0018 FFF7FEFF 		bl	CapSense_FindMaximum
 1328              	.LVL150:
1812:Generated_Source\PSoC4/CapSense_CSHL.c ****         #endif /* (CapSense_IS_DIPLEX_SLIDER) */
1813:Generated_Source\PSoC4/CapSense_CSHL.c **** 
1814:Generated_Source\PSoC4/CapSense_CSHL.c ****         if (maximum != 0xFFu)
 1329              		.loc 1 1814 0
 1330 001c FF28     		cmp	r0, #255
 1331 001e 0AD0     		beq	.L107
1815:Generated_Source\PSoC4/CapSense_CSHL.c ****         {
1816:Generated_Source\PSoC4/CapSense_CSHL.c ****             /* Calculate centroid */
1817:Generated_Source\PSoC4/CapSense_CSHL.c ****             position = (uint16) CapSense_CalcCentroid(maximum,
 1332              		.loc 1 1817 0
 1333 0020 084B     		ldr	r3, .L108+8
 1334 0022 1B5D     		ldrb	r3, [r3, r4]
 1335 0024 0093     		str	r3, [sp]
 1336 0026 C823     		movs	r3, #200
 1337 0028 5B01     		lsls	r3, r3, #5
 1338 002a 3200     		movs	r2, r6
 1339 002c 2900     		movs	r1, r5
 1340 002e FFF7FEFF 		bl	CapSense_CalcCentroid
 1341              	.LVL151:
 1342 0032 80B2     		uxth	r0, r0
 1343              	.LVL152:
 1344 0034 00E0     		b	.L106
 1345              	.LVL153:
 1346              	.L107:
1818:Generated_Source\PSoC4/CapSense_CSHL.c ****                          offset, count, CapSense_centroidMult[widget], CapSense_noiseThreshold[widg
1819:Generated_Source\PSoC4/CapSense_CSHL.c **** 
1820:Generated_Source\PSoC4/CapSense_CSHL.c ****             #if (0u != CapSense_LINEAR_SLIDERS_POS_FILTERS_MASK)
1821:Generated_Source\PSoC4/CapSense_CSHL.c ****                 /* Check if this linear slider has enabled filters */
1822:Generated_Source\PSoC4/CapSense_CSHL.c ****                 if (0u != (posFiltersMask & CapSense_ANY_POS_FILTER))
1823:Generated_Source\PSoC4/CapSense_CSHL.c ****                 {
1824:Generated_Source\PSoC4/CapSense_CSHL.c ****                     /* Calculate position to store filters data */
1825:Generated_Source\PSoC4/CapSense_CSHL.c ****                     posIndex  = firstTimeIndex + 1u;
1826:Generated_Source\PSoC4/CapSense_CSHL.c **** 
1827:Generated_Source\PSoC4/CapSense_CSHL.c ****                     if (0u == CapSense_posFiltersData[firstTimeIndex])
1828:Generated_Source\PSoC4/CapSense_CSHL.c ****                     {
1829:Generated_Source\PSoC4/CapSense_CSHL.c ****                         /* Init filters */
1830:Generated_Source\PSoC4/CapSense_CSHL.c ****                         CapSense_posFiltersData[posIndex] = (uint8) position;
1831:Generated_Source\PSoC4/CapSense_CSHL.c ****                         #if ((0u != (CapSense_MEDIAN_FILTER & \
1832:Generated_Source\PSoC4/CapSense_CSHL.c ****                                      CapSense_LINEAR_SLIDERS_POS_FILTERS_MASK)) || \
1833:Generated_Source\PSoC4/CapSense_CSHL.c ****                              (0u != (CapSense_AVERAGING_FILTER & \
ARM GAS  C:\Users\TERENC~1\AppData\Local\Temp\ccjR28lu.s 			page 57


1834:Generated_Source\PSoC4/CapSense_CSHL.c ****                                      CapSense_LINEAR_SLIDERS_POS_FILTERS_MASK)))
1835:Generated_Source\PSoC4/CapSense_CSHL.c **** 
1836:Generated_Source\PSoC4/CapSense_CSHL.c ****                             if ( (0u != (posFiltersMask & CapSense_MEDIAN_FILTER)) ||
1837:Generated_Source\PSoC4/CapSense_CSHL.c ****                                  (0u != (posFiltersMask & CapSense_AVERAGING_FILTER)) )
1838:Generated_Source\PSoC4/CapSense_CSHL.c ****                             {
1839:Generated_Source\PSoC4/CapSense_CSHL.c ****                                 CapSense_posFiltersData[posIndex + 1u] = (uint8) position;
1840:Generated_Source\PSoC4/CapSense_CSHL.c ****                             }
1841:Generated_Source\PSoC4/CapSense_CSHL.c ****                         #endif /* ((0u != (CapSense_MEDIAN_FILTER & \
1842:Generated_Source\PSoC4/CapSense_CSHL.c ****                                *           CapSense_LINEAR_SLIDERS_POS_FILTERS_MASK)) || \
1843:Generated_Source\PSoC4/CapSense_CSHL.c ****                                *   (0u != (CapSense_AVERAGING_FILTER & \
1844:Generated_Source\PSoC4/CapSense_CSHL.c ****                                *           CapSense_LINEAR_SLIDERS_POS_FILTERS_MASK)))
1845:Generated_Source\PSoC4/CapSense_CSHL.c ****                                */
1846:Generated_Source\PSoC4/CapSense_CSHL.c **** 
1847:Generated_Source\PSoC4/CapSense_CSHL.c ****                         CapSense_posFiltersData[firstTimeIndex] = 1u;
1848:Generated_Source\PSoC4/CapSense_CSHL.c ****                     }
1849:Generated_Source\PSoC4/CapSense_CSHL.c ****                     else
1850:Generated_Source\PSoC4/CapSense_CSHL.c ****                     {
1851:Generated_Source\PSoC4/CapSense_CSHL.c ****                         /* Do filtering */
1852:Generated_Source\PSoC4/CapSense_CSHL.c ****                         #if (0u != (CapSense_MEDIAN_FILTER & CapSense_LINEAR_SLIDERS_POS_FILTERS_MA
1853:Generated_Source\PSoC4/CapSense_CSHL.c ****                             if (0u != (posFiltersMask & CapSense_MEDIAN_FILTER))
1854:Generated_Source\PSoC4/CapSense_CSHL.c ****                             {
1855:Generated_Source\PSoC4/CapSense_CSHL.c ****                                 tempPos = (uint8) position;
1856:Generated_Source\PSoC4/CapSense_CSHL.c ****                                 position = CapSense_MedianFilter(position,
1857:Generated_Source\PSoC4/CapSense_CSHL.c ****                                                                 (uint16)CapSense_posFiltersData[pos
1858:Generated_Source\PSoC4/CapSense_CSHL.c ****                                                                 (uint16)CapSense_posFiltersData[pos
1859:Generated_Source\PSoC4/CapSense_CSHL.c ****                                 CapSense_posFiltersData[posIndex + 1u] =
1860:Generated_Source\PSoC4/CapSense_CSHL.c ****                                                                              CapSense_posFiltersDat
1861:Generated_Source\PSoC4/CapSense_CSHL.c ****                                 CapSense_posFiltersData[posIndex] = tempPos;
1862:Generated_Source\PSoC4/CapSense_CSHL.c ****                             }
1863:Generated_Source\PSoC4/CapSense_CSHL.c ****                         #endif /*(0u != (CapSense_MEDIAN_FILTER &
1864:Generated_Source\PSoC4/CapSense_CSHL.c ****                                *         CapSense_LINEAR_SLIDERS_POS_FILTERS_MASK))
1865:Generated_Source\PSoC4/CapSense_CSHL.c ****                                */
1866:Generated_Source\PSoC4/CapSense_CSHL.c **** 
1867:Generated_Source\PSoC4/CapSense_CSHL.c ****                         #if(0u!=(CapSense_AVERAGING_FILTER & CapSense_LINEAR_SLIDERS_POS_FILTERS_MA
1868:Generated_Source\PSoC4/CapSense_CSHL.c ****                             if (0u != (posFiltersMask & CapSense_AVERAGING_FILTER))
1869:Generated_Source\PSoC4/CapSense_CSHL.c ****                             {
1870:Generated_Source\PSoC4/CapSense_CSHL.c ****                                 tempPos = (uint8) position;
1871:Generated_Source\PSoC4/CapSense_CSHL.c ****                                 position = CapSense_AveragingFilter(position,
1872:Generated_Source\PSoC4/CapSense_CSHL.c ****                                                                 (uint16)CapSense_posFiltersData[pos
1873:Generated_Source\PSoC4/CapSense_CSHL.c ****                                                                 (uint16)CapSense_posFiltersData[pos
1874:Generated_Source\PSoC4/CapSense_CSHL.c ****                                 CapSense_posFiltersData[posIndex+1u]=CapSense_posFiltersData[posInd
1875:Generated_Source\PSoC4/CapSense_CSHL.c ****                                 CapSense_posFiltersData[posIndex] = tempPos;
1876:Generated_Source\PSoC4/CapSense_CSHL.c ****                             }
1877:Generated_Source\PSoC4/CapSense_CSHL.c ****                         #endif /* (0u != (CapSense_AVERAGING_FILTER & \
1878:Generated_Source\PSoC4/CapSense_CSHL.c ****                                *           CapSense_LINEAR_SLIDERS_POS_FILTERS_MASK))
1879:Generated_Source\PSoC4/CapSense_CSHL.c ****                                */
1880:Generated_Source\PSoC4/CapSense_CSHL.c **** 
1881:Generated_Source\PSoC4/CapSense_CSHL.c ****                         #if (0u != (CapSense_IIR2_FILTER & CapSense_LINEAR_SLIDERS_POS_FILTERS_MASK
1882:Generated_Source\PSoC4/CapSense_CSHL.c ****                             if (0u != (posFiltersMask & CapSense_IIR2_FILTER))
1883:Generated_Source\PSoC4/CapSense_CSHL.c ****                             {
1884:Generated_Source\PSoC4/CapSense_CSHL.c ****                                 position = CapSense_IIR2Filter(position,
1885:Generated_Source\PSoC4/CapSense_CSHL.c ****                                                                     (uint16)CapSense_posFiltersData
1886:Generated_Source\PSoC4/CapSense_CSHL.c ****                                 CapSense_posFiltersData[posIndex] = (uint8) position;
1887:Generated_Source\PSoC4/CapSense_CSHL.c ****                             }
1888:Generated_Source\PSoC4/CapSense_CSHL.c ****                         #endif /* (0u != (CapSense_IIR2_FILTER & \
1889:Generated_Source\PSoC4/CapSense_CSHL.c ****                                *          CapSense_LINEAR_SLIDERS_POS_FILTERS_MASK))
1890:Generated_Source\PSoC4/CapSense_CSHL.c ****                                */
ARM GAS  C:\Users\TERENC~1\AppData\Local\Temp\ccjR28lu.s 			page 58


1891:Generated_Source\PSoC4/CapSense_CSHL.c **** 
1892:Generated_Source\PSoC4/CapSense_CSHL.c ****                         #if (0u != (CapSense_IIR4_FILTER & CapSense_LINEAR_SLIDERS_POS_FILTERS_MASK
1893:Generated_Source\PSoC4/CapSense_CSHL.c ****                             if (0u != (posFiltersMask & CapSense_IIR4_FILTER))
1894:Generated_Source\PSoC4/CapSense_CSHL.c ****                             {
1895:Generated_Source\PSoC4/CapSense_CSHL.c ****                                 position = CapSense_IIR4Filter(position,
1896:Generated_Source\PSoC4/CapSense_CSHL.c ****                                                                     (uint16)CapSense_posFiltersData
1897:Generated_Source\PSoC4/CapSense_CSHL.c ****                                 CapSense_posFiltersData[posIndex] = (uint8) position;
1898:Generated_Source\PSoC4/CapSense_CSHL.c ****                             }
1899:Generated_Source\PSoC4/CapSense_CSHL.c ****                         #endif /* (0u != (CapSense_IIR4_FILTER & \
1900:Generated_Source\PSoC4/CapSense_CSHL.c ****                                *          CapSense_LINEAR_SLIDERS_POS_FILTERS_MASK))
1901:Generated_Source\PSoC4/CapSense_CSHL.c ****                                */
1902:Generated_Source\PSoC4/CapSense_CSHL.c **** 
1903:Generated_Source\PSoC4/CapSense_CSHL.c ****                         #if (0u != (CapSense_JITTER_FILTER & CapSense_LINEAR_SLIDERS_POS_FILTERS_MA
1904:Generated_Source\PSoC4/CapSense_CSHL.c ****                             if (0u != (posFiltersMask & CapSense_JITTER_FILTER))
1905:Generated_Source\PSoC4/CapSense_CSHL.c ****                             {
1906:Generated_Source\PSoC4/CapSense_CSHL.c ****                                 position = CapSense_JitterFilter(position,
1907:Generated_Source\PSoC4/CapSense_CSHL.c ****                                                                     (uint16)CapSense_posFiltersData
1908:Generated_Source\PSoC4/CapSense_CSHL.c ****                                 CapSense_posFiltersData[posIndex] = (uint8) position;
1909:Generated_Source\PSoC4/CapSense_CSHL.c ****                             }
1910:Generated_Source\PSoC4/CapSense_CSHL.c ****                         #endif /* (0u != (CapSense_JITTER_FILTER & \
1911:Generated_Source\PSoC4/CapSense_CSHL.c ****                                *           CapSense_LINEAR_SLIDERS_POS_FILTERS_MASK))
1912:Generated_Source\PSoC4/CapSense_CSHL.c ****                                */
1913:Generated_Source\PSoC4/CapSense_CSHL.c ****                     }
1914:Generated_Source\PSoC4/CapSense_CSHL.c ****                 }
1915:Generated_Source\PSoC4/CapSense_CSHL.c ****             #endif /* (0u != CapSense_LINEAR_SLIDERS_POS_FILTERS_MASK) */
1916:Generated_Source\PSoC4/CapSense_CSHL.c **** 
1917:Generated_Source\PSoC4/CapSense_CSHL.c ****         }
1918:Generated_Source\PSoC4/CapSense_CSHL.c ****         else
1919:Generated_Source\PSoC4/CapSense_CSHL.c ****         {
1920:Generated_Source\PSoC4/CapSense_CSHL.c ****             /* Maximum wasn't found */
1921:Generated_Source\PSoC4/CapSense_CSHL.c ****             position = 0xFFFFu;
 1347              		.loc 1 1921 0
 1348 0036 0448     		ldr	r0, .L108+12
 1349              	.LVL154:
 1350              	.L106:
1922:Generated_Source\PSoC4/CapSense_CSHL.c **** 
1923:Generated_Source\PSoC4/CapSense_CSHL.c ****             #if(0u != CapSense_LINEAR_SLIDERS_POS_FILTERS_MASK)
1924:Generated_Source\PSoC4/CapSense_CSHL.c ****                 /* Reset filters */
1925:Generated_Source\PSoC4/CapSense_CSHL.c ****                 if(0u != (posFiltersMask & CapSense_ANY_POS_FILTER))
1926:Generated_Source\PSoC4/CapSense_CSHL.c ****                 {
1927:Generated_Source\PSoC4/CapSense_CSHL.c ****                     CapSense_posFiltersData[firstTimeIndex] = 0u;
1928:Generated_Source\PSoC4/CapSense_CSHL.c ****                 }
1929:Generated_Source\PSoC4/CapSense_CSHL.c ****             #endif /* (0u != CapSense_LINEAR_SLIDERS_POS_FILTERS_MASK) */
1930:Generated_Source\PSoC4/CapSense_CSHL.c ****         }
1931:Generated_Source\PSoC4/CapSense_CSHL.c **** 
1932:Generated_Source\PSoC4/CapSense_CSHL.c **** 
1933:Generated_Source\PSoC4/CapSense_CSHL.c ****         return (position);
1934:Generated_Source\PSoC4/CapSense_CSHL.c ****     }
 1351              		.loc 1 1934 0
 1352 0038 02B0     		add	sp, sp, #8
 1353              		@ sp needed
 1354              	.LVL155:
 1355              	.LVL156:
 1356              	.LVL157:
 1357 003a 70BD     		pop	{r4, r5, r6, pc}
 1358              	.L109:
 1359              		.align	2
ARM GAS  C:\Users\TERENC~1\AppData\Local\Temp\ccjR28lu.s 			page 59


 1360              	.L108:
 1361 003c 00000000 		.word	.LANCHOR2
 1362 0040 00000000 		.word	.LANCHOR1
 1363 0044 00000000 		.word	CapSense_noiseThreshold
 1364 0048 FFFF0000 		.word	65535
 1365              		.cfi_endproc
 1366              	.LFE62:
 1367              		.size	CapSense_GetCentroidPos, .-CapSense_GetCentroidPos
 1368              		.section	.text.CapSense_MedianFilter,"ax",%progbits
 1369              		.align	2
 1370              		.global	CapSense_MedianFilter
 1371              		.code	16
 1372              		.thumb_func
 1373              		.type	CapSense_MedianFilter, %function
 1374              	CapSense_MedianFilter:
 1375              	.LFB64:
1935:Generated_Source\PSoC4/CapSense_CSHL.c **** #endif /* ((CapSense_TOTAL_RADIAL_SLIDERS_COUNT > 0u) || (CapSense_TOTAL_LINEAR_SLIDERS_COUNT > 0u)
1936:Generated_Source\PSoC4/CapSense_CSHL.c **** 
1937:Generated_Source\PSoC4/CapSense_CSHL.c **** 
1938:Generated_Source\PSoC4/CapSense_CSHL.c **** #if((CapSense_TOTAL_RADIAL_SLIDERS_COUNT > 0u) || (CapSense_TOTAL_LINEAR_SLIDERS_COUNT > 0u))
1939:Generated_Source\PSoC4/CapSense_CSHL.c ****     /*******************************************************************************
1940:Generated_Source\PSoC4/CapSense_CSHL.c ****     * Function Name: CapSense_GetRadialCentroidPos
1941:Generated_Source\PSoC4/CapSense_CSHL.c ****     ********************************************************************************
1942:Generated_Source\PSoC4/CapSense_CSHL.c ****     *
1943:Generated_Source\PSoC4/CapSense_CSHL.c ****     * Summary:
1944:Generated_Source\PSoC4/CapSense_CSHL.c ****     *  Checks the CapSense_Signal[ ] array for a centroid within
1945:Generated_Source\PSoC4/CapSense_CSHL.c ****     *  a slider specified range. The centroid position is calculated according to the resolution
1946:Generated_Source\PSoC4/CapSense_CSHL.c ****     *  specified in the CapSense customizer. The position filters are applied to the
1947:Generated_Source\PSoC4/CapSense_CSHL.c ****     *  result if enabled.
1948:Generated_Source\PSoC4/CapSense_CSHL.c ****     *
1949:Generated_Source\PSoC4/CapSense_CSHL.c ****     * Parameters:
1950:Generated_Source\PSoC4/CapSense_CSHL.c ****     *  widget:  Widget number.
1951:Generated_Source\PSoC4/CapSense_CSHL.c ****     *  For every radial slider widget there are defines in this format:
1952:Generated_Source\PSoC4/CapSense_CSHL.c ****     *  #define CapSense_"widget_name"__RS           5
1953:Generated_Source\PSoC4/CapSense_CSHL.c ****     *
1954:Generated_Source\PSoC4/CapSense_CSHL.c ****     * Return:
1955:Generated_Source\PSoC4/CapSense_CSHL.c ****     *  Returns a position value of the radial slider.
1956:Generated_Source\PSoC4/CapSense_CSHL.c ****     *
1957:Generated_Source\PSoC4/CapSense_CSHL.c ****     * Global Variables:
1958:Generated_Source\PSoC4/CapSense_CSHL.c ****     *  None.
1959:Generated_Source\PSoC4/CapSense_CSHL.c ****     *
1960:Generated_Source\PSoC4/CapSense_CSHL.c ****     * Side Effects:
1961:Generated_Source\PSoC4/CapSense_CSHL.c ****     *  If any sensor within the slider widget is active, the function returns values
1962:Generated_Source\PSoC4/CapSense_CSHL.c ****     *  from zero to the API resolution value set in the CapSense customizer. If no
1963:Generated_Source\PSoC4/CapSense_CSHL.c ****     *  sensors are active, the function returns 0xFFFF.
1964:Generated_Source\PSoC4/CapSense_CSHL.c ****     *  There are no checks of the widget type argument provided to this function.
1965:Generated_Source\PSoC4/CapSense_CSHL.c ****     *  The unproper widget type provided will cause unexpected position calculations.
1966:Generated_Source\PSoC4/CapSense_CSHL.c ****     *
1967:Generated_Source\PSoC4/CapSense_CSHL.c ****     * Note:
1968:Generated_Source\PSoC4/CapSense_CSHL.c ****     *  If noise counts on the slider segments are greater than the noise
1969:Generated_Source\PSoC4/CapSense_CSHL.c ****     *  threshold, this subroutine may generate a false centroid result. The noise
1970:Generated_Source\PSoC4/CapSense_CSHL.c ****     *  threshold should be set carefully (high enough above the noise level) so
1971:Generated_Source\PSoC4/CapSense_CSHL.c ****     *  that noise will not generate a false centroid.
1972:Generated_Source\PSoC4/CapSense_CSHL.c ****     *
1973:Generated_Source\PSoC4/CapSense_CSHL.c ****     *******************************************************************************/
1974:Generated_Source\PSoC4/CapSense_CSHL.c ****      uint16 CapSense_GetRadialCentroidPos(uint32 widget)
1975:Generated_Source\PSoC4/CapSense_CSHL.c ****     {
ARM GAS  C:\Users\TERENC~1\AppData\Local\Temp\ccjR28lu.s 			page 60


1976:Generated_Source\PSoC4/CapSense_CSHL.c ****         #if (0u != CapSense_RADIAL_SLIDERS_POS_FILTERS_MASK)
1977:Generated_Source\PSoC4/CapSense_CSHL.c ****             uint8 posIndex;
1978:Generated_Source\PSoC4/CapSense_CSHL.c ****             uint8 firstTimeIndex = CapSense_posFiltersData[widget];
1979:Generated_Source\PSoC4/CapSense_CSHL.c ****             uint8 posFiltersMask = CapSense_posFiltersMask[widget];
1980:Generated_Source\PSoC4/CapSense_CSHL.c ****         #endif /* (0u != CapSense_RADIAL_SLIDERS_POS_FILTERS_MASK) */
1981:Generated_Source\PSoC4/CapSense_CSHL.c **** 
1982:Generated_Source\PSoC4/CapSense_CSHL.c ****         #if ((0u != (CapSense_MEDIAN_FILTER & CapSense_RADIAL_SLIDERS_POS_FILTERS_MASK)) || \
1983:Generated_Source\PSoC4/CapSense_CSHL.c ****              (0u != (CapSense_AVERAGING_FILTER & CapSense_RADIAL_SLIDERS_POS_FILTERS_MASK)))
1984:Generated_Source\PSoC4/CapSense_CSHL.c ****             uint8 tempPos;
1985:Generated_Source\PSoC4/CapSense_CSHL.c ****         #endif /* ((0u != (CapSense_MEDIAN_FILTER & CapSense_RADIAL_SLIDERS_POS_FILTERS_MASK)) || \
1986:Generated_Source\PSoC4/CapSense_CSHL.c ****                *   (0u != (CapSense_AVERAGING_FILTER & CapSense_RADIAL_SLIDERS_POS_FILTERS_MASK)))
1987:Generated_Source\PSoC4/CapSense_CSHL.c ****                */
1988:Generated_Source\PSoC4/CapSense_CSHL.c **** 
1989:Generated_Source\PSoC4/CapSense_CSHL.c ****         uint8 maximum;
1990:Generated_Source\PSoC4/CapSense_CSHL.c ****         uint16 position;
1991:Generated_Source\PSoC4/CapSense_CSHL.c ****         uint8 offset = CapSense_rawDataIndex[widget];
1992:Generated_Source\PSoC4/CapSense_CSHL.c ****         uint8 count = CapSense_numberOfSensors[widget];
1993:Generated_Source\PSoC4/CapSense_CSHL.c **** 
1994:Generated_Source\PSoC4/CapSense_CSHL.c ****         /* Find Maximum within centroid */
1995:Generated_Source\PSoC4/CapSense_CSHL.c ****         #if (CapSense_IS_DIPLEX_SLIDER)
1996:Generated_Source\PSoC4/CapSense_CSHL.c ****             maximum = CapSense_FindMaximum(offset, count, (uint8)CapSense_fingerThreshold[widget], 
1997:Generated_Source\PSoC4/CapSense_CSHL.c ****         #else
1998:Generated_Source\PSoC4/CapSense_CSHL.c ****             maximum = CapSense_FindMaximum(offset, count, (uint8)CapSense_fingerThreshold[widget]);
1999:Generated_Source\PSoC4/CapSense_CSHL.c ****         #endif /* (CapSense_IS_DIPLEX_SLIDER) */
2000:Generated_Source\PSoC4/CapSense_CSHL.c **** 
2001:Generated_Source\PSoC4/CapSense_CSHL.c ****         if (maximum != CapSense_MAXIMUM_CENTROID)
2002:Generated_Source\PSoC4/CapSense_CSHL.c ****         {
2003:Generated_Source\PSoC4/CapSense_CSHL.c ****             /* Calculate centroid */
2004:Generated_Source\PSoC4/CapSense_CSHL.c ****             position = (uint16) CapSense_CalcCentroid(maximum,
2005:Generated_Source\PSoC4/CapSense_CSHL.c ****                          offset, count, CapSense_centroidMult[widget], CapSense_noiseThreshold[widg
2006:Generated_Source\PSoC4/CapSense_CSHL.c **** 
2007:Generated_Source\PSoC4/CapSense_CSHL.c ****             #if (0u != CapSense_RADIAL_SLIDERS_POS_FILTERS_MASK)
2008:Generated_Source\PSoC4/CapSense_CSHL.c ****                 /* Check if this Radial slider has enabled filters */
2009:Generated_Source\PSoC4/CapSense_CSHL.c ****                 if (0u != (posFiltersMask & CapSense_ANY_POS_FILTER))
2010:Generated_Source\PSoC4/CapSense_CSHL.c ****                 {
2011:Generated_Source\PSoC4/CapSense_CSHL.c ****                     /* Calculate position to store filters data */
2012:Generated_Source\PSoC4/CapSense_CSHL.c ****                     posIndex  = firstTimeIndex + 1u;
2013:Generated_Source\PSoC4/CapSense_CSHL.c **** 
2014:Generated_Source\PSoC4/CapSense_CSHL.c ****                     if (0u == CapSense_posFiltersData[firstTimeIndex])
2015:Generated_Source\PSoC4/CapSense_CSHL.c ****                     {
2016:Generated_Source\PSoC4/CapSense_CSHL.c ****                         /* Init filters */
2017:Generated_Source\PSoC4/CapSense_CSHL.c ****                         CapSense_posFiltersData[posIndex] = (uint8) position;
2018:Generated_Source\PSoC4/CapSense_CSHL.c ****                         #if ((0u != (CapSense_MEDIAN_FILTER & \
2019:Generated_Source\PSoC4/CapSense_CSHL.c ****                                      CapSense_RADIAL_SLIDERS_POS_FILTERS_MASK)) || \
2020:Generated_Source\PSoC4/CapSense_CSHL.c ****                              (0u != (CapSense_AVERAGING_FILTER & \
2021:Generated_Source\PSoC4/CapSense_CSHL.c ****                                      CapSense_RADIAL_SLIDERS_POS_FILTERS_MASK)))
2022:Generated_Source\PSoC4/CapSense_CSHL.c **** 
2023:Generated_Source\PSoC4/CapSense_CSHL.c ****                             if ( (0u != (posFiltersMask & CapSense_MEDIAN_FILTER))  ||
2024:Generated_Source\PSoC4/CapSense_CSHL.c ****                                  (0u != (posFiltersMask & CapSense_AVERAGING_FILTER)) )
2025:Generated_Source\PSoC4/CapSense_CSHL.c ****                             {
2026:Generated_Source\PSoC4/CapSense_CSHL.c ****                                 CapSense_posFiltersData[posIndex + 1u] = (uint8) position;
2027:Generated_Source\PSoC4/CapSense_CSHL.c ****                             }
2028:Generated_Source\PSoC4/CapSense_CSHL.c ****                         #endif /* ((0u != (CapSense_MEDIAN_FILTER & \
2029:Generated_Source\PSoC4/CapSense_CSHL.c ****                                *           CapSense_RADIAL_SLIDERS_POS_FILTERS_MASK)) || \
2030:Generated_Source\PSoC4/CapSense_CSHL.c ****                                *   (0u != (CapSense_AVERAGING_FILTER & \
2031:Generated_Source\PSoC4/CapSense_CSHL.c ****                                *           CapSense_RADIAL_SLIDERS_POS_FILTERS_MASK)))
2032:Generated_Source\PSoC4/CapSense_CSHL.c ****                                */
ARM GAS  C:\Users\TERENC~1\AppData\Local\Temp\ccjR28lu.s 			page 61


2033:Generated_Source\PSoC4/CapSense_CSHL.c **** 
2034:Generated_Source\PSoC4/CapSense_CSHL.c ****                         CapSense_posFiltersData[firstTimeIndex] = 1u;
2035:Generated_Source\PSoC4/CapSense_CSHL.c ****                     }
2036:Generated_Source\PSoC4/CapSense_CSHL.c ****                     else
2037:Generated_Source\PSoC4/CapSense_CSHL.c ****                     {
2038:Generated_Source\PSoC4/CapSense_CSHL.c ****                         /* Do filtering */
2039:Generated_Source\PSoC4/CapSense_CSHL.c ****                         #if (0u != (CapSense_MEDIAN_FILTER & CapSense_RADIAL_SLIDERS_POS_FILTERS_MA
2040:Generated_Source\PSoC4/CapSense_CSHL.c ****                             if (0u != (posFiltersMask & CapSense_MEDIAN_FILTER))
2041:Generated_Source\PSoC4/CapSense_CSHL.c ****                             {
2042:Generated_Source\PSoC4/CapSense_CSHL.c ****                                 tempPos = (uint8) position;
2043:Generated_Source\PSoC4/CapSense_CSHL.c ****                                 position = CapSense_MedianFilter(position,
2044:Generated_Source\PSoC4/CapSense_CSHL.c ****                                                                         CapSense_posFiltersData[pos
2045:Generated_Source\PSoC4/CapSense_CSHL.c ****                                                                         CapSense_posFiltersData[pos
2046:Generated_Source\PSoC4/CapSense_CSHL.c ****                                 CapSense_posFiltersData[posIndex + 1u] =
2047:Generated_Source\PSoC4/CapSense_CSHL.c ****                                                                               CapSense_posFiltersDa
2048:Generated_Source\PSoC4/CapSense_CSHL.c ****                                 CapSense_posFiltersData[posIndex] = tempPos;
2049:Generated_Source\PSoC4/CapSense_CSHL.c ****                             }
2050:Generated_Source\PSoC4/CapSense_CSHL.c ****                         #endif /* (0u != (CapSense_MEDIAN_FILTER &
2051:Generated_Source\PSoC4/CapSense_CSHL.c ****                                *          CapSense_RADIAL_SLIDERS_POS_FILTERS_MASK))
2052:Generated_Source\PSoC4/CapSense_CSHL.c ****                                */
2053:Generated_Source\PSoC4/CapSense_CSHL.c **** 
2054:Generated_Source\PSoC4/CapSense_CSHL.c ****                         #if (0u != (CapSense_AVERAGING_FILTER & \
2055:Generated_Source\PSoC4/CapSense_CSHL.c ****                                     CapSense_RADIAL_SLIDERS_POS_FILTERS_MASK))
2056:Generated_Source\PSoC4/CapSense_CSHL.c ****                             if (0u != (posFiltersMask & CapSense_AVERAGING_FILTER))
2057:Generated_Source\PSoC4/CapSense_CSHL.c ****                             {
2058:Generated_Source\PSoC4/CapSense_CSHL.c ****                                 tempPos = (uint8) position;
2059:Generated_Source\PSoC4/CapSense_CSHL.c ****                                 position = CapSense_AveragingFilter(position,
2060:Generated_Source\PSoC4/CapSense_CSHL.c ****                                                                        CapSense_posFiltersData[posI
2061:Generated_Source\PSoC4/CapSense_CSHL.c ****                                                                        CapSense_posFiltersData[posI
2062:Generated_Source\PSoC4/CapSense_CSHL.c ****                                 CapSense_posFiltersData[posIndex+1u]= CapSense_posFiltersData[posIn
2063:Generated_Source\PSoC4/CapSense_CSHL.c ****                                 CapSense_posFiltersData[posIndex] = tempPos;
2064:Generated_Source\PSoC4/CapSense_CSHL.c ****                             }
2065:Generated_Source\PSoC4/CapSense_CSHL.c ****                         #endif /* (0u != (CapSense_AVERAGING_FILTER & \
2066:Generated_Source\PSoC4/CapSense_CSHL.c ****                                *          CapSense_RADIAL_SLIDERS_POS_FILTERS_MASK))
2067:Generated_Source\PSoC4/CapSense_CSHL.c ****                                */
2068:Generated_Source\PSoC4/CapSense_CSHL.c **** 
2069:Generated_Source\PSoC4/CapSense_CSHL.c ****                         #if (0u != (CapSense_IIR2_FILTER & CapSense_RADIAL_SLIDERS_POS_FILTERS_MASK
2070:Generated_Source\PSoC4/CapSense_CSHL.c ****                             if (0u != (posFiltersMask & CapSense_IIR2_FILTER))
2071:Generated_Source\PSoC4/CapSense_CSHL.c ****                             {
2072:Generated_Source\PSoC4/CapSense_CSHL.c ****                                 position = CapSense_IIR2Filter(position,
2073:Generated_Source\PSoC4/CapSense_CSHL.c ****                                                                     (uint16)CapSense_posFiltersData
2074:Generated_Source\PSoC4/CapSense_CSHL.c ****                                 CapSense_posFiltersData[posIndex] = (uint8) position;
2075:Generated_Source\PSoC4/CapSense_CSHL.c ****                             }
2076:Generated_Source\PSoC4/CapSense_CSHL.c ****                         #endif /* (0u != (CapSense_IIR2_FILTER &
2077:Generated_Source\PSoC4/CapSense_CSHL.c ****                                *          CapSense_RADIAL_SLIDERS_POS_FILTERS_MASK))
2078:Generated_Source\PSoC4/CapSense_CSHL.c ****                                */
2079:Generated_Source\PSoC4/CapSense_CSHL.c **** 
2080:Generated_Source\PSoC4/CapSense_CSHL.c ****                         #if (0u != (CapSense_IIR4_FILTER & CapSense_RADIAL_SLIDERS_POS_FILTERS_MASK
2081:Generated_Source\PSoC4/CapSense_CSHL.c ****                             if (0u != (posFiltersMask & CapSense_IIR4_FILTER))
2082:Generated_Source\PSoC4/CapSense_CSHL.c ****                             {
2083:Generated_Source\PSoC4/CapSense_CSHL.c ****                                 position = CapSense_IIR4Filter(position,
2084:Generated_Source\PSoC4/CapSense_CSHL.c ****                                                                     (uint16)CapSense_posFiltersData
2085:Generated_Source\PSoC4/CapSense_CSHL.c ****                                 CapSense_posFiltersData[posIndex] = (uint8) position;
2086:Generated_Source\PSoC4/CapSense_CSHL.c ****                             }
2087:Generated_Source\PSoC4/CapSense_CSHL.c ****                         #endif /* (0u != (CapSense_IIR4_FILTER &
2088:Generated_Source\PSoC4/CapSense_CSHL.c ****                                *          CapSense_RADIAL_SLIDERS_POS_FILTERS_MASK))
2089:Generated_Source\PSoC4/CapSense_CSHL.c ****                                */
ARM GAS  C:\Users\TERENC~1\AppData\Local\Temp\ccjR28lu.s 			page 62


2090:Generated_Source\PSoC4/CapSense_CSHL.c **** 
2091:Generated_Source\PSoC4/CapSense_CSHL.c ****                         #if (0u != (CapSense_JITTER_FILTER & CapSense_RADIAL_SLIDERS_POS_FILTERS_MA
2092:Generated_Source\PSoC4/CapSense_CSHL.c ****                             if (0u != (posFiltersMask & CapSense_JITTER_FILTER))
2093:Generated_Source\PSoC4/CapSense_CSHL.c ****                             {
2094:Generated_Source\PSoC4/CapSense_CSHL.c ****                                 position = CapSense_JitterFilter(position,
2095:Generated_Source\PSoC4/CapSense_CSHL.c ****                                                                          CapSense_posFiltersData[po
2096:Generated_Source\PSoC4/CapSense_CSHL.c ****                                 CapSense_posFiltersData[posIndex] = (uint8) position;
2097:Generated_Source\PSoC4/CapSense_CSHL.c ****                             }
2098:Generated_Source\PSoC4/CapSense_CSHL.c ****                         #endif /* (0u != (CapSense_JITTER_FILTER &
2099:Generated_Source\PSoC4/CapSense_CSHL.c ****                                *           CapSense_RADIAL_SLIDERS_POS_FILTERS_MASK))
2100:Generated_Source\PSoC4/CapSense_CSHL.c ****                                */
2101:Generated_Source\PSoC4/CapSense_CSHL.c ****                     }
2102:Generated_Source\PSoC4/CapSense_CSHL.c ****                 }
2103:Generated_Source\PSoC4/CapSense_CSHL.c ****             #endif /* (0u != CapSense_RADIAL_SLIDERS_POS_FILTERS_MASK) */
2104:Generated_Source\PSoC4/CapSense_CSHL.c **** 
2105:Generated_Source\PSoC4/CapSense_CSHL.c ****         }
2106:Generated_Source\PSoC4/CapSense_CSHL.c ****         else
2107:Generated_Source\PSoC4/CapSense_CSHL.c ****         {
2108:Generated_Source\PSoC4/CapSense_CSHL.c ****             /* Maximum was not found */
2109:Generated_Source\PSoC4/CapSense_CSHL.c ****             position = 0xFFFFu;
2110:Generated_Source\PSoC4/CapSense_CSHL.c **** 
2111:Generated_Source\PSoC4/CapSense_CSHL.c ****             #if (0u != CapSense_RADIAL_SLIDERS_POS_FILTERS_MASK)
2112:Generated_Source\PSoC4/CapSense_CSHL.c ****                 /* Reset filters */
2113:Generated_Source\PSoC4/CapSense_CSHL.c ****                 if((posFiltersMask & CapSense_ANY_POS_FILTER) != 0u)
2114:Generated_Source\PSoC4/CapSense_CSHL.c ****                 {
2115:Generated_Source\PSoC4/CapSense_CSHL.c ****                     CapSense_posFiltersData[firstTimeIndex] = 0u;
2116:Generated_Source\PSoC4/CapSense_CSHL.c ****                 }
2117:Generated_Source\PSoC4/CapSense_CSHL.c ****             #endif /* (0u != CapSense_RADIAL_SLIDERS_POS_FILTERS_MASK) */
2118:Generated_Source\PSoC4/CapSense_CSHL.c ****         }
2119:Generated_Source\PSoC4/CapSense_CSHL.c **** 
2120:Generated_Source\PSoC4/CapSense_CSHL.c ****         return (position);
2121:Generated_Source\PSoC4/CapSense_CSHL.c ****     }
2122:Generated_Source\PSoC4/CapSense_CSHL.c **** #endif /* ((CapSense_TOTAL_RADIAL_SLIDERS_COUNT > 0u) || (CapSense_TOTAL_LINEAR_SLIDERS_COUNT > 0u)
2123:Generated_Source\PSoC4/CapSense_CSHL.c **** 
2124:Generated_Source\PSoC4/CapSense_CSHL.c **** 
2125:Generated_Source\PSoC4/CapSense_CSHL.c **** #if(CapSense_TOTAL_TOUCH_PADS_BASIC_COUNT > 0u)
2126:Generated_Source\PSoC4/CapSense_CSHL.c ****     /*******************************************************************************
2127:Generated_Source\PSoC4/CapSense_CSHL.c ****     * Function Name: CapSense_GetTouchCentroidPos
2128:Generated_Source\PSoC4/CapSense_CSHL.c ****     ********************************************************************************
2129:Generated_Source\PSoC4/CapSense_CSHL.c ****     *
2130:Generated_Source\PSoC4/CapSense_CSHL.c ****     * Summary:
2131:Generated_Source\PSoC4/CapSense_CSHL.c ****     *  If a finger is present on a touchpad, this function calculates the X and Y
2132:Generated_Source\PSoC4/CapSense_CSHL.c ****     *  position of the finger by calculating the centroids within touchpad specified
2133:Generated_Source\PSoC4/CapSense_CSHL.c ****     *  range. The X and Y positions are calculated according to the API resolutions set in the
2134:Generated_Source\PSoC4/CapSense_CSHL.c ****     *  CapSense customizer. Returns 1 if a finger is on the touchpad.
2135:Generated_Source\PSoC4/CapSense_CSHL.c ****     *  The position filter is applied to the result if enabled.
2136:Generated_Source\PSoC4/CapSense_CSHL.c ****     *  This function is available only if a touch pad is defined by the CapSense
2137:Generated_Source\PSoC4/CapSense_CSHL.c ****     *  customizer.
2138:Generated_Source\PSoC4/CapSense_CSHL.c ****     *
2139:Generated_Source\PSoC4/CapSense_CSHL.c ****     * Parameters:
2140:Generated_Source\PSoC4/CapSense_CSHL.c ****     *  widget:  Widget number.
2141:Generated_Source\PSoC4/CapSense_CSHL.c ****     *  For every touchpad widget there are defines in this format:
2142:Generated_Source\PSoC4/CapSense_CSHL.c ****     *  #define CapSense_"widget_name"__TP            5
2143:Generated_Source\PSoC4/CapSense_CSHL.c ****     *
2144:Generated_Source\PSoC4/CapSense_CSHL.c ****     *  pos:     Pointer to the array of two uint16 elements, where result
2145:Generated_Source\PSoC4/CapSense_CSHL.c ****     *  result of calculation of X and Y position are stored.
2146:Generated_Source\PSoC4/CapSense_CSHL.c ****     *  pos[0u]  - position of X
ARM GAS  C:\Users\TERENC~1\AppData\Local\Temp\ccjR28lu.s 			page 63


2147:Generated_Source\PSoC4/CapSense_CSHL.c ****     *  pos[1u]  - position of Y
2148:Generated_Source\PSoC4/CapSense_CSHL.c ****     *
2149:Generated_Source\PSoC4/CapSense_CSHL.c ****     * Return:
2150:Generated_Source\PSoC4/CapSense_CSHL.c ****     *  Returns a 1 if a finger is on the touch pad, 0 - if not.
2151:Generated_Source\PSoC4/CapSense_CSHL.c ****     *
2152:Generated_Source\PSoC4/CapSense_CSHL.c ****     * Global Variables:
2153:Generated_Source\PSoC4/CapSense_CSHL.c ****     *  None.
2154:Generated_Source\PSoC4/CapSense_CSHL.c ****     *
2155:Generated_Source\PSoC4/CapSense_CSHL.c ****     * Side Effects:
2156:Generated_Source\PSoC4/CapSense_CSHL.c ****     *   There are no checks of the widget type argument provided to this function.
2157:Generated_Source\PSoC4/CapSense_CSHL.c ****     *   The unproper widget type provided will cause unexpected position
2158:Generated_Source\PSoC4/CapSense_CSHL.c ****     *   calculations.
2159:Generated_Source\PSoC4/CapSense_CSHL.c ****     *
2160:Generated_Source\PSoC4/CapSense_CSHL.c ****     *******************************************************************************/
2161:Generated_Source\PSoC4/CapSense_CSHL.c ****     uint32 CapSense_GetTouchCentroidPos(uint32 widget, uint16* pos)
2162:Generated_Source\PSoC4/CapSense_CSHL.c ****     {
2163:Generated_Source\PSoC4/CapSense_CSHL.c ****         #if (0u != CapSense_TOUCH_PADS_POS_FILTERS_MASK)
2164:Generated_Source\PSoC4/CapSense_CSHL.c ****             uint8 posXIndex;
2165:Generated_Source\PSoC4/CapSense_CSHL.c ****             uint8 posYIndex;
2166:Generated_Source\PSoC4/CapSense_CSHL.c ****             uint8 firstTimeIndex = CapSense_posFiltersData[widget];
2167:Generated_Source\PSoC4/CapSense_CSHL.c ****             uint8 posFiltersMask = CapSense_posFiltersMask[widget];
2168:Generated_Source\PSoC4/CapSense_CSHL.c ****         #endif /* (0u != CapSense_TOUCH_PADS_POS_FILTERS_MASK) */
2169:Generated_Source\PSoC4/CapSense_CSHL.c **** 
2170:Generated_Source\PSoC4/CapSense_CSHL.c ****         #if ((0u != (CapSense_MEDIAN_FILTER & CapSense_TOUCH_PADS_POS_FILTERS_MASK)) || \
2171:Generated_Source\PSoC4/CapSense_CSHL.c ****              (0u != (CapSense_AVERAGING_FILTER & CapSense_TOUCH_PADS_POS_FILTERS_MASK)))
2172:Generated_Source\PSoC4/CapSense_CSHL.c ****             uint16 tempPos;
2173:Generated_Source\PSoC4/CapSense_CSHL.c ****         #endif /* ((0u != (CapSense_MEDIAN_FILTER & CapSense_TOUCH_PADS_POS_FILTERS_MASK)) || \
2174:Generated_Source\PSoC4/CapSense_CSHL.c ****                *   (0u != (CapSense_AVERAGING_FILTER & CapSense_TOUCH_PADS_POS_FILTERS_MASK)))
2175:Generated_Source\PSoC4/CapSense_CSHL.c ****                */
2176:Generated_Source\PSoC4/CapSense_CSHL.c **** 
2177:Generated_Source\PSoC4/CapSense_CSHL.c ****         uint8 MaxX;
2178:Generated_Source\PSoC4/CapSense_CSHL.c ****         uint8 MaxY;
2179:Generated_Source\PSoC4/CapSense_CSHL.c ****         uint8 posX;
2180:Generated_Source\PSoC4/CapSense_CSHL.c ****         uint8 posY;
2181:Generated_Source\PSoC4/CapSense_CSHL.c ****         uint32 touch = 0u;
2182:Generated_Source\PSoC4/CapSense_CSHL.c ****         uint8 offset = CapSense_rawDataIndex[widget];
