ARM GAS  C:\Users\TERENC~1\AppData\Local\Temp\ccD9jUuk.s 			page 1


   1              		.syntax unified
   2              		.cpu cortex-m0
   3              		.fpu softvfp
   4              		.eabi_attribute 20, 1
   5              		.eabi_attribute 21, 1
   6              		.eabi_attribute 23, 3
   7              		.eabi_attribute 24, 1
   8              		.eabi_attribute 25, 1
   9              		.eabi_attribute 26, 1
  10              		.eabi_attribute 30, 1
  11              		.eabi_attribute 34, 0
  12              		.eabi_attribute 18, 4
  13              		.thumb
  14              		.syntax unified
  15              		.file	"CyDMA.c"
  16              		.text
  17              	.Ltext0:
  18              		.cfi_sections	.debug_frame
  19              		.section	.text.CyDmaInterrupt,"ax",%progbits
  20              		.align	2
  21              		.global	CyDmaInterrupt
  22              		.code	16
  23              		.thumb_func
  24              		.type	CyDmaInterrupt, %function
  25              	CyDmaInterrupt:
  26              	.LFB15:
  27              		.file 1 "Generated_Source\\PSoC4\\CyDMA.c"
   1:Generated_Source\PSoC4/CyDMA.c **** /*******************************************************************************
   2:Generated_Source\PSoC4/CyDMA.c **** * File Name: CyDMA.c
   3:Generated_Source\PSoC4/CyDMA.c **** * Version 1.10
   4:Generated_Source\PSoC4/CyDMA.c **** *
   5:Generated_Source\PSoC4/CyDMA.c **** * Description:
   6:Generated_Source\PSoC4/CyDMA.c **** *  This file contains all of the global DMA API functions.
   7:Generated_Source\PSoC4/CyDMA.c **** *
   8:Generated_Source\PSoC4/CyDMA.c **** ********************************************************************************
   9:Generated_Source\PSoC4/CyDMA.c **** * Copyright 2015, Cypress Semiconductor Corporation. All rights reserved.
  10:Generated_Source\PSoC4/CyDMA.c **** * You may use this file only in accordance with the license, terms, conditions,
  11:Generated_Source\PSoC4/CyDMA.c **** * disclaimers, and limitations in the end user license agreement accompanying
  12:Generated_Source\PSoC4/CyDMA.c **** * the software package with which this file was provided.
  13:Generated_Source\PSoC4/CyDMA.c **** *******************************************************************************/
  14:Generated_Source\PSoC4/CyDMA.c **** 
  15:Generated_Source\PSoC4/CyDMA.c **** #include "CyDMA.h"
  16:Generated_Source\PSoC4/CyDMA.c **** #include "CyLib.h"
  17:Generated_Source\PSoC4/CyDMA.c **** 
  18:Generated_Source\PSoC4/CyDMA.c **** /* Default callback function. It is invoked if the user callback function is
  19:Generated_Source\PSoC4/CyDMA.c **** * undefined.
  20:Generated_Source\PSoC4/CyDMA.c **** */
  21:Generated_Source\PSoC4/CyDMA.c **** static void CyDmaDefaultInterruptCallback(void);
  22:Generated_Source\PSoC4/CyDMA.c **** 
  23:Generated_Source\PSoC4/CyDMA.c **** /* Array of pointers to user defined callback functions to be called
  24:Generated_Source\PSoC4/CyDMA.c **** * from DMA interrupt.
  25:Generated_Source\PSoC4/CyDMA.c **** */
  26:Generated_Source\PSoC4/CyDMA.c **** static cydma_callback_t CyDmaInterruptCallback[CYDMA_CH_NR] = {
  27:Generated_Source\PSoC4/CyDMA.c ****     &CyDmaDefaultInterruptCallback, &CyDmaDefaultInterruptCallback,
  28:Generated_Source\PSoC4/CyDMA.c ****     &CyDmaDefaultInterruptCallback, &CyDmaDefaultInterruptCallback,
  29:Generated_Source\PSoC4/CyDMA.c ****     &CyDmaDefaultInterruptCallback, &CyDmaDefaultInterruptCallback,
  30:Generated_Source\PSoC4/CyDMA.c ****     &CyDmaDefaultInterruptCallback, &CyDmaDefaultInterruptCallback,
ARM GAS  C:\Users\TERENC~1\AppData\Local\Temp\ccD9jUuk.s 			page 2


  31:Generated_Source\PSoC4/CyDMA.c ****     &CyDmaDefaultInterruptCallback, &CyDmaDefaultInterruptCallback,
  32:Generated_Source\PSoC4/CyDMA.c ****     &CyDmaDefaultInterruptCallback, &CyDmaDefaultInterruptCallback,
  33:Generated_Source\PSoC4/CyDMA.c ****     &CyDmaDefaultInterruptCallback, &CyDmaDefaultInterruptCallback,
  34:Generated_Source\PSoC4/CyDMA.c ****     &CyDmaDefaultInterruptCallback, &CyDmaDefaultInterruptCallback,
  35:Generated_Source\PSoC4/CyDMA.c ****     &CyDmaDefaultInterruptCallback, &CyDmaDefaultInterruptCallback,
  36:Generated_Source\PSoC4/CyDMA.c ****     &CyDmaDefaultInterruptCallback, &CyDmaDefaultInterruptCallback,
  37:Generated_Source\PSoC4/CyDMA.c ****     &CyDmaDefaultInterruptCallback, &CyDmaDefaultInterruptCallback,
  38:Generated_Source\PSoC4/CyDMA.c ****     &CyDmaDefaultInterruptCallback, &CyDmaDefaultInterruptCallback,
  39:Generated_Source\PSoC4/CyDMA.c ****     &CyDmaDefaultInterruptCallback, &CyDmaDefaultInterruptCallback,
  40:Generated_Source\PSoC4/CyDMA.c ****     &CyDmaDefaultInterruptCallback, &CyDmaDefaultInterruptCallback,
  41:Generated_Source\PSoC4/CyDMA.c ****     &CyDmaDefaultInterruptCallback, &CyDmaDefaultInterruptCallback,
  42:Generated_Source\PSoC4/CyDMA.c ****     &CyDmaDefaultInterruptCallback, &CyDmaDefaultInterruptCallback
  43:Generated_Source\PSoC4/CyDMA.c **** };
  44:Generated_Source\PSoC4/CyDMA.c **** 
  45:Generated_Source\PSoC4/CyDMA.c **** /* The live status of all DMA channels usage. Bit i is associated to channel i,
  46:Generated_Source\PSoC4/CyDMA.c **** * with i = 0..CYDMA_CH_NR-1. '0' - channel is free. '1' - channel is in use.
  47:Generated_Source\PSoC4/CyDMA.c **** * All the channels allocated for DMA instances placed on a schematic are in use
  48:Generated_Source\PSoC4/CyDMA.c **** * by default and cannot be freed. 
  49:Generated_Source\PSoC4/CyDMA.c **** * DMA_CHANNELS_USED__MASK is generated during the build time and is a bit field
  50:Generated_Source\PSoC4/CyDMA.c **** * corresponding to the DMA channels placed on a design schematic.
  51:Generated_Source\PSoC4/CyDMA.c **** */
  52:Generated_Source\PSoC4/CyDMA.c **** static uint32 CyDmaChannelUsedMask = DMA_CHANNELS_USED__MASK;
  53:Generated_Source\PSoC4/CyDMA.c **** 
  54:Generated_Source\PSoC4/CyDMA.c **** 
  55:Generated_Source\PSoC4/CyDMA.c **** /*******************************************************************************
  56:Generated_Source\PSoC4/CyDMA.c **** * Function Name: CyDmaEnable
  57:Generated_Source\PSoC4/CyDMA.c **** ********************************************************************************
  58:Generated_Source\PSoC4/CyDMA.c **** *
  59:Generated_Source\PSoC4/CyDMA.c **** * Summary:
  60:Generated_Source\PSoC4/CyDMA.c **** *  Sets the default ISR to be called by the DMA interrupt and enables the DMA
  61:Generated_Source\PSoC4/CyDMA.c **** *  transfer engine.
  62:Generated_Source\PSoC4/CyDMA.c **** *
  63:Generated_Source\PSoC4/CyDMA.c **** * Parameters:
  64:Generated_Source\PSoC4/CyDMA.c **** *  None.
  65:Generated_Source\PSoC4/CyDMA.c **** *                   
  66:Generated_Source\PSoC4/CyDMA.c **** * Return:
  67:Generated_Source\PSoC4/CyDMA.c **** *  None.
  68:Generated_Source\PSoC4/CyDMA.c **** *
  69:Generated_Source\PSoC4/CyDMA.c **** * Side effect:
  70:Generated_Source\PSoC4/CyDMA.c **** *  Does not affect the channel enable status. Overrides the interrupt vector
  71:Generated_Source\PSoC4/CyDMA.c **** *  set prior the first time CyDmaEnable() is called.
  72:Generated_Source\PSoC4/CyDMA.c **** *
  73:Generated_Source\PSoC4/CyDMA.c **** *******************************************************************************/
  74:Generated_Source\PSoC4/CyDMA.c **** void CyDmaEnable(void)
  75:Generated_Source\PSoC4/CyDMA.c **** {
  76:Generated_Source\PSoC4/CyDMA.c ****     static uint8 initIntrVector = 0u;
  77:Generated_Source\PSoC4/CyDMA.c **** 
  78:Generated_Source\PSoC4/CyDMA.c ****     if(0u == initIntrVector)
  79:Generated_Source\PSoC4/CyDMA.c ****     {
  80:Generated_Source\PSoC4/CyDMA.c ****         CyDmaSetInterruptVector(&CyDmaInterrupt);
  81:Generated_Source\PSoC4/CyDMA.c ****         CyIntSetPriority(CYDMA_INTR_NUMBER, CYDMA_INTR_PRIO);
  82:Generated_Source\PSoC4/CyDMA.c ****         initIntrVector = 1u;
  83:Generated_Source\PSoC4/CyDMA.c ****     }
  84:Generated_Source\PSoC4/CyDMA.c ****     CYDMA_CTL_REG = CYDMA_ENABLED;
  85:Generated_Source\PSoC4/CyDMA.c **** }
  86:Generated_Source\PSoC4/CyDMA.c **** 
  87:Generated_Source\PSoC4/CyDMA.c **** 
ARM GAS  C:\Users\TERENC~1\AppData\Local\Temp\ccD9jUuk.s 			page 3


  88:Generated_Source\PSoC4/CyDMA.c **** /*******************************************************************************
  89:Generated_Source\PSoC4/CyDMA.c **** * Function Name: CyDmaDisable
  90:Generated_Source\PSoC4/CyDMA.c **** ********************************************************************************
  91:Generated_Source\PSoC4/CyDMA.c **** *
  92:Generated_Source\PSoC4/CyDMA.c **** * Summary:
  93:Generated_Source\PSoC4/CyDMA.c **** *  Disables the DMA transfer engine.
  94:Generated_Source\PSoC4/CyDMA.c **** *
  95:Generated_Source\PSoC4/CyDMA.c **** * Parameters:
  96:Generated_Source\PSoC4/CyDMA.c **** *  None.
  97:Generated_Source\PSoC4/CyDMA.c **** *                   
  98:Generated_Source\PSoC4/CyDMA.c **** * Return:
  99:Generated_Source\PSoC4/CyDMA.c **** *  None.
 100:Generated_Source\PSoC4/CyDMA.c **** *
 101:Generated_Source\PSoC4/CyDMA.c **** * Side effect:
 102:Generated_Source\PSoC4/CyDMA.c **** *  Does not affect the channel enable status.
 103:Generated_Source\PSoC4/CyDMA.c **** *
 104:Generated_Source\PSoC4/CyDMA.c **** *******************************************************************************/
 105:Generated_Source\PSoC4/CyDMA.c **** void CyDmaDisable(void)
 106:Generated_Source\PSoC4/CyDMA.c **** {
 107:Generated_Source\PSoC4/CyDMA.c ****     CYDMA_CTL_REG = (uint32)~CYDMA_ENABLED;
 108:Generated_Source\PSoC4/CyDMA.c **** }
 109:Generated_Source\PSoC4/CyDMA.c **** 
 110:Generated_Source\PSoC4/CyDMA.c **** 
 111:Generated_Source\PSoC4/CyDMA.c **** /*******************************************************************************
 112:Generated_Source\PSoC4/CyDMA.c **** * Function Name: CyDmaGetStatus
 113:Generated_Source\PSoC4/CyDMA.c **** ********************************************************************************
 114:Generated_Source\PSoC4/CyDMA.c **** *
 115:Generated_Source\PSoC4/CyDMA.c **** * Summary:
 116:Generated_Source\PSoC4/CyDMA.c **** *  Returns the status of the DMA transfer engine.
 117:Generated_Source\PSoC4/CyDMA.c **** *
 118:Generated_Source\PSoC4/CyDMA.c **** * Parameters:
 119:Generated_Source\PSoC4/CyDMA.c **** *  None.
 120:Generated_Source\PSoC4/CyDMA.c **** *                   
 121:Generated_Source\PSoC4/CyDMA.c **** * Return:
 122:Generated_Source\PSoC4/CyDMA.c **** *  The contents of the DMA status register. Refer to the status register bit
 123:Generated_Source\PSoC4/CyDMA.c **** *  definitions in CyDMA_P4.h or the API description in the DMA channel
 124:Generated_Source\PSoC4/CyDMA.c **** *  datasheet.
 125:Generated_Source\PSoC4/CyDMA.c **** *
 126:Generated_Source\PSoC4/CyDMA.c **** * Side effect:
 127:Generated_Source\PSoC4/CyDMA.c **** *  The series of function calls CyDmaGetActiveSrcAddress(),
 128:Generated_Source\PSoC4/CyDMA.c **** *  CyDmaGetActiveDstAddress(), CyDmaGetStatus() are not atomic, the DMA
 129:Generated_Source\PSoC4/CyDMA.c **** *  engine may have advanced after one or more of these function calls. Meaning
 130:Generated_Source\PSoC4/CyDMA.c **** *  the returns from these three functions may not be related to each other.
 131:Generated_Source\PSoC4/CyDMA.c **** *
 132:Generated_Source\PSoC4/CyDMA.c **** *******************************************************************************/
 133:Generated_Source\PSoC4/CyDMA.c **** uint32 CyDmaGetStatus(void)
 134:Generated_Source\PSoC4/CyDMA.c **** {
 135:Generated_Source\PSoC4/CyDMA.c ****     return (CYDMA_STATUS_REG);
 136:Generated_Source\PSoC4/CyDMA.c **** }
 137:Generated_Source\PSoC4/CyDMA.c **** 
 138:Generated_Source\PSoC4/CyDMA.c **** 
 139:Generated_Source\PSoC4/CyDMA.c **** /*******************************************************************************
 140:Generated_Source\PSoC4/CyDMA.c **** * Function Name: CyDmaGetActiveChannels
 141:Generated_Source\PSoC4/CyDMA.c **** ********************************************************************************
 142:Generated_Source\PSoC4/CyDMA.c **** *
 143:Generated_Source\PSoC4/CyDMA.c **** * Summary:
 144:Generated_Source\PSoC4/CyDMA.c **** *  Returns a bit field of all the DMA channels that are either active or
ARM GAS  C:\Users\TERENC~1\AppData\Local\Temp\ccD9jUuk.s 			page 4


 145:Generated_Source\PSoC4/CyDMA.c **** *  pending.
 146:Generated_Source\PSoC4/CyDMA.c **** *
 147:Generated_Source\PSoC4/CyDMA.c **** * Parameters:
 148:Generated_Source\PSoC4/CyDMA.c **** *  None.
 149:Generated_Source\PSoC4/CyDMA.c **** *                   
 150:Generated_Source\PSoC4/CyDMA.c **** * Return:
 151:Generated_Source\PSoC4/CyDMA.c **** *  Bit field of active and pending channels. 
 152:Generated_Source\PSoC4/CyDMA.c **** *
 153:Generated_Source\PSoC4/CyDMA.c **** *******************************************************************************/
 154:Generated_Source\PSoC4/CyDMA.c **** uint32 CyDmaGetActiveChannels(void)
 155:Generated_Source\PSoC4/CyDMA.c **** {
 156:Generated_Source\PSoC4/CyDMA.c ****     return (CYDMA_STATUS_CH_ACT_REG);
 157:Generated_Source\PSoC4/CyDMA.c **** }
 158:Generated_Source\PSoC4/CyDMA.c **** 
 159:Generated_Source\PSoC4/CyDMA.c **** 
 160:Generated_Source\PSoC4/CyDMA.c **** /*******************************************************************************
 161:Generated_Source\PSoC4/CyDMA.c **** * Function Name: CyDmaGetActiveSrcAddress
 162:Generated_Source\PSoC4/CyDMA.c **** ********************************************************************************
 163:Generated_Source\PSoC4/CyDMA.c **** *
 164:Generated_Source\PSoC4/CyDMA.c **** * Summary:
 165:Generated_Source\PSoC4/CyDMA.c **** *  Returns the source address currently being used by the DMA transfer engine.
 166:Generated_Source\PSoC4/CyDMA.c **** *  This function can be used to debug the DMA, or observe where it is at in a
 167:Generated_Source\PSoC4/CyDMA.c **** *  transfer. It will not be used in normal DMA operation.
 168:Generated_Source\PSoC4/CyDMA.c **** *
 169:Generated_Source\PSoC4/CyDMA.c **** * Parameters:
 170:Generated_Source\PSoC4/CyDMA.c **** *  None.
 171:Generated_Source\PSoC4/CyDMA.c **** *                   
 172:Generated_Source\PSoC4/CyDMA.c **** * Return:
 173:Generated_Source\PSoC4/CyDMA.c **** *  Source address currently being used by the DMA transfer engine.
 174:Generated_Source\PSoC4/CyDMA.c **** *
 175:Generated_Source\PSoC4/CyDMA.c **** * Side effect:
 176:Generated_Source\PSoC4/CyDMA.c **** *  The series of function calls CyDmaGetActiveSrcAddress(),
 177:Generated_Source\PSoC4/CyDMA.c **** *  CyDmaGetActiveDstAddress(), CyDmaGetStatus() are not atomic, the DMA
 178:Generated_Source\PSoC4/CyDMA.c **** *  engine may have advanced after one or more of these function calls. Meaning
 179:Generated_Source\PSoC4/CyDMA.c **** *  the returns from these three functions may not be related to each other.
 180:Generated_Source\PSoC4/CyDMA.c **** *
 181:Generated_Source\PSoC4/CyDMA.c **** *******************************************************************************/
 182:Generated_Source\PSoC4/CyDMA.c **** void * CyDmaGetActiveSrcAddress(void)
 183:Generated_Source\PSoC4/CyDMA.c **** {
 184:Generated_Source\PSoC4/CyDMA.c ****     return ((void *)CYDMA_STATUS_SRC_ADDR_REG);
 185:Generated_Source\PSoC4/CyDMA.c **** }
 186:Generated_Source\PSoC4/CyDMA.c **** 
 187:Generated_Source\PSoC4/CyDMA.c **** 
 188:Generated_Source\PSoC4/CyDMA.c **** /*******************************************************************************
 189:Generated_Source\PSoC4/CyDMA.c **** * Function Name: CyDmaGetActiveDstAddress
 190:Generated_Source\PSoC4/CyDMA.c **** ********************************************************************************
 191:Generated_Source\PSoC4/CyDMA.c **** *
 192:Generated_Source\PSoC4/CyDMA.c **** * Summary:
 193:Generated_Source\PSoC4/CyDMA.c **** *  Returns the destination address currently being used by the DMA transfer
 194:Generated_Source\PSoC4/CyDMA.c **** *  engine. This function can be used to debug the DMA, or observe where it is at
 195:Generated_Source\PSoC4/CyDMA.c **** *  in a transfer. It will not be used in normal DMA operation.
 196:Generated_Source\PSoC4/CyDMA.c **** *
 197:Generated_Source\PSoC4/CyDMA.c **** * Parameters:
 198:Generated_Source\PSoC4/CyDMA.c **** *  None.
 199:Generated_Source\PSoC4/CyDMA.c **** *                   
 200:Generated_Source\PSoC4/CyDMA.c **** * Return:
 201:Generated_Source\PSoC4/CyDMA.c **** *  Destination address currently being used by the DMA transfer engine.
ARM GAS  C:\Users\TERENC~1\AppData\Local\Temp\ccD9jUuk.s 			page 5


 202:Generated_Source\PSoC4/CyDMA.c **** *
 203:Generated_Source\PSoC4/CyDMA.c **** * Side effect:
 204:Generated_Source\PSoC4/CyDMA.c **** *  The series of function calls CyDmaGetActiveSrcAddress(),
 205:Generated_Source\PSoC4/CyDMA.c **** *  CyDmaGetActiveDstAddress(), CyDmaGetStatus() are not atomic, the DMA
 206:Generated_Source\PSoC4/CyDMA.c **** *  engine may have advanced after one or more of these function calls. Meaning
 207:Generated_Source\PSoC4/CyDMA.c **** *  the returns from these three functions may not be related to each other.
 208:Generated_Source\PSoC4/CyDMA.c **** *
 209:Generated_Source\PSoC4/CyDMA.c **** *******************************************************************************/
 210:Generated_Source\PSoC4/CyDMA.c **** void * CyDmaGetActiveDstAddress(void)
 211:Generated_Source\PSoC4/CyDMA.c **** {
 212:Generated_Source\PSoC4/CyDMA.c ****     return ((void *)CYDMA_STATUS_DST_ADDR_REG);
 213:Generated_Source\PSoC4/CyDMA.c **** }
 214:Generated_Source\PSoC4/CyDMA.c **** 
 215:Generated_Source\PSoC4/CyDMA.c **** 
 216:Generated_Source\PSoC4/CyDMA.c **** /*******************************************************************************
 217:Generated_Source\PSoC4/CyDMA.c **** * Function Name: CyDmaSetInterruptVector
 218:Generated_Source\PSoC4/CyDMA.c **** ********************************************************************************
 219:Generated_Source\PSoC4/CyDMA.c **** *
 220:Generated_Source\PSoC4/CyDMA.c **** * Summary:
 221:Generated_Source\PSoC4/CyDMA.c **** *  Sets the function that will be called by the DMA interrupt. Note, calling
 222:Generated_Source\PSoC4/CyDMA.c **** *  CyDmaEnable() for the first time overrides any effect this API could have.
 223:Generated_Source\PSoC4/CyDMA.c **** *  Call CyDmaSetInterruptVector() after calling CyDmaEnable() to change
 224:Generated_Source\PSoC4/CyDMA.c **** *  the default ISR.
 225:Generated_Source\PSoC4/CyDMA.c **** *
 226:Generated_Source\PSoC4/CyDMA.c **** * Parameters:
 227:Generated_Source\PSoC4/CyDMA.c **** *  interruptVector: Address of the function that will be called by the DMA
 228:Generated_Source\PSoC4/CyDMA.c **** *                   interrupt.
 229:Generated_Source\PSoC4/CyDMA.c **** * Return:
 230:Generated_Source\PSoC4/CyDMA.c **** *  None.
 231:Generated_Source\PSoC4/CyDMA.c **** *
 232:Generated_Source\PSoC4/CyDMA.c **** * Side effect:
 233:Generated_Source\PSoC4/CyDMA.c **** *  Other components that use DMA may register their callback functions to be
 234:Generated_Source\PSoC4/CyDMA.c **** *  called from the default DMA ISR. Therefore, changing the DMA ISR to a user
 235:Generated_Source\PSoC4/CyDMA.c **** *  defined ISR using this API may prevent these other components from
 236:Generated_Source\PSoC4/CyDMA.c **** *  functioning correctly.
 237:Generated_Source\PSoC4/CyDMA.c **** *
 238:Generated_Source\PSoC4/CyDMA.c **** *******************************************************************************/
 239:Generated_Source\PSoC4/CyDMA.c **** void CyDmaSetInterruptVector(cyisraddress interruptVector)
 240:Generated_Source\PSoC4/CyDMA.c **** {
 241:Generated_Source\PSoC4/CyDMA.c ****     (void)CyIntSetVector(CYDMA_INTR_NUMBER, interruptVector);
 242:Generated_Source\PSoC4/CyDMA.c **** }
 243:Generated_Source\PSoC4/CyDMA.c **** 
 244:Generated_Source\PSoC4/CyDMA.c **** 
 245:Generated_Source\PSoC4/CyDMA.c **** /*******************************************************************************
 246:Generated_Source\PSoC4/CyDMA.c **** * Function Name: CyDmaGetInterruptSource
 247:Generated_Source\PSoC4/CyDMA.c **** ********************************************************************************
 248:Generated_Source\PSoC4/CyDMA.c **** *
 249:Generated_Source\PSoC4/CyDMA.c **** * Summary:
 250:Generated_Source\PSoC4/CyDMA.c **** *  Returns the bit field of which channels generated an interrupt request.
 251:Generated_Source\PSoC4/CyDMA.c **** *
 252:Generated_Source\PSoC4/CyDMA.c **** * Parameters:
 253:Generated_Source\PSoC4/CyDMA.c **** *  None.
 254:Generated_Source\PSoC4/CyDMA.c **** *                   
 255:Generated_Source\PSoC4/CyDMA.c **** * Return:
 256:Generated_Source\PSoC4/CyDMA.c **** *  Bit filed of which channels generated an interrupt request.
 257:Generated_Source\PSoC4/CyDMA.c **** *
 258:Generated_Source\PSoC4/CyDMA.c **** *******************************************************************************/
ARM GAS  C:\Users\TERENC~1\AppData\Local\Temp\ccD9jUuk.s 			page 6


 259:Generated_Source\PSoC4/CyDMA.c **** uint32 CyDmaGetInterruptSource(void)
 260:Generated_Source\PSoC4/CyDMA.c **** {
 261:Generated_Source\PSoC4/CyDMA.c ****     return (CYDMA_INTR_REG);
 262:Generated_Source\PSoC4/CyDMA.c **** }
 263:Generated_Source\PSoC4/CyDMA.c **** 
 264:Generated_Source\PSoC4/CyDMA.c **** 
 265:Generated_Source\PSoC4/CyDMA.c **** /*******************************************************************************
 266:Generated_Source\PSoC4/CyDMA.c **** * Function Name: CyDmaClearInterruptSource
 267:Generated_Source\PSoC4/CyDMA.c **** ********************************************************************************
 268:Generated_Source\PSoC4/CyDMA.c **** *
 269:Generated_Source\PSoC4/CyDMA.c **** * Summary:
 270:Generated_Source\PSoC4/CyDMA.c **** *  Clears the pending interrupts.
 271:Generated_Source\PSoC4/CyDMA.c **** *
 272:Generated_Source\PSoC4/CyDMA.c **** * Parameters:
 273:Generated_Source\PSoC4/CyDMA.c **** *  interruptMask: Bit field of interrupts to clear.
 274:Generated_Source\PSoC4/CyDMA.c **** *                   
 275:Generated_Source\PSoC4/CyDMA.c **** * Return:
 276:Generated_Source\PSoC4/CyDMA.c **** *  None.
 277:Generated_Source\PSoC4/CyDMA.c **** *
 278:Generated_Source\PSoC4/CyDMA.c **** *******************************************************************************/
 279:Generated_Source\PSoC4/CyDMA.c **** void CyDmaClearInterruptSource(uint32 interruptMask)
 280:Generated_Source\PSoC4/CyDMA.c **** {
 281:Generated_Source\PSoC4/CyDMA.c ****     CYDMA_INTR_REG = interruptMask;
 282:Generated_Source\PSoC4/CyDMA.c **** }
 283:Generated_Source\PSoC4/CyDMA.c **** 
 284:Generated_Source\PSoC4/CyDMA.c **** 
 285:Generated_Source\PSoC4/CyDMA.c **** /*******************************************************************************
 286:Generated_Source\PSoC4/CyDMA.c **** * Function Name: CyDmaSetInterruptSourceMask
 287:Generated_Source\PSoC4/CyDMA.c **** ********************************************************************************
 288:Generated_Source\PSoC4/CyDMA.c **** *
 289:Generated_Source\PSoC4/CyDMA.c **** * Summary:
 290:Generated_Source\PSoC4/CyDMA.c **** *  Sets mask for interrupt source.
 291:Generated_Source\PSoC4/CyDMA.c **** *
 292:Generated_Source\PSoC4/CyDMA.c **** * Parameters:
 293:Generated_Source\PSoC4/CyDMA.c **** *  interruptmask: Mask corresponding to interrupt bit field.
 294:Generated_Source\PSoC4/CyDMA.c **** *                   
 295:Generated_Source\PSoC4/CyDMA.c **** * Return:
 296:Generated_Source\PSoC4/CyDMA.c **** *  None.
 297:Generated_Source\PSoC4/CyDMA.c **** *
 298:Generated_Source\PSoC4/CyDMA.c **** *******************************************************************************/
 299:Generated_Source\PSoC4/CyDMA.c **** void CyDmaSetInterruptSourceMask(uint32 interruptMask)
 300:Generated_Source\PSoC4/CyDMA.c **** {
 301:Generated_Source\PSoC4/CyDMA.c ****     CYDMA_INTR_MASK_REG = interruptMask;
 302:Generated_Source\PSoC4/CyDMA.c **** }
 303:Generated_Source\PSoC4/CyDMA.c **** 
 304:Generated_Source\PSoC4/CyDMA.c **** 
 305:Generated_Source\PSoC4/CyDMA.c **** /*******************************************************************************
 306:Generated_Source\PSoC4/CyDMA.c **** * Function Name: CyDmaGetInterruptSourceMask
 307:Generated_Source\PSoC4/CyDMA.c **** ********************************************************************************
 308:Generated_Source\PSoC4/CyDMA.c **** *
 309:Generated_Source\PSoC4/CyDMA.c **** * Summary:
 310:Generated_Source\PSoC4/CyDMA.c **** *  Returns mask for interrupt source.
 311:Generated_Source\PSoC4/CyDMA.c **** *
 312:Generated_Source\PSoC4/CyDMA.c **** * Parameters:
 313:Generated_Source\PSoC4/CyDMA.c **** *  None.
 314:Generated_Source\PSoC4/CyDMA.c **** *                   
 315:Generated_Source\PSoC4/CyDMA.c **** * Return:
ARM GAS  C:\Users\TERENC~1\AppData\Local\Temp\ccD9jUuk.s 			page 7


 316:Generated_Source\PSoC4/CyDMA.c **** *  Mask corresponding to interrupt bit field.
 317:Generated_Source\PSoC4/CyDMA.c **** *
 318:Generated_Source\PSoC4/CyDMA.c **** *******************************************************************************/
 319:Generated_Source\PSoC4/CyDMA.c **** uint32 CyDmaGetInterruptSourceMask(void)
 320:Generated_Source\PSoC4/CyDMA.c **** {
 321:Generated_Source\PSoC4/CyDMA.c ****     return (CYDMA_INTR_MASK_REG);
 322:Generated_Source\PSoC4/CyDMA.c **** }
 323:Generated_Source\PSoC4/CyDMA.c **** 
 324:Generated_Source\PSoC4/CyDMA.c **** 
 325:Generated_Source\PSoC4/CyDMA.c **** /*******************************************************************************
 326:Generated_Source\PSoC4/CyDMA.c **** * Function Name: CyDmaGetInterruptSourceMasked
 327:Generated_Source\PSoC4/CyDMA.c **** ********************************************************************************
 328:Generated_Source\PSoC4/CyDMA.c **** *
 329:Generated_Source\PSoC4/CyDMA.c **** * Summary:
 330:Generated_Source\PSoC4/CyDMA.c **** *  Returns the bitwise AND of the interrupt source and the interrupt mask.
 331:Generated_Source\PSoC4/CyDMA.c **** *
 332:Generated_Source\PSoC4/CyDMA.c **** * Parameters:
 333:Generated_Source\PSoC4/CyDMA.c **** *  None.
 334:Generated_Source\PSoC4/CyDMA.c **** *                   
 335:Generated_Source\PSoC4/CyDMA.c **** * Return:
 336:Generated_Source\PSoC4/CyDMA.c **** *  Bitwise AND of the interrupt source and the interrupt mask.
 337:Generated_Source\PSoC4/CyDMA.c **** *
 338:Generated_Source\PSoC4/CyDMA.c **** *******************************************************************************/
 339:Generated_Source\PSoC4/CyDMA.c **** uint32 CyDmaGetInterruptSourceMasked(void)
 340:Generated_Source\PSoC4/CyDMA.c **** {
 341:Generated_Source\PSoC4/CyDMA.c ****     return (CYDMA_INTR_MASKED_REG);
 342:Generated_Source\PSoC4/CyDMA.c **** }
 343:Generated_Source\PSoC4/CyDMA.c **** 
 344:Generated_Source\PSoC4/CyDMA.c **** 
 345:Generated_Source\PSoC4/CyDMA.c **** /*******************************************************************************
 346:Generated_Source\PSoC4/CyDMA.c **** * Function Name: CyDmaSetInterruptCallback
 347:Generated_Source\PSoC4/CyDMA.c **** ********************************************************************************
 348:Generated_Source\PSoC4/CyDMA.c **** *
 349:Generated_Source\PSoC4/CyDMA.c **** * Summary:
 350:Generated_Source\PSoC4/CyDMA.c **** *  Sets a user defined callback function to be called by the DMA interrupt. The
 351:Generated_Source\PSoC4/CyDMA.c **** *  function should contain code to process the interrupt request for the 
 352:Generated_Source\PSoC4/CyDMA.c **** *  associated DMA channel.
 353:Generated_Source\PSoC4/CyDMA.c **** *
 354:Generated_Source\PSoC4/CyDMA.c **** * Parameters:
 355:Generated_Source\PSoC4/CyDMA.c **** *  channel:  Channel used by this function.
 356:Generated_Source\PSoC4/CyDMA.c **** *  callback: Pointer to the user defined callback function.
 357:Generated_Source\PSoC4/CyDMA.c **** *
 358:Generated_Source\PSoC4/CyDMA.c **** * Return:
 359:Generated_Source\PSoC4/CyDMA.c **** *  Pointer to the function previously set for the specified channel. 
 360:Generated_Source\PSoC4/CyDMA.c **** *
 361:Generated_Source\PSoC4/CyDMA.c **** *******************************************************************************/
 362:Generated_Source\PSoC4/CyDMA.c **** cydma_callback_t CyDmaSetInterruptCallback(int32 channel, cydma_callback_t callback)
 363:Generated_Source\PSoC4/CyDMA.c **** {
 364:Generated_Source\PSoC4/CyDMA.c ****     cydma_callback_t prevCallback;
 365:Generated_Source\PSoC4/CyDMA.c **** 
 366:Generated_Source\PSoC4/CyDMA.c ****     CYASSERT((channel >= 0) && (channel < CYDMA_CH_NR));
 367:Generated_Source\PSoC4/CyDMA.c **** 
 368:Generated_Source\PSoC4/CyDMA.c ****     prevCallback = CyDmaInterruptCallback[channel];
 369:Generated_Source\PSoC4/CyDMA.c ****     CyDmaInterruptCallback[channel] = callback;
 370:Generated_Source\PSoC4/CyDMA.c ****     return (prevCallback);
 371:Generated_Source\PSoC4/CyDMA.c **** }
 372:Generated_Source\PSoC4/CyDMA.c **** 
ARM GAS  C:\Users\TERENC~1\AppData\Local\Temp\ccD9jUuk.s 			page 8


 373:Generated_Source\PSoC4/CyDMA.c **** 
 374:Generated_Source\PSoC4/CyDMA.c **** /*******************************************************************************
 375:Generated_Source\PSoC4/CyDMA.c **** * Function Name: CyDmaGetInterruptCallback
 376:Generated_Source\PSoC4/CyDMA.c **** ********************************************************************************
 377:Generated_Source\PSoC4/CyDMA.c **** *
 378:Generated_Source\PSoC4/CyDMA.c **** * Summary:
 379:Generated_Source\PSoC4/CyDMA.c **** *  Returns the pointer to the interrupt callback function for the specified DMA
 380:Generated_Source\PSoC4/CyDMA.c **** *  channel.
 381:Generated_Source\PSoC4/CyDMA.c **** *
 382:Generated_Source\PSoC4/CyDMA.c **** * Parameters:
 383:Generated_Source\PSoC4/CyDMA.c **** *  channel: Channel used by this function.
 384:Generated_Source\PSoC4/CyDMA.c **** *
 385:Generated_Source\PSoC4/CyDMA.c **** * Return:
 386:Generated_Source\PSoC4/CyDMA.c **** *  Callback function pointer for the specified channel.
 387:Generated_Source\PSoC4/CyDMA.c **** *
 388:Generated_Source\PSoC4/CyDMA.c **** *******************************************************************************/
 389:Generated_Source\PSoC4/CyDMA.c **** cydma_callback_t CyDmaGetInterruptCallback(int32 channel)
 390:Generated_Source\PSoC4/CyDMA.c **** {
 391:Generated_Source\PSoC4/CyDMA.c ****     CYASSERT((channel >= 0) && (channel < CYDMA_CH_NR));
 392:Generated_Source\PSoC4/CyDMA.c ****     
 393:Generated_Source\PSoC4/CyDMA.c ****     return (CyDmaInterruptCallback[channel]);
 394:Generated_Source\PSoC4/CyDMA.c **** }
 395:Generated_Source\PSoC4/CyDMA.c **** 
 396:Generated_Source\PSoC4/CyDMA.c **** 
 397:Generated_Source\PSoC4/CyDMA.c **** /*******************************************************************************
 398:Generated_Source\PSoC4/CyDMA.c **** * Function Name: CyDmaInterrupt
 399:Generated_Source\PSoC4/CyDMA.c **** ********************************************************************************
 400:Generated_Source\PSoC4/CyDMA.c **** *
 401:Generated_Source\PSoC4/CyDMA.c **** * Summary:
 402:Generated_Source\PSoC4/CyDMA.c **** *  The default ISR for DMA interrupts. The handler checks which DMA channel has
 403:Generated_Source\PSoC4/CyDMA.c **** *  triggered the interrupt and calls the user defined callback function.
 404:Generated_Source\PSoC4/CyDMA.c **** *  The callback function is set using CyDmaSetInteruptCallback() API.
 405:Generated_Source\PSoC4/CyDMA.c **** *
 406:Generated_Source\PSoC4/CyDMA.c **** * Parameters:
 407:Generated_Source\PSoC4/CyDMA.c **** *  None.
 408:Generated_Source\PSoC4/CyDMA.c **** *
 409:Generated_Source\PSoC4/CyDMA.c **** * Return:
 410:Generated_Source\PSoC4/CyDMA.c **** *  None.
 411:Generated_Source\PSoC4/CyDMA.c **** *
 412:Generated_Source\PSoC4/CyDMA.c **** * Side Effects:
 413:Generated_Source\PSoC4/CyDMA.c **** *  This function clears the pending interrupts.
 414:Generated_Source\PSoC4/CyDMA.c **** *
 415:Generated_Source\PSoC4/CyDMA.c **** *******************************************************************************/
 416:Generated_Source\PSoC4/CyDMA.c **** CY_ISR(CyDmaInterrupt)
 417:Generated_Source\PSoC4/CyDMA.c **** {
  28              		.loc 1 417 0
  29              		.cfi_startproc
  30              		@ args = 0, pretend = 0, frame = 0
  31              		@ frame_needed = 0, uses_anonymous_args = 0
  32 0000 70B5     		push	{r4, r5, r6, lr}
  33              		.cfi_def_cfa_offset 16
  34              		.cfi_offset 4, -16
  35              		.cfi_offset 5, -12
  36              		.cfi_offset 6, -8
  37              		.cfi_offset 14, -4
  38              	.LVL0:
 418:Generated_Source\PSoC4/CyDMA.c ****     uint32 intr;
ARM GAS  C:\Users\TERENC~1\AppData\Local\Temp\ccD9jUuk.s 			page 9


 419:Generated_Source\PSoC4/CyDMA.c ****     uint32 cbIdx = 0u;
 420:Generated_Source\PSoC4/CyDMA.c **** 
 421:Generated_Source\PSoC4/CyDMA.c ****     /* Get interrupt source. */
 422:Generated_Source\PSoC4/CyDMA.c ****     intr = CYDMA_INTR_MASKED_REG;
  39              		.loc 1 422 0
  40 0002 084B     		ldr	r3, .L5
  41 0004 1C68     		ldr	r4, [r3]
  42              	.LVL1:
 423:Generated_Source\PSoC4/CyDMA.c **** 
 424:Generated_Source\PSoC4/CyDMA.c ****     /* Clear pending interrupts. */
 425:Generated_Source\PSoC4/CyDMA.c ****     CYDMA_INTR_REG = intr;
  43              		.loc 1 425 0
  44 0006 084B     		ldr	r3, .L5+4
  45 0008 1C60     		str	r4, [r3]
 419:Generated_Source\PSoC4/CyDMA.c **** 
  46              		.loc 1 419 0
  47 000a 0025     		movs	r5, #0
 426:Generated_Source\PSoC4/CyDMA.c **** 
 427:Generated_Source\PSoC4/CyDMA.c ****     /* Call user defined callback functions for triggered interrupt sources. */
 428:Generated_Source\PSoC4/CyDMA.c ****     while(0u != intr)
  48              		.loc 1 428 0
  49 000c 07E0     		b	.L2
  50              	.LVL2:
  51              	.L4:
 429:Generated_Source\PSoC4/CyDMA.c ****     {
 430:Generated_Source\PSoC4/CyDMA.c ****         if(0u != (intr & 0x1u))
  52              		.loc 1 430 0
  53 000e E307     		lsls	r3, r4, #31
  54 0010 03D5     		bpl	.L3
 431:Generated_Source\PSoC4/CyDMA.c ****         {
 432:Generated_Source\PSoC4/CyDMA.c ****             CyDmaInterruptCallback[cbIdx]();
  55              		.loc 1 432 0
  56 0012 AB00     		lsls	r3, r5, #2
  57 0014 054A     		ldr	r2, .L5+8
  58 0016 9B58     		ldr	r3, [r3, r2]
  59 0018 9847     		blx	r3
  60              	.LVL3:
  61              	.L3:
 433:Generated_Source\PSoC4/CyDMA.c ****         }
 434:Generated_Source\PSoC4/CyDMA.c ****         intr >>= 1;
  62              		.loc 1 434 0
  63 001a 6408     		lsrs	r4, r4, #1
  64              	.LVL4:
 435:Generated_Source\PSoC4/CyDMA.c ****         ++cbIdx;
  65              		.loc 1 435 0
  66 001c 0135     		adds	r5, r5, #1
  67              	.LVL5:
  68              	.L2:
 428:Generated_Source\PSoC4/CyDMA.c ****     {
  69              		.loc 1 428 0
  70 001e 002C     		cmp	r4, #0
  71 0020 F5D1     		bne	.L4
 436:Generated_Source\PSoC4/CyDMA.c ****     }
 437:Generated_Source\PSoC4/CyDMA.c **** }
  72              		.loc 1 437 0
  73              		@ sp needed
  74              	.LVL6:
ARM GAS  C:\Users\TERENC~1\AppData\Local\Temp\ccD9jUuk.s 			page 10


  75              	.LVL7:
  76 0022 70BD     		pop	{r4, r5, r6, pc}
  77              	.L6:
  78              		.align	2
  79              	.L5:
  80 0024 FC171040 		.word	1074796540
  81 0028 F0171040 		.word	1074796528
  82 002c 00000000 		.word	.LANCHOR0
  83              		.cfi_endproc
  84              	.LFE15:
  85              		.size	CyDmaInterrupt, .-CyDmaInterrupt
  86              		.section	.text.CyDmaDefaultInterruptCallback,"ax",%progbits
  87              		.align	2
  88              		.code	16
  89              		.thumb_func
  90              		.type	CyDmaDefaultInterruptCallback, %function
  91              	CyDmaDefaultInterruptCallback:
  92              	.LFB16:
 438:Generated_Source\PSoC4/CyDMA.c **** 
 439:Generated_Source\PSoC4/CyDMA.c **** 
 440:Generated_Source\PSoC4/CyDMA.c **** /*******************************************************************************
 441:Generated_Source\PSoC4/CyDMA.c **** * Function Name: CyDmaDefaultInterruptCallback
 442:Generated_Source\PSoC4/CyDMA.c **** ********************************************************************************
 443:Generated_Source\PSoC4/CyDMA.c **** *
 444:Generated_Source\PSoC4/CyDMA.c **** * Summary:
 445:Generated_Source\PSoC4/CyDMA.c **** *  This function is invoked when the user defined callback function is undefined
 446:Generated_Source\PSoC4/CyDMA.c **** *  for the interrupt source.
 447:Generated_Source\PSoC4/CyDMA.c **** *
 448:Generated_Source\PSoC4/CyDMA.c **** * Parameters:
 449:Generated_Source\PSoC4/CyDMA.c **** *  None.
 450:Generated_Source\PSoC4/CyDMA.c **** *
 451:Generated_Source\PSoC4/CyDMA.c **** * Return:
 452:Generated_Source\PSoC4/CyDMA.c **** *  None.
 453:Generated_Source\PSoC4/CyDMA.c **** *
 454:Generated_Source\PSoC4/CyDMA.c **** *******************************************************************************/
 455:Generated_Source\PSoC4/CyDMA.c **** static void CyDmaDefaultInterruptCallback(void)
 456:Generated_Source\PSoC4/CyDMA.c **** {
  93              		.loc 1 456 0
  94              		.cfi_startproc
  95              		@ args = 0, pretend = 0, frame = 0
  96              		@ frame_needed = 0, uses_anonymous_args = 0
  97 0000 10B5     		push	{r4, lr}
  98              		.cfi_def_cfa_offset 8
  99              		.cfi_offset 4, -8
 100              		.cfi_offset 14, -4
 457:Generated_Source\PSoC4/CyDMA.c ****     /* Halt CPU in debug mode. We get here because there is no user defined
 458:Generated_Source\PSoC4/CyDMA.c ****     * callback function for the interrupt source. You should either set a
 459:Generated_Source\PSoC4/CyDMA.c ****     * callback function or disable generating an interrupt from this
 460:Generated_Source\PSoC4/CyDMA.c ****     * interrupt source.
 461:Generated_Source\PSoC4/CyDMA.c ****     * To set a callback, use the CyDmaSetInterruptCallback() API function.
 462:Generated_Source\PSoC4/CyDMA.c ****     * To disable interrupt generation, write '0' to the corresponding bit
 463:Generated_Source\PSoC4/CyDMA.c ****     * in the interrupt mask by calling CyDmaSetInterruptSourceMask().
 464:Generated_Source\PSoC4/CyDMA.c ****     */
 465:Generated_Source\PSoC4/CyDMA.c ****     CYASSERT(0 != 0);
 101              		.loc 1 465 0
 102 0002 0020     		movs	r0, #0
 103 0004 FFF7FEFF 		bl	CyHalt
ARM GAS  C:\Users\TERENC~1\AppData\Local\Temp\ccD9jUuk.s 			page 11


 104              	.LVL8:
 466:Generated_Source\PSoC4/CyDMA.c **** }
 105              		.loc 1 466 0
 106              		@ sp needed
 107 0008 10BD     		pop	{r4, pc}
 108              		.cfi_endproc
 109              	.LFE16:
 110              		.size	CyDmaDefaultInterruptCallback, .-CyDmaDefaultInterruptCallback
 111              		.section	.text.CyDmaDisable,"ax",%progbits
 112              		.align	2
 113              		.global	CyDmaDisable
 114              		.code	16
 115              		.thumb_func
 116              		.type	CyDmaDisable, %function
 117              	CyDmaDisable:
 118              	.LFB2:
 106:Generated_Source\PSoC4/CyDMA.c ****     CYDMA_CTL_REG = (uint32)~CYDMA_ENABLED;
 119              		.loc 1 106 0
 120              		.cfi_startproc
 121              		@ args = 0, pretend = 0, frame = 0
 122              		@ frame_needed = 0, uses_anonymous_args = 0
 123              		@ link register save eliminated.
 107:Generated_Source\PSoC4/CyDMA.c **** }
 124              		.loc 1 107 0
 125 0000 014A     		ldr	r2, .L9
 126 0002 024B     		ldr	r3, .L9+4
 127 0004 1A60     		str	r2, [r3]
 108:Generated_Source\PSoC4/CyDMA.c **** 
 128              		.loc 1 108 0
 129              		@ sp needed
 130 0006 7047     		bx	lr
 131              	.L10:
 132              		.align	2
 133              	.L9:
 134 0008 FFFFFF7F 		.word	2147483647
 135 000c 00101040 		.word	1074794496
 136              		.cfi_endproc
 137              	.LFE2:
 138              		.size	CyDmaDisable, .-CyDmaDisable
 139              		.section	.text.CyDmaGetStatus,"ax",%progbits
 140              		.align	2
 141              		.global	CyDmaGetStatus
 142              		.code	16
 143              		.thumb_func
 144              		.type	CyDmaGetStatus, %function
 145              	CyDmaGetStatus:
 146              	.LFB3:
 134:Generated_Source\PSoC4/CyDMA.c ****     return (CYDMA_STATUS_REG);
 147              		.loc 1 134 0
 148              		.cfi_startproc
 149              		@ args = 0, pretend = 0, frame = 0
 150              		@ frame_needed = 0, uses_anonymous_args = 0
 151              		@ link register save eliminated.
 135:Generated_Source\PSoC4/CyDMA.c **** }
 152              		.loc 1 135 0
 153 0000 014B     		ldr	r3, .L12
 154 0002 1868     		ldr	r0, [r3]
ARM GAS  C:\Users\TERENC~1\AppData\Local\Temp\ccD9jUuk.s 			page 12


 136:Generated_Source\PSoC4/CyDMA.c **** 
 155              		.loc 1 136 0
 156              		@ sp needed
 157 0004 7047     		bx	lr
 158              	.L13:
 159 0006 C046     		.align	2
 160              	.L12:
 161 0008 10101040 		.word	1074794512
 162              		.cfi_endproc
 163              	.LFE3:
 164              		.size	CyDmaGetStatus, .-CyDmaGetStatus
 165              		.section	.text.CyDmaGetActiveChannels,"ax",%progbits
 166              		.align	2
 167              		.global	CyDmaGetActiveChannels
 168              		.code	16
 169              		.thumb_func
 170              		.type	CyDmaGetActiveChannels, %function
 171              	CyDmaGetActiveChannels:
 172              	.LFB4:
 155:Generated_Source\PSoC4/CyDMA.c ****     return (CYDMA_STATUS_CH_ACT_REG);
 173              		.loc 1 155 0
 174              		.cfi_startproc
 175              		@ args = 0, pretend = 0, frame = 0
 176              		@ frame_needed = 0, uses_anonymous_args = 0
 177              		@ link register save eliminated.
 156:Generated_Source\PSoC4/CyDMA.c **** }
 178              		.loc 1 156 0
 179 0000 014B     		ldr	r3, .L15
 180 0002 1868     		ldr	r0, [r3]
 157:Generated_Source\PSoC4/CyDMA.c **** 
 181              		.loc 1 157 0
 182              		@ sp needed
 183 0004 7047     		bx	lr
 184              	.L16:
 185 0006 C046     		.align	2
 186              	.L15:
 187 0008 1C101040 		.word	1074794524
 188              		.cfi_endproc
 189              	.LFE4:
 190              		.size	CyDmaGetActiveChannels, .-CyDmaGetActiveChannels
 191              		.section	.text.CyDmaGetActiveSrcAddress,"ax",%progbits
 192              		.align	2
 193              		.global	CyDmaGetActiveSrcAddress
 194              		.code	16
 195              		.thumb_func
 196              		.type	CyDmaGetActiveSrcAddress, %function
 197              	CyDmaGetActiveSrcAddress:
 198              	.LFB5:
 183:Generated_Source\PSoC4/CyDMA.c ****     return ((void *)CYDMA_STATUS_SRC_ADDR_REG);
 199              		.loc 1 183 0
 200              		.cfi_startproc
 201              		@ args = 0, pretend = 0, frame = 0
 202              		@ frame_needed = 0, uses_anonymous_args = 0
 203              		@ link register save eliminated.
 184:Generated_Source\PSoC4/CyDMA.c **** }
 204              		.loc 1 184 0
 205 0000 014B     		ldr	r3, .L18
ARM GAS  C:\Users\TERENC~1\AppData\Local\Temp\ccD9jUuk.s 			page 13


 206 0002 1868     		ldr	r0, [r3]
 185:Generated_Source\PSoC4/CyDMA.c **** 
 207              		.loc 1 185 0
 208              		@ sp needed
 209 0004 7047     		bx	lr
 210              	.L19:
 211 0006 C046     		.align	2
 212              	.L18:
 213 0008 14101040 		.word	1074794516
 214              		.cfi_endproc
 215              	.LFE5:
 216              		.size	CyDmaGetActiveSrcAddress, .-CyDmaGetActiveSrcAddress
 217              		.section	.text.CyDmaGetActiveDstAddress,"ax",%progbits
 218              		.align	2
 219              		.global	CyDmaGetActiveDstAddress
 220              		.code	16
 221              		.thumb_func
 222              		.type	CyDmaGetActiveDstAddress, %function
 223              	CyDmaGetActiveDstAddress:
 224              	.LFB6:
 211:Generated_Source\PSoC4/CyDMA.c ****     return ((void *)CYDMA_STATUS_DST_ADDR_REG);
 225              		.loc 1 211 0
 226              		.cfi_startproc
 227              		@ args = 0, pretend = 0, frame = 0
 228              		@ frame_needed = 0, uses_anonymous_args = 0
 229              		@ link register save eliminated.
 212:Generated_Source\PSoC4/CyDMA.c **** }
 230              		.loc 1 212 0
 231 0000 014B     		ldr	r3, .L21
 232 0002 1868     		ldr	r0, [r3]
 213:Generated_Source\PSoC4/CyDMA.c **** 
 233              		.loc 1 213 0
 234              		@ sp needed
 235 0004 7047     		bx	lr
 236              	.L22:
 237 0006 C046     		.align	2
 238              	.L21:
 239 0008 18101040 		.word	1074794520
 240              		.cfi_endproc
 241              	.LFE6:
 242              		.size	CyDmaGetActiveDstAddress, .-CyDmaGetActiveDstAddress
 243              		.section	.text.CyDmaSetInterruptVector,"ax",%progbits
 244              		.align	2
 245              		.global	CyDmaSetInterruptVector
 246              		.code	16
 247              		.thumb_func
 248              		.type	CyDmaSetInterruptVector, %function
 249              	CyDmaSetInterruptVector:
 250              	.LFB7:
 240:Generated_Source\PSoC4/CyDMA.c ****     (void)CyIntSetVector(CYDMA_INTR_NUMBER, interruptVector);
 251              		.loc 1 240 0
 252              		.cfi_startproc
 253              		@ args = 0, pretend = 0, frame = 0
 254              		@ frame_needed = 0, uses_anonymous_args = 0
 255              	.LVL9:
 256 0000 10B5     		push	{r4, lr}
 257              		.cfi_def_cfa_offset 8
ARM GAS  C:\Users\TERENC~1\AppData\Local\Temp\ccD9jUuk.s 			page 14


 258              		.cfi_offset 4, -8
 259              		.cfi_offset 14, -4
 260 0002 0100     		movs	r1, r0
 241:Generated_Source\PSoC4/CyDMA.c **** }
 261              		.loc 1 241 0
 262 0004 0E20     		movs	r0, #14
 263              	.LVL10:
 264 0006 FFF7FEFF 		bl	CyIntSetVector
 265              	.LVL11:
 242:Generated_Source\PSoC4/CyDMA.c **** 
 266              		.loc 1 242 0
 267              		@ sp needed
 268 000a 10BD     		pop	{r4, pc}
 269              		.cfi_endproc
 270              	.LFE7:
 271              		.size	CyDmaSetInterruptVector, .-CyDmaSetInterruptVector
 272              		.section	.text.CyDmaEnable,"ax",%progbits
 273              		.align	2
 274              		.global	CyDmaEnable
 275              		.code	16
 276              		.thumb_func
 277              		.type	CyDmaEnable, %function
 278              	CyDmaEnable:
 279              	.LFB1:
  75:Generated_Source\PSoC4/CyDMA.c ****     static uint8 initIntrVector = 0u;
 280              		.loc 1 75 0
 281              		.cfi_startproc
 282              		@ args = 0, pretend = 0, frame = 0
 283              		@ frame_needed = 0, uses_anonymous_args = 0
 284 0000 10B5     		push	{r4, lr}
 285              		.cfi_def_cfa_offset 8
 286              		.cfi_offset 4, -8
 287              		.cfi_offset 14, -4
  78:Generated_Source\PSoC4/CyDMA.c ****     {
 288              		.loc 1 78 0
 289 0002 094B     		ldr	r3, .L26
 290 0004 1B78     		ldrb	r3, [r3]
 291 0006 002B     		cmp	r3, #0
 292 0008 09D1     		bne	.L25
  80:Generated_Source\PSoC4/CyDMA.c ****         CyIntSetPriority(CYDMA_INTR_NUMBER, CYDMA_INTR_PRIO);
 293              		.loc 1 80 0
 294 000a 0848     		ldr	r0, .L26+4
 295 000c FFF7FEFF 		bl	CyDmaSetInterruptVector
 296              	.LVL12:
  81:Generated_Source\PSoC4/CyDMA.c ****         initIntrVector = 1u;
 297              		.loc 1 81 0
 298 0010 0321     		movs	r1, #3
 299 0012 0E20     		movs	r0, #14
 300 0014 FFF7FEFF 		bl	CyIntSetPriority
 301              	.LVL13:
  82:Generated_Source\PSoC4/CyDMA.c ****     }
 302              		.loc 1 82 0
 303 0018 0122     		movs	r2, #1
 304 001a 034B     		ldr	r3, .L26
 305 001c 1A70     		strb	r2, [r3]
 306              	.L25:
  84:Generated_Source\PSoC4/CyDMA.c **** }
ARM GAS  C:\Users\TERENC~1\AppData\Local\Temp\ccD9jUuk.s 			page 15


 307              		.loc 1 84 0
 308 001e 8022     		movs	r2, #128
 309 0020 1206     		lsls	r2, r2, #24
 310 0022 034B     		ldr	r3, .L26+8
 311 0024 1A60     		str	r2, [r3]
  85:Generated_Source\PSoC4/CyDMA.c **** 
 312              		.loc 1 85 0
 313              		@ sp needed
 314 0026 10BD     		pop	{r4, pc}
 315              	.L27:
 316              		.align	2
 317              	.L26:
 318 0028 00000000 		.word	.LANCHOR1
 319 002c 00000000 		.word	CyDmaInterrupt
 320 0030 00101040 		.word	1074794496
 321              		.cfi_endproc
 322              	.LFE1:
 323              		.size	CyDmaEnable, .-CyDmaEnable
 324              		.section	.text.CyDmaGetInterruptSource,"ax",%progbits
 325              		.align	2
 326              		.global	CyDmaGetInterruptSource
 327              		.code	16
 328              		.thumb_func
 329              		.type	CyDmaGetInterruptSource, %function
 330              	CyDmaGetInterruptSource:
 331              	.LFB8:
 260:Generated_Source\PSoC4/CyDMA.c ****     return (CYDMA_INTR_REG);
 332              		.loc 1 260 0
 333              		.cfi_startproc
 334              		@ args = 0, pretend = 0, frame = 0
 335              		@ frame_needed = 0, uses_anonymous_args = 0
 336              		@ link register save eliminated.
 261:Generated_Source\PSoC4/CyDMA.c **** }
 337              		.loc 1 261 0
 338 0000 014B     		ldr	r3, .L29
 339 0002 1868     		ldr	r0, [r3]
 262:Generated_Source\PSoC4/CyDMA.c **** 
 340              		.loc 1 262 0
 341              		@ sp needed
 342 0004 7047     		bx	lr
 343              	.L30:
 344 0006 C046     		.align	2
 345              	.L29:
 346 0008 F0171040 		.word	1074796528
 347              		.cfi_endproc
 348              	.LFE8:
 349              		.size	CyDmaGetInterruptSource, .-CyDmaGetInterruptSource
 350              		.section	.text.CyDmaClearInterruptSource,"ax",%progbits
 351              		.align	2
 352              		.global	CyDmaClearInterruptSource
 353              		.code	16
 354              		.thumb_func
 355              		.type	CyDmaClearInterruptSource, %function
 356              	CyDmaClearInterruptSource:
 357              	.LFB9:
 280:Generated_Source\PSoC4/CyDMA.c ****     CYDMA_INTR_REG = interruptMask;
 358              		.loc 1 280 0
ARM GAS  C:\Users\TERENC~1\AppData\Local\Temp\ccD9jUuk.s 			page 16


 359              		.cfi_startproc
 360              		@ args = 0, pretend = 0, frame = 0
 361              		@ frame_needed = 0, uses_anonymous_args = 0
 362              		@ link register save eliminated.
 363              	.LVL14:
 281:Generated_Source\PSoC4/CyDMA.c **** }
 364              		.loc 1 281 0
 365 0000 014B     		ldr	r3, .L32
 366 0002 1860     		str	r0, [r3]
 282:Generated_Source\PSoC4/CyDMA.c **** 
 367              		.loc 1 282 0
 368              		@ sp needed
 369 0004 7047     		bx	lr
 370              	.L33:
 371 0006 C046     		.align	2
 372              	.L32:
 373 0008 F0171040 		.word	1074796528
 374              		.cfi_endproc
 375              	.LFE9:
 376              		.size	CyDmaClearInterruptSource, .-CyDmaClearInterruptSource
 377              		.section	.text.CyDmaSetInterruptSourceMask,"ax",%progbits
 378              		.align	2
 379              		.global	CyDmaSetInterruptSourceMask
 380              		.code	16
 381              		.thumb_func
 382              		.type	CyDmaSetInterruptSourceMask, %function
 383              	CyDmaSetInterruptSourceMask:
 384              	.LFB10:
 300:Generated_Source\PSoC4/CyDMA.c ****     CYDMA_INTR_MASK_REG = interruptMask;
 385              		.loc 1 300 0
 386              		.cfi_startproc
 387              		@ args = 0, pretend = 0, frame = 0
 388              		@ frame_needed = 0, uses_anonymous_args = 0
 389              		@ link register save eliminated.
 390              	.LVL15:
 301:Generated_Source\PSoC4/CyDMA.c **** }
 391              		.loc 1 301 0
 392 0000 014B     		ldr	r3, .L35
 393 0002 1860     		str	r0, [r3]
 302:Generated_Source\PSoC4/CyDMA.c **** 
 394              		.loc 1 302 0
 395              		@ sp needed
 396 0004 7047     		bx	lr
 397              	.L36:
 398 0006 C046     		.align	2
 399              	.L35:
 400 0008 F8171040 		.word	1074796536
 401              		.cfi_endproc
 402              	.LFE10:
 403              		.size	CyDmaSetInterruptSourceMask, .-CyDmaSetInterruptSourceMask
 404              		.section	.text.CyDmaGetInterruptSourceMask,"ax",%progbits
 405              		.align	2
 406              		.global	CyDmaGetInterruptSourceMask
 407              		.code	16
 408              		.thumb_func
 409              		.type	CyDmaGetInterruptSourceMask, %function
 410              	CyDmaGetInterruptSourceMask:
ARM GAS  C:\Users\TERENC~1\AppData\Local\Temp\ccD9jUuk.s 			page 17


 411              	.LFB11:
 320:Generated_Source\PSoC4/CyDMA.c ****     return (CYDMA_INTR_MASK_REG);
 412              		.loc 1 320 0
 413              		.cfi_startproc
 414              		@ args = 0, pretend = 0, frame = 0
 415              		@ frame_needed = 0, uses_anonymous_args = 0
 416              		@ link register save eliminated.
 321:Generated_Source\PSoC4/CyDMA.c **** }
 417              		.loc 1 321 0
 418 0000 014B     		ldr	r3, .L38
 419 0002 1868     		ldr	r0, [r3]
 322:Generated_Source\PSoC4/CyDMA.c **** 
 420              		.loc 1 322 0
 421              		@ sp needed
 422 0004 7047     		bx	lr
 423              	.L39:
 424 0006 C046     		.align	2
 425              	.L38:
 426 0008 F8171040 		.word	1074796536
 427              		.cfi_endproc
 428              	.LFE11:
 429              		.size	CyDmaGetInterruptSourceMask, .-CyDmaGetInterruptSourceMask
 430              		.section	.text.CyDmaGetInterruptSourceMasked,"ax",%progbits
 431              		.align	2
 432              		.global	CyDmaGetInterruptSourceMasked
 433              		.code	16
 434              		.thumb_func
 435              		.type	CyDmaGetInterruptSourceMasked, %function
 436              	CyDmaGetInterruptSourceMasked:
 437              	.LFB12:
 340:Generated_Source\PSoC4/CyDMA.c ****     return (CYDMA_INTR_MASKED_REG);
 438              		.loc 1 340 0
 439              		.cfi_startproc
 440              		@ args = 0, pretend = 0, frame = 0
 441              		@ frame_needed = 0, uses_anonymous_args = 0
 442              		@ link register save eliminated.
 341:Generated_Source\PSoC4/CyDMA.c **** }
 443              		.loc 1 341 0
 444 0000 014B     		ldr	r3, .L41
 445 0002 1868     		ldr	r0, [r3]
 342:Generated_Source\PSoC4/CyDMA.c **** 
 446              		.loc 1 342 0
 447              		@ sp needed
 448 0004 7047     		bx	lr
 449              	.L42:
 450 0006 C046     		.align	2
 451              	.L41:
 452 0008 FC171040 		.word	1074796540
 453              		.cfi_endproc
 454              	.LFE12:
 455              		.size	CyDmaGetInterruptSourceMasked, .-CyDmaGetInterruptSourceMasked
 456              		.section	.text.CyDmaSetInterruptCallback,"ax",%progbits
 457              		.align	2
 458              		.global	CyDmaSetInterruptCallback
 459              		.code	16
 460              		.thumb_func
 461              		.type	CyDmaSetInterruptCallback, %function
ARM GAS  C:\Users\TERENC~1\AppData\Local\Temp\ccD9jUuk.s 			page 18


 462              	CyDmaSetInterruptCallback:
 463              	.LFB13:
 363:Generated_Source\PSoC4/CyDMA.c ****     cydma_callback_t prevCallback;
 464              		.loc 1 363 0
 465              		.cfi_startproc
 466              		@ args = 0, pretend = 0, frame = 0
 467              		@ frame_needed = 0, uses_anonymous_args = 0
 468              	.LVL16:
 469 0000 70B5     		push	{r4, r5, r6, lr}
 470              		.cfi_def_cfa_offset 16
 471              		.cfi_offset 4, -16
 472              		.cfi_offset 5, -12
 473              		.cfi_offset 6, -8
 474              		.cfi_offset 14, -4
 475 0002 0400     		movs	r4, r0
 476 0004 0D00     		movs	r5, r1
 366:Generated_Source\PSoC4/CyDMA.c **** 
 477              		.loc 1 366 0
 478 0006 1F28     		cmp	r0, #31
 479 0008 02D9     		bls	.L44
 366:Generated_Source\PSoC4/CyDMA.c **** 
 480              		.loc 1 366 0 is_stmt 0 discriminator 1
 481 000a 0020     		movs	r0, #0
 482              	.LVL17:
 483 000c FFF7FEFF 		bl	CyHalt
 484              	.LVL18:
 485              	.L44:
 368:Generated_Source\PSoC4/CyDMA.c ****     CyDmaInterruptCallback[channel] = callback;
 486              		.loc 1 368 0 is_stmt 1
 487 0010 024B     		ldr	r3, .L45
 488 0012 A400     		lsls	r4, r4, #2
 489              	.LVL19:
 490 0014 E058     		ldr	r0, [r4, r3]
 491              	.LVL20:
 369:Generated_Source\PSoC4/CyDMA.c ****     return (prevCallback);
 492              		.loc 1 369 0
 493 0016 E550     		str	r5, [r4, r3]
 371:Generated_Source\PSoC4/CyDMA.c **** 
 494              		.loc 1 371 0
 495              		@ sp needed
 496              	.LVL21:
 497 0018 70BD     		pop	{r4, r5, r6, pc}
 498              	.L46:
 499 001a C046     		.align	2
 500              	.L45:
 501 001c 00000000 		.word	.LANCHOR0
 502              		.cfi_endproc
 503              	.LFE13:
 504              		.size	CyDmaSetInterruptCallback, .-CyDmaSetInterruptCallback
 505              		.section	.text.CyDmaGetInterruptCallback,"ax",%progbits
 506              		.align	2
 507              		.global	CyDmaGetInterruptCallback
 508              		.code	16
 509              		.thumb_func
 510              		.type	CyDmaGetInterruptCallback, %function
 511              	CyDmaGetInterruptCallback:
 512              	.LFB14:
ARM GAS  C:\Users\TERENC~1\AppData\Local\Temp\ccD9jUuk.s 			page 19


 390:Generated_Source\PSoC4/CyDMA.c ****     CYASSERT((channel >= 0) && (channel < CYDMA_CH_NR));
 513              		.loc 1 390 0
 514              		.cfi_startproc
 515              		@ args = 0, pretend = 0, frame = 0
 516              		@ frame_needed = 0, uses_anonymous_args = 0
 517              	.LVL22:
 518 0000 10B5     		push	{r4, lr}
 519              		.cfi_def_cfa_offset 8
 520              		.cfi_offset 4, -8
 521              		.cfi_offset 14, -4
 522 0002 0400     		movs	r4, r0
 391:Generated_Source\PSoC4/CyDMA.c ****     
 523              		.loc 1 391 0
 524 0004 1F28     		cmp	r0, #31
 525 0006 02D9     		bls	.L48
 391:Generated_Source\PSoC4/CyDMA.c ****     
 526              		.loc 1 391 0 is_stmt 0 discriminator 1
 527 0008 0020     		movs	r0, #0
 528              	.LVL23:
 529 000a FFF7FEFF 		bl	CyHalt
 530              	.LVL24:
 531              	.L48:
 393:Generated_Source\PSoC4/CyDMA.c **** }
 532              		.loc 1 393 0 is_stmt 1
 533 000e A400     		lsls	r4, r4, #2
 534              	.LVL25:
 535 0010 014B     		ldr	r3, .L49
 536 0012 E058     		ldr	r0, [r4, r3]
 394:Generated_Source\PSoC4/CyDMA.c **** 
 537              		.loc 1 394 0
 538              		@ sp needed
 539 0014 10BD     		pop	{r4, pc}
 540              	.L50:
 541 0016 C046     		.align	2
 542              	.L49:
 543 0018 00000000 		.word	.LANCHOR0
 544              		.cfi_endproc
 545              	.LFE14:
 546              		.size	CyDmaGetInterruptCallback, .-CyDmaGetInterruptCallback
 547              		.section	.text.CyDmaChAlloc,"ax",%progbits
 548              		.align	2
 549              		.global	CyDmaChAlloc
 550              		.code	16
 551              		.thumb_func
 552              		.type	CyDmaChAlloc, %function
 553              	CyDmaChAlloc:
 554              	.LFB17:
 467:Generated_Source\PSoC4/CyDMA.c **** 
 468:Generated_Source\PSoC4/CyDMA.c **** 
 469:Generated_Source\PSoC4/CyDMA.c **** /*******************************************************************************
 470:Generated_Source\PSoC4/CyDMA.c **** * Function Name: CyDmaChAlloc
 471:Generated_Source\PSoC4/CyDMA.c **** ********************************************************************************
 472:Generated_Source\PSoC4/CyDMA.c **** *
 473:Generated_Source\PSoC4/CyDMA.c **** * Summary:
 474:Generated_Source\PSoC4/CyDMA.c **** *  Allocates a channel number to use with later DMA functions.
 475:Generated_Source\PSoC4/CyDMA.c **** *
 476:Generated_Source\PSoC4/CyDMA.c **** * Parameters:
ARM GAS  C:\Users\TERENC~1\AppData\Local\Temp\ccD9jUuk.s 			page 20


 477:Generated_Source\PSoC4/CyDMA.c **** *  None.
 478:Generated_Source\PSoC4/CyDMA.c **** *                   
 479:Generated_Source\PSoC4/CyDMA.c **** * Return:
 480:Generated_Source\PSoC4/CyDMA.c **** *  The allocated channel number. Zero is a valid channel number.
 481:Generated_Source\PSoC4/CyDMA.c **** *  CYDMA_INVALID_CHANNEL is returned if there are no channels available.
 482:Generated_Source\PSoC4/CyDMA.c **** *
 483:Generated_Source\PSoC4/CyDMA.c **** *******************************************************************************/
 484:Generated_Source\PSoC4/CyDMA.c **** int32 CyDmaChAlloc(void)
 485:Generated_Source\PSoC4/CyDMA.c **** {
 555              		.loc 1 485 0
 556              		.cfi_startproc
 557              		@ args = 0, pretend = 0, frame = 0
 558              		@ frame_needed = 0, uses_anonymous_args = 0
 559              		@ link register save eliminated.
 560              	.LVL26:
 486:Generated_Source\PSoC4/CyDMA.c ****     int32  channel = CYDMA_CH_NR-1;
 487:Generated_Source\PSoC4/CyDMA.c ****     uint32 channelMask = (uint32)(1UL << (CYDMA_CH_NR-1));
 561              		.loc 1 487 0
 562 0000 8023     		movs	r3, #128
 563 0002 1B06     		lsls	r3, r3, #24
 486:Generated_Source\PSoC4/CyDMA.c ****     int32  channel = CYDMA_CH_NR-1;
 564              		.loc 1 486 0
 565 0004 1F20     		movs	r0, #31
 488:Generated_Source\PSoC4/CyDMA.c ****     
 489:Generated_Source\PSoC4/CyDMA.c ****     while (channel >= 0)
 566              		.loc 1 489 0
 567 0006 09E0     		b	.L52
 568              	.LVL27:
 569              	.L55:
 490:Generated_Source\PSoC4/CyDMA.c ****     {
 491:Generated_Source\PSoC4/CyDMA.c ****         if(0u == (CyDmaChannelUsedMask & channelMask))
 570              		.loc 1 491 0
 571 0008 064A     		ldr	r2, .L56
 572 000a 1268     		ldr	r2, [r2]
 573 000c 1A42     		tst	r2, r3
 574 000e 03D1     		bne	.L53
 492:Generated_Source\PSoC4/CyDMA.c ****         {
 493:Generated_Source\PSoC4/CyDMA.c ****             /* Mark channel as used and exit loop. */ 
 494:Generated_Source\PSoC4/CyDMA.c ****             CyDmaChannelUsedMask |= channelMask;
 575              		.loc 1 494 0
 576 0010 1343     		orrs	r3, r2
 577              	.LVL28:
 578 0012 044A     		ldr	r2, .L56
 579 0014 1360     		str	r3, [r2]
 495:Generated_Source\PSoC4/CyDMA.c ****             break;
 580              		.loc 1 495 0
 581 0016 03E0     		b	.L54
 582              	.LVL29:
 583              	.L53:
 496:Generated_Source\PSoC4/CyDMA.c ****         }
 497:Generated_Source\PSoC4/CyDMA.c ****         channelMask >>= 1;
 584              		.loc 1 497 0
 585 0018 5B08     		lsrs	r3, r3, #1
 586              	.LVL30:
 498:Generated_Source\PSoC4/CyDMA.c ****         --channel;
 587              		.loc 1 498 0
 588 001a 0138     		subs	r0, r0, #1
ARM GAS  C:\Users\TERENC~1\AppData\Local\Temp\ccD9jUuk.s 			page 21


 589              	.LVL31:
 590              	.L52:
 489:Generated_Source\PSoC4/CyDMA.c ****     {
 591              		.loc 1 489 0
 592 001c 0028     		cmp	r0, #0
 593 001e F3DA     		bge	.L55
 594              	.LVL32:
 595              	.L54:
 499:Generated_Source\PSoC4/CyDMA.c ****     }
 500:Generated_Source\PSoC4/CyDMA.c ****     return (channel);
 501:Generated_Source\PSoC4/CyDMA.c **** }
 596              		.loc 1 501 0
 597              		@ sp needed
 598 0020 7047     		bx	lr
 599              	.L57:
 600 0022 C046     		.align	2
 601              	.L56:
 602 0024 80000000 		.word	.LANCHOR2
 603              		.cfi_endproc
 604              	.LFE17:
 605              		.size	CyDmaChAlloc, .-CyDmaChAlloc
 606              		.section	.text.CyDmaChFree,"ax",%progbits
 607              		.align	2
 608              		.global	CyDmaChFree
 609              		.code	16
 610              		.thumb_func
 611              		.type	CyDmaChFree, %function
 612              	CyDmaChFree:
 613              	.LFB18:
 502:Generated_Source\PSoC4/CyDMA.c **** 
 503:Generated_Source\PSoC4/CyDMA.c **** 
 504:Generated_Source\PSoC4/CyDMA.c **** /*******************************************************************************
 505:Generated_Source\PSoC4/CyDMA.c **** * Function Name: CyDmaChFree
 506:Generated_Source\PSoC4/CyDMA.c **** ********************************************************************************
 507:Generated_Source\PSoC4/CyDMA.c **** *
 508:Generated_Source\PSoC4/CyDMA.c **** * Summary:
 509:Generated_Source\PSoC4/CyDMA.c **** *  Frees a channel handle allocated by CyDmaChAlloc(). Channels allocated for
 510:Generated_Source\PSoC4/CyDMA.c **** *  DMA instances placed on a schematic cannot be freed.
 511:Generated_Source\PSoC4/CyDMA.c **** *
 512:Generated_Source\PSoC4/CyDMA.c **** * Parameters:
 513:Generated_Source\PSoC4/CyDMA.c **** *  channel: The handle previously returned by CyDmaChAlloc().
 514:Generated_Source\PSoC4/CyDMA.c **** *                   
 515:Generated_Source\PSoC4/CyDMA.c **** * Return:
 516:Generated_Source\PSoC4/CyDMA.c **** *  CYRET_SUCCESS if successful.
 517:Generated_Source\PSoC4/CyDMA.c **** *  CYRET_BAD_PARAM if channel is invalid.
 518:Generated_Source\PSoC4/CyDMA.c **** *
 519:Generated_Source\PSoC4/CyDMA.c **** *******************************************************************************/
 520:Generated_Source\PSoC4/CyDMA.c **** cystatus CyDmaChFree(int32 channel)
 521:Generated_Source\PSoC4/CyDMA.c **** {
 614              		.loc 1 521 0
 615              		.cfi_startproc
 616              		@ args = 0, pretend = 0, frame = 0
 617              		@ frame_needed = 0, uses_anonymous_args = 0
 618              	.LVL33:
 619 0000 10B5     		push	{r4, lr}
 620              		.cfi_def_cfa_offset 8
 621              		.cfi_offset 4, -8
ARM GAS  C:\Users\TERENC~1\AppData\Local\Temp\ccD9jUuk.s 			page 22


 622              		.cfi_offset 14, -4
 623 0002 0400     		movs	r4, r0
 624              	.LVL34:
 522:Generated_Source\PSoC4/CyDMA.c ****     uint32   channelMask;
 523:Generated_Source\PSoC4/CyDMA.c ****     cystatus result = CYRET_BAD_PARAM;
 524:Generated_Source\PSoC4/CyDMA.c **** 
 525:Generated_Source\PSoC4/CyDMA.c ****     CYASSERT((channel >= 0) && (channel < CYDMA_CH_NR));
 625              		.loc 1 525 0
 626 0004 1F28     		cmp	r0, #31
 627 0006 02D9     		bls	.L59
 628              		.loc 1 525 0 is_stmt 0 discriminator 1
 629 0008 0020     		movs	r0, #0
 630              	.LVL35:
 631 000a FFF7FEFF 		bl	CyHalt
 632              	.LVL36:
 633              	.L59:
 526:Generated_Source\PSoC4/CyDMA.c ****     
 527:Generated_Source\PSoC4/CyDMA.c ****     channelMask = (uint32)(1UL << channel);
 634              		.loc 1 527 0 is_stmt 1
 635 000e 0123     		movs	r3, #1
 636 0010 A340     		lsls	r3, r3, r4
 637              	.LVL37:
 528:Generated_Source\PSoC4/CyDMA.c **** 
 529:Generated_Source\PSoC4/CyDMA.c ****     /* Check against attempt to free channel allocated for DMA instance
 530:Generated_Source\PSoC4/CyDMA.c ****     * placed on schematic.
 531:Generated_Source\PSoC4/CyDMA.c ****     */
 532:Generated_Source\PSoC4/CyDMA.c ****     if(0u == (channelMask & DMA_CHANNELS_USED__MASK))
 638              		.loc 1 532 0
 639 0012 054A     		ldr	r2, .L62
 640 0014 1342     		tst	r3, r2
 641 0016 05D1     		bne	.L61
 533:Generated_Source\PSoC4/CyDMA.c ****     {
 534:Generated_Source\PSoC4/CyDMA.c ****         CyDmaChannelUsedMask &= (uint32)~channelMask;
 642              		.loc 1 534 0
 643 0018 044A     		ldr	r2, .L62+4
 644 001a 1168     		ldr	r1, [r2]
 645 001c 9943     		bics	r1, r3
 646 001e 1160     		str	r1, [r2]
 647              	.LVL38:
 535:Generated_Source\PSoC4/CyDMA.c ****         result = CYRET_SUCCESS;
 648              		.loc 1 535 0
 649 0020 0020     		movs	r0, #0
 650 0022 00E0     		b	.L60
 651              	.LVL39:
 652              	.L61:
 523:Generated_Source\PSoC4/CyDMA.c **** 
 653              		.loc 1 523 0
 654 0024 0120     		movs	r0, #1
 655              	.LVL40:
 656              	.L60:
 536:Generated_Source\PSoC4/CyDMA.c ****     }
 537:Generated_Source\PSoC4/CyDMA.c ****     
 538:Generated_Source\PSoC4/CyDMA.c ****     return (result);
 539:Generated_Source\PSoC4/CyDMA.c **** }
 657              		.loc 1 539 0
 658              		@ sp needed
 659              	.LVL41:
ARM GAS  C:\Users\TERENC~1\AppData\Local\Temp\ccD9jUuk.s 			page 23


 660 0026 10BD     		pop	{r4, pc}
 661              	.L63:
 662              		.align	2
 663              	.L62:
 664 0028 0F1F0000 		.word	7951
 665 002c 80000000 		.word	.LANCHOR2
 666              		.cfi_endproc
 667              	.LFE18:
 668              		.size	CyDmaChFree, .-CyDmaChFree
 669              		.section	.text.CyDmaChEnable,"ax",%progbits
 670              		.align	2
 671              		.global	CyDmaChEnable
 672              		.code	16
 673              		.thumb_func
 674              		.type	CyDmaChEnable, %function
 675              	CyDmaChEnable:
 676              	.LFB19:
 540:Generated_Source\PSoC4/CyDMA.c **** 
 541:Generated_Source\PSoC4/CyDMA.c **** 
 542:Generated_Source\PSoC4/CyDMA.c **** /*******************************************************************************
 543:Generated_Source\PSoC4/CyDMA.c **** * Function Name: CyDmaChEnable
 544:Generated_Source\PSoC4/CyDMA.c **** ********************************************************************************
 545:Generated_Source\PSoC4/CyDMA.c **** *
 546:Generated_Source\PSoC4/CyDMA.c **** * Summary:
 547:Generated_Source\PSoC4/CyDMA.c **** *  Enables the DMA channel.
 548:Generated_Source\PSoC4/CyDMA.c **** *
 549:Generated_Source\PSoC4/CyDMA.c **** * Parameters:
 550:Generated_Source\PSoC4/CyDMA.c **** *  channel: Channel used by this function.
 551:Generated_Source\PSoC4/CyDMA.c **** *                   
 552:Generated_Source\PSoC4/CyDMA.c **** * Return:
 553:Generated_Source\PSoC4/CyDMA.c **** *  None.
 554:Generated_Source\PSoC4/CyDMA.c **** *
 555:Generated_Source\PSoC4/CyDMA.c **** * Side effect:
 556:Generated_Source\PSoC4/CyDMA.c **** *  If this function is called before CyDmaSetConfiguration(), and
 557:Generated_Source\PSoC4/CyDMA.c **** *  CyDmaSetSrcAddress() and CyDmaSetDstAddress(), the operation of
 558:Generated_Source\PSoC4/CyDMA.c **** *  the DMA is undefined and could result in system data corruption. 
 559:Generated_Source\PSoC4/CyDMA.c **** *
 560:Generated_Source\PSoC4/CyDMA.c **** *******************************************************************************/
 561:Generated_Source\PSoC4/CyDMA.c **** void CyDmaChEnable(int32 channel)
 562:Generated_Source\PSoC4/CyDMA.c **** {
 677              		.loc 1 562 0
 678              		.cfi_startproc
 679              		@ args = 0, pretend = 0, frame = 0
 680              		@ frame_needed = 0, uses_anonymous_args = 0
 681              	.LVL42:
 682 0000 10B5     		push	{r4, lr}
 683              		.cfi_def_cfa_offset 8
 684              		.cfi_offset 4, -8
 685              		.cfi_offset 14, -4
 686 0002 0400     		movs	r4, r0
 563:Generated_Source\PSoC4/CyDMA.c ****     CYASSERT((channel >= 0) && (channel < CYDMA_CH_NR));
 687              		.loc 1 563 0
 688 0004 1F28     		cmp	r0, #31
 689 0006 02D9     		bls	.L65
 690              		.loc 1 563 0 is_stmt 0 discriminator 1
 691 0008 0020     		movs	r0, #0
 692              	.LVL43:
ARM GAS  C:\Users\TERENC~1\AppData\Local\Temp\ccD9jUuk.s 			page 24


 693 000a FFF7FEFF 		bl	CyHalt
 694              	.LVL44:
 695              	.L65:
 564:Generated_Source\PSoC4/CyDMA.c **** 
 565:Generated_Source\PSoC4/CyDMA.c ****     CYDMA_CH_CTL_BASE.ctl[channel] |= CYDMA_ENABLED;
 696              		.loc 1 565 0 is_stmt 1
 697 000e 044A     		ldr	r2, .L66
 698 0010 A400     		lsls	r4, r4, #2
 699              	.LVL45:
 700 0012 A358     		ldr	r3, [r4, r2]
 701 0014 8021     		movs	r1, #128
 702 0016 0906     		lsls	r1, r1, #24
 703 0018 0B43     		orrs	r3, r1
 704 001a A350     		str	r3, [r4, r2]
 566:Generated_Source\PSoC4/CyDMA.c **** }
 705              		.loc 1 566 0
 706              		@ sp needed
 707 001c 10BD     		pop	{r4, pc}
 708              	.L67:
 709 001e C046     		.align	2
 710              	.L66:
 711 0020 80101040 		.word	1074794624
 712              		.cfi_endproc
 713              	.LFE19:
 714              		.size	CyDmaChEnable, .-CyDmaChEnable
 715              		.section	.text.CyDmaChDisable,"ax",%progbits
 716              		.align	2
 717              		.global	CyDmaChDisable
 718              		.code	16
 719              		.thumb_func
 720              		.type	CyDmaChDisable, %function
 721              	CyDmaChDisable:
 722              	.LFB20:
 567:Generated_Source\PSoC4/CyDMA.c **** 
 568:Generated_Source\PSoC4/CyDMA.c **** 
 569:Generated_Source\PSoC4/CyDMA.c **** /*******************************************************************************
 570:Generated_Source\PSoC4/CyDMA.c **** * Function Name: CyDmaChDisable
 571:Generated_Source\PSoC4/CyDMA.c **** ********************************************************************************
 572:Generated_Source\PSoC4/CyDMA.c **** *
 573:Generated_Source\PSoC4/CyDMA.c **** * Summary:
 574:Generated_Source\PSoC4/CyDMA.c **** *  Disables the DMA channel.
 575:Generated_Source\PSoC4/CyDMA.c **** *
 576:Generated_Source\PSoC4/CyDMA.c **** * Parameters:
 577:Generated_Source\PSoC4/CyDMA.c **** *  channel: Channel used by this function.
 578:Generated_Source\PSoC4/CyDMA.c **** *                   
 579:Generated_Source\PSoC4/CyDMA.c **** * Return:
 580:Generated_Source\PSoC4/CyDMA.c **** *  None.
 581:Generated_Source\PSoC4/CyDMA.c **** *
 582:Generated_Source\PSoC4/CyDMA.c **** * Side effect:
 583:Generated_Source\PSoC4/CyDMA.c **** *  If this function is called during a DMA transfer the transfer is aborted. 
 584:Generated_Source\PSoC4/CyDMA.c **** *
 585:Generated_Source\PSoC4/CyDMA.c **** *******************************************************************************/
 586:Generated_Source\PSoC4/CyDMA.c **** void CyDmaChDisable(int32 channel)
 587:Generated_Source\PSoC4/CyDMA.c **** {
 723              		.loc 1 587 0
 724              		.cfi_startproc
 725              		@ args = 0, pretend = 0, frame = 0
ARM GAS  C:\Users\TERENC~1\AppData\Local\Temp\ccD9jUuk.s 			page 25


 726              		@ frame_needed = 0, uses_anonymous_args = 0
 727              	.LVL46:
 728 0000 10B5     		push	{r4, lr}
 729              		.cfi_def_cfa_offset 8
 730              		.cfi_offset 4, -8
 731              		.cfi_offset 14, -4
 732 0002 0400     		movs	r4, r0
 588:Generated_Source\PSoC4/CyDMA.c ****     CYASSERT((channel >= 0) && (channel < CYDMA_CH_NR));
 733              		.loc 1 588 0
 734 0004 1F28     		cmp	r0, #31
 735 0006 02D9     		bls	.L69
 736              		.loc 1 588 0 is_stmt 0 discriminator 1
 737 0008 0020     		movs	r0, #0
 738              	.LVL47:
 739 000a FFF7FEFF 		bl	CyHalt
 740              	.LVL48:
 741              	.L69:
 589:Generated_Source\PSoC4/CyDMA.c **** 
 590:Generated_Source\PSoC4/CyDMA.c ****     CYDMA_CH_CTL_BASE.ctl[channel] &= (uint32)~CYDMA_ENABLED;
 742              		.loc 1 590 0 is_stmt 1
 743 000e 034A     		ldr	r2, .L70
 744 0010 A400     		lsls	r4, r4, #2
 745              	.LVL49:
 746 0012 A358     		ldr	r3, [r4, r2]
 747 0014 5B00     		lsls	r3, r3, #1
 748 0016 5B08     		lsrs	r3, r3, #1
 749 0018 A350     		str	r3, [r4, r2]
 591:Generated_Source\PSoC4/CyDMA.c **** }
 750              		.loc 1 591 0
 751              		@ sp needed
 752 001a 10BD     		pop	{r4, pc}
 753              	.L71:
 754              		.align	2
 755              	.L70:
 756 001c 80101040 		.word	1074794624
 757              		.cfi_endproc
 758              	.LFE20:
 759              		.size	CyDmaChDisable, .-CyDmaChDisable
 760              		.section	.text.CyDmaTrigger,"ax",%progbits
 761              		.align	2
 762              		.global	CyDmaTrigger
 763              		.code	16
 764              		.thumb_func
 765              		.type	CyDmaTrigger, %function
 766              	CyDmaTrigger:
 767              	.LFB21:
 592:Generated_Source\PSoC4/CyDMA.c **** 
 593:Generated_Source\PSoC4/CyDMA.c **** 
 594:Generated_Source\PSoC4/CyDMA.c **** /*******************************************************************************
 595:Generated_Source\PSoC4/CyDMA.c **** * Function Name: CyDmaTrigger
 596:Generated_Source\PSoC4/CyDMA.c **** ********************************************************************************
 597:Generated_Source\PSoC4/CyDMA.c **** *
 598:Generated_Source\PSoC4/CyDMA.c **** * Summary:
 599:Generated_Source\PSoC4/CyDMA.c **** *  Triggers the DMA channel, this is useful only for software triggers. This is
 600:Generated_Source\PSoC4/CyDMA.c **** *  not needed when hardware triggers are used.
 601:Generated_Source\PSoC4/CyDMA.c **** *
 602:Generated_Source\PSoC4/CyDMA.c **** * Parameters:
ARM GAS  C:\Users\TERENC~1\AppData\Local\Temp\ccD9jUuk.s 			page 26


 603:Generated_Source\PSoC4/CyDMA.c **** *  channel: Channel used by this function.
 604:Generated_Source\PSoC4/CyDMA.c **** *                   
 605:Generated_Source\PSoC4/CyDMA.c **** * Return:
 606:Generated_Source\PSoC4/CyDMA.c **** *  None. 
 607:Generated_Source\PSoC4/CyDMA.c **** *
 608:Generated_Source\PSoC4/CyDMA.c **** *******************************************************************************/
 609:Generated_Source\PSoC4/CyDMA.c **** void CyDmaTrigger(int32 channel)
 610:Generated_Source\PSoC4/CyDMA.c **** {
 768              		.loc 1 610 0
 769              		.cfi_startproc
 770              		@ args = 0, pretend = 0, frame = 0
 771              		@ frame_needed = 0, uses_anonymous_args = 0
 772              	.LVL50:
 773 0000 10B5     		push	{r4, lr}
 774              		.cfi_def_cfa_offset 8
 775              		.cfi_offset 4, -8
 776              		.cfi_offset 14, -4
 777 0002 0400     		movs	r4, r0
 611:Generated_Source\PSoC4/CyDMA.c ****     /* The LUT is device-dependent, thus it is generated during the build process. */
 612:Generated_Source\PSoC4/CyDMA.c ****     static const uint32 trCtlLut[] = {0xC0020000U, 0xC0020100U, 0xC0020200U, 0xC0020208U};
 613:Generated_Source\PSoC4/CyDMA.c **** 
 614:Generated_Source\PSoC4/CyDMA.c ****     CYASSERT((channel >= 0) && (channel < CYDMA_CH_NR));
 778              		.loc 1 614 0
 779 0004 1F28     		cmp	r0, #31
 780 0006 02D9     		bls	.L73
 781              		.loc 1 614 0 is_stmt 0 discriminator 1
 782 0008 0020     		movs	r0, #0
 783              	.LVL51:
 784 000a FFF7FEFF 		bl	CyHalt
 785              	.LVL52:
 786              	.L73:
 615:Generated_Source\PSoC4/CyDMA.c **** 
 616:Generated_Source\PSoC4/CyDMA.c ****     CYDMA_TR_CTL_REG = trCtlLut[(uint32)channel >> CYDMA_TR_GROUP_SHR] | ((uint32)channel & CYDMA_T
 787              		.loc 1 616 0 is_stmt 1
 788 000e E308     		lsrs	r3, r4, #3
 789 0010 9B00     		lsls	r3, r3, #2
 790 0012 044A     		ldr	r2, .L74
 791 0014 9B58     		ldr	r3, [r3, r2]
 792 0016 0722     		movs	r2, #7
 793 0018 1440     		ands	r4, r2
 794              	.LVL53:
 795 001a 1C43     		orrs	r4, r3
 796 001c 024B     		ldr	r3, .L74+4
 797 001e 1C60     		str	r4, [r3]
 617:Generated_Source\PSoC4/CyDMA.c **** }
 798              		.loc 1 617 0
 799              		@ sp needed
 800 0020 10BD     		pop	{r4, pc}
 801              	.L75:
 802 0022 C046     		.align	2
 803              	.L74:
 804 0024 00000000 		.word	.LANCHOR3
 805 0028 00060140 		.word	1073808896
 806              		.cfi_endproc
 807              	.LFE21:
 808              		.size	CyDmaTrigger, .-CyDmaTrigger
 809              		.section	.text.CyDmaSetPriority,"ax",%progbits
ARM GAS  C:\Users\TERENC~1\AppData\Local\Temp\ccD9jUuk.s 			page 27


 810              		.align	2
 811              		.global	CyDmaSetPriority
 812              		.code	16
 813              		.thumb_func
 814              		.type	CyDmaSetPriority, %function
 815              	CyDmaSetPriority:
 816              	.LFB22:
 618:Generated_Source\PSoC4/CyDMA.c **** 
 619:Generated_Source\PSoC4/CyDMA.c **** 
 620:Generated_Source\PSoC4/CyDMA.c **** /*******************************************************************************
 621:Generated_Source\PSoC4/CyDMA.c **** * Function Name: CyDmaSetPriority
 622:Generated_Source\PSoC4/CyDMA.c **** ********************************************************************************
 623:Generated_Source\PSoC4/CyDMA.c **** *
 624:Generated_Source\PSoC4/CyDMA.c **** * Summary:
 625:Generated_Source\PSoC4/CyDMA.c **** *  Sets the priority for the channel.
 626:Generated_Source\PSoC4/CyDMA.c **** *
 627:Generated_Source\PSoC4/CyDMA.c **** * Parameters:
 628:Generated_Source\PSoC4/CyDMA.c **** *  channel:  Channel used by this function
 629:Generated_Source\PSoC4/CyDMA.c **** *  priority: Priority for channel. Priority can be 0,1,2, or 3.
 630:Generated_Source\PSoC4/CyDMA.c **** *            0 is the highest priority.
 631:Generated_Source\PSoC4/CyDMA.c **** *                   
 632:Generated_Source\PSoC4/CyDMA.c **** * Return:
 633:Generated_Source\PSoC4/CyDMA.c **** *  None.
 634:Generated_Source\PSoC4/CyDMA.c **** *
 635:Generated_Source\PSoC4/CyDMA.c **** * Side effect:
 636:Generated_Source\PSoC4/CyDMA.c **** *  This function should not be called while the channel is enabled.
 637:Generated_Source\PSoC4/CyDMA.c **** *
 638:Generated_Source\PSoC4/CyDMA.c **** *******************************************************************************/
 639:Generated_Source\PSoC4/CyDMA.c **** void CyDmaSetPriority(int32 channel, int32 priority)
 640:Generated_Source\PSoC4/CyDMA.c **** {
 817              		.loc 1 640 0
 818              		.cfi_startproc
 819              		@ args = 0, pretend = 0, frame = 0
 820              		@ frame_needed = 0, uses_anonymous_args = 0
 821              	.LVL54:
 822 0000 70B5     		push	{r4, r5, r6, lr}
 823              		.cfi_def_cfa_offset 16
 824              		.cfi_offset 4, -16
 825              		.cfi_offset 5, -12
 826              		.cfi_offset 6, -8
 827              		.cfi_offset 14, -4
 828 0002 0500     		movs	r5, r0
 829 0004 0C00     		movs	r4, r1
 641:Generated_Source\PSoC4/CyDMA.c ****     uint32 regValue;
 642:Generated_Source\PSoC4/CyDMA.c **** 
 643:Generated_Source\PSoC4/CyDMA.c ****     CYASSERT((channel  >= 0) && (channel  <  CYDMA_CH_NR));
 830              		.loc 1 643 0
 831 0006 1F28     		cmp	r0, #31
 832 0008 02D9     		bls	.L77
 833              		.loc 1 643 0 is_stmt 0 discriminator 1
 834 000a 0020     		movs	r0, #0
 835              	.LVL55:
 836 000c FFF7FEFF 		bl	CyHalt
 837              	.LVL56:
 838              	.L77:
 644:Generated_Source\PSoC4/CyDMA.c ****     CYASSERT((priority >= 0) && (priority <= CY_DMA_MAX_PRIO));
 839              		.loc 1 644 0 is_stmt 1
ARM GAS  C:\Users\TERENC~1\AppData\Local\Temp\ccD9jUuk.s 			page 28


 840 0010 032C     		cmp	r4, #3
 841 0012 02D9     		bls	.L78
 842              		.loc 1 644 0 is_stmt 0 discriminator 1
 843 0014 0020     		movs	r0, #0
 844 0016 FFF7FEFF 		bl	CyHalt
 845              	.LVL57:
 846              	.L78:
 645:Generated_Source\PSoC4/CyDMA.c **** 
 646:Generated_Source\PSoC4/CyDMA.c ****     regValue = CYDMA_CH_CTL_BASE.ctl[channel] & (uint32)~CYDMA_PRIO;
 847              		.loc 1 646 0 is_stmt 1
 848 001a 044A     		ldr	r2, .L79
 849 001c AD00     		lsls	r5, r5, #2
 850              	.LVL58:
 851 001e A958     		ldr	r1, [r5, r2]
 852 0020 034B     		ldr	r3, .L79+4
 853 0022 0B40     		ands	r3, r1
 854              	.LVL59:
 647:Generated_Source\PSoC4/CyDMA.c ****     CYDMA_CH_CTL_BASE.ctl[channel] = regValue | (uint32)((uint32)priority << CYDMA_PRIO_POS);
 855              		.loc 1 647 0
 856 0024 2407     		lsls	r4, r4, #28
 857              	.LVL60:
 858 0026 1C43     		orrs	r4, r3
 859 0028 AC50     		str	r4, [r5, r2]
 648:Generated_Source\PSoC4/CyDMA.c **** }
 860              		.loc 1 648 0
 861              		@ sp needed
 862 002a 70BD     		pop	{r4, r5, r6, pc}
 863              	.L80:
 864              		.align	2
 865              	.L79:
 866 002c 80101040 		.word	1074794624
 867 0030 FFFFFFCF 		.word	-805306369
 868              		.cfi_endproc
 869              	.LFE22:
 870              		.size	CyDmaSetPriority, .-CyDmaSetPriority
 871              		.section	.text.CyDmaGetPriority,"ax",%progbits
 872              		.align	2
 873              		.global	CyDmaGetPriority
 874              		.code	16
 875              		.thumb_func
 876              		.type	CyDmaGetPriority, %function
 877              	CyDmaGetPriority:
 878              	.LFB23:
 649:Generated_Source\PSoC4/CyDMA.c **** 
 650:Generated_Source\PSoC4/CyDMA.c **** 
 651:Generated_Source\PSoC4/CyDMA.c **** /*******************************************************************************
 652:Generated_Source\PSoC4/CyDMA.c **** * Function Name: CyDmaGetPriority
 653:Generated_Source\PSoC4/CyDMA.c **** ********************************************************************************
 654:Generated_Source\PSoC4/CyDMA.c **** *
 655:Generated_Source\PSoC4/CyDMA.c **** * Summary:
 656:Generated_Source\PSoC4/CyDMA.c **** *  Gets the priority for the channel.
 657:Generated_Source\PSoC4/CyDMA.c **** *
 658:Generated_Source\PSoC4/CyDMA.c **** * Parameters:
 659:Generated_Source\PSoC4/CyDMA.c **** *  channel: Channel used by this function.
 660:Generated_Source\PSoC4/CyDMA.c **** *                   
 661:Generated_Source\PSoC4/CyDMA.c **** * Return:
 662:Generated_Source\PSoC4/CyDMA.c **** *  Priority for channel. Priority can be 0,1,2, or 3. 0 is the highest priority.
ARM GAS  C:\Users\TERENC~1\AppData\Local\Temp\ccD9jUuk.s 			page 29


 663:Generated_Source\PSoC4/CyDMA.c **** *
 664:Generated_Source\PSoC4/CyDMA.c **** *******************************************************************************/
 665:Generated_Source\PSoC4/CyDMA.c **** int32 CyDmaGetPriority(int32 channel)
 666:Generated_Source\PSoC4/CyDMA.c **** {
 879              		.loc 1 666 0
 880              		.cfi_startproc
 881              		@ args = 0, pretend = 0, frame = 0
 882              		@ frame_needed = 0, uses_anonymous_args = 0
 883              	.LVL61:
 884 0000 10B5     		push	{r4, lr}
 885              		.cfi_def_cfa_offset 8
 886              		.cfi_offset 4, -8
 887              		.cfi_offset 14, -4
 888 0002 0400     		movs	r4, r0
 667:Generated_Source\PSoC4/CyDMA.c ****     uint32 priority;
 668:Generated_Source\PSoC4/CyDMA.c **** 
 669:Generated_Source\PSoC4/CyDMA.c ****     CYASSERT((channel >= 0) && (channel < CYDMA_CH_NR));
 889              		.loc 1 669 0
 890 0004 1F28     		cmp	r0, #31
 891 0006 02D9     		bls	.L82
 892              		.loc 1 669 0 is_stmt 0 discriminator 1
 893 0008 0020     		movs	r0, #0
 894              	.LVL62:
 895 000a FFF7FEFF 		bl	CyHalt
 896              	.LVL63:
 897              	.L82:
 670:Generated_Source\PSoC4/CyDMA.c **** 
 671:Generated_Source\PSoC4/CyDMA.c ****     priority = (CYDMA_CH_CTL_BASE.ctl[channel] & CYDMA_PRIO) >> CYDMA_PRIO_POS;
 898              		.loc 1 671 0 is_stmt 1
 899 000e A400     		lsls	r4, r4, #2
 900              	.LVL64:
 901 0010 024B     		ldr	r3, .L83
 902 0012 E058     		ldr	r0, [r4, r3]
 903 0014 000F     		lsrs	r0, r0, #28
 904 0016 0323     		movs	r3, #3
 905 0018 1840     		ands	r0, r3
 906              	.LVL65:
 672:Generated_Source\PSoC4/CyDMA.c ****     return ((int32)priority);
 673:Generated_Source\PSoC4/CyDMA.c **** }
 907              		.loc 1 673 0
 908              		@ sp needed
 909 001a 10BD     		pop	{r4, pc}
 910              	.L84:
 911              		.align	2
 912              	.L83:
 913 001c 80101040 		.word	1074794624
 914              		.cfi_endproc
 915              	.LFE23:
 916              		.size	CyDmaGetPriority, .-CyDmaGetPriority
 917              		.section	.text.CyDmaSetNextDescriptor,"ax",%progbits
 918              		.align	2
 919              		.global	CyDmaSetNextDescriptor
 920              		.code	16
 921              		.thumb_func
 922              		.type	CyDmaSetNextDescriptor, %function
 923              	CyDmaSetNextDescriptor:
 924              	.LFB24:
ARM GAS  C:\Users\TERENC~1\AppData\Local\Temp\ccD9jUuk.s 			page 30


 674:Generated_Source\PSoC4/CyDMA.c **** 
 675:Generated_Source\PSoC4/CyDMA.c **** 
 676:Generated_Source\PSoC4/CyDMA.c **** /*******************************************************************************
 677:Generated_Source\PSoC4/CyDMA.c **** * Function Name: CyDmaSetNextDescriptor
 678:Generated_Source\PSoC4/CyDMA.c **** ********************************************************************************
 679:Generated_Source\PSoC4/CyDMA.c **** *
 680:Generated_Source\PSoC4/CyDMA.c **** * Summary:
 681:Generated_Source\PSoC4/CyDMA.c **** *  Sets the descriptor that should be run the next time the channel is
 682:Generated_Source\PSoC4/CyDMA.c **** *  triggered.
 683:Generated_Source\PSoC4/CyDMA.c **** *
 684:Generated_Source\PSoC4/CyDMA.c **** * Parameters:
 685:Generated_Source\PSoC4/CyDMA.c **** *  channel:    Channel used by this function.
 686:Generated_Source\PSoC4/CyDMA.c **** *  descriptor: Next Descriptor to run (0 or 1).
 687:Generated_Source\PSoC4/CyDMA.c **** *
 688:Generated_Source\PSoC4/CyDMA.c **** * Return:
 689:Generated_Source\PSoC4/CyDMA.c **** *  None.
 690:Generated_Source\PSoC4/CyDMA.c **** *                   
 691:Generated_Source\PSoC4/CyDMA.c **** * Side effect:
 692:Generated_Source\PSoC4/CyDMA.c **** *  This function should not be called while the channel is enabled.
 693:Generated_Source\PSoC4/CyDMA.c **** *
 694:Generated_Source\PSoC4/CyDMA.c **** *******************************************************************************/
 695:Generated_Source\PSoC4/CyDMA.c **** void CyDmaSetNextDescriptor(int32 channel, int32 descriptor)
 696:Generated_Source\PSoC4/CyDMA.c **** {
 925              		.loc 1 696 0
 926              		.cfi_startproc
 927              		@ args = 0, pretend = 0, frame = 0
 928              		@ frame_needed = 0, uses_anonymous_args = 0
 929              	.LVL66:
 930 0000 70B5     		push	{r4, r5, r6, lr}
 931              		.cfi_def_cfa_offset 16
 932              		.cfi_offset 4, -16
 933              		.cfi_offset 5, -12
 934              		.cfi_offset 6, -8
 935              		.cfi_offset 14, -4
 936 0002 0500     		movs	r5, r0
 937 0004 0C00     		movs	r4, r1
 697:Generated_Source\PSoC4/CyDMA.c ****     uint32 regValue;
 698:Generated_Source\PSoC4/CyDMA.c **** 
 699:Generated_Source\PSoC4/CyDMA.c ****     CYASSERT((channel    >= 0) && (channel    < CYDMA_CH_NR));
 938              		.loc 1 699 0
 939 0006 1F28     		cmp	r0, #31
 940 0008 02D9     		bls	.L86
 941              		.loc 1 699 0 is_stmt 0 discriminator 1
 942 000a 0020     		movs	r0, #0
 943              	.LVL67:
 944 000c FFF7FEFF 		bl	CyHalt
 945              	.LVL68:
 946              	.L86:
 700:Generated_Source\PSoC4/CyDMA.c ****     CYASSERT((descriptor >= 0) && (descriptor < CYDMA_DESCR_NR));
 947              		.loc 1 700 0 is_stmt 1
 948 0010 012C     		cmp	r4, #1
 949 0012 02D9     		bls	.L87
 950              		.loc 1 700 0 is_stmt 0 discriminator 1
 951 0014 0020     		movs	r0, #0
 952 0016 FFF7FEFF 		bl	CyHalt
 953              	.LVL69:
 954              	.L87:
ARM GAS  C:\Users\TERENC~1\AppData\Local\Temp\ccD9jUuk.s 			page 31


 701:Generated_Source\PSoC4/CyDMA.c **** 
 702:Generated_Source\PSoC4/CyDMA.c ****     regValue = CYDMA_CH_CTL_BASE.ctl[channel] & (uint32)~CYDMA_DESCRIPTOR;
 955              		.loc 1 702 0 is_stmt 1
 956 001a 044A     		ldr	r2, .L88
 957 001c AD00     		lsls	r5, r5, #2
 958              	.LVL70:
 959 001e A958     		ldr	r1, [r5, r2]
 960 0020 034B     		ldr	r3, .L88+4
 961 0022 0B40     		ands	r3, r1
 962              	.LVL71:
 703:Generated_Source\PSoC4/CyDMA.c ****     CYDMA_CH_CTL_BASE.ctl[channel] = regValue | (uint32)((uint32)descriptor << CYDMA_DESCRIPTOR_POS
 963              		.loc 1 703 0
 964 0024 A407     		lsls	r4, r4, #30
 965              	.LVL72:
 966 0026 1C43     		orrs	r4, r3
 967 0028 AC50     		str	r4, [r5, r2]
 704:Generated_Source\PSoC4/CyDMA.c **** }
 968              		.loc 1 704 0
 969              		@ sp needed
 970 002a 70BD     		pop	{r4, r5, r6, pc}
 971              	.L89:
 972              		.align	2
 973              	.L88:
 974 002c 80101040 		.word	1074794624
 975 0030 FFFFFFBF 		.word	-1073741825
 976              		.cfi_endproc
 977              	.LFE24:
 978              		.size	CyDmaSetNextDescriptor, .-CyDmaSetNextDescriptor
 979              		.section	.text.CyDmaGetNextDescriptor,"ax",%progbits
 980              		.align	2
 981              		.global	CyDmaGetNextDescriptor
 982              		.code	16
 983              		.thumb_func
 984              		.type	CyDmaGetNextDescriptor, %function
 985              	CyDmaGetNextDescriptor:
 986              	.LFB25:
 705:Generated_Source\PSoC4/CyDMA.c **** 
 706:Generated_Source\PSoC4/CyDMA.c **** 
 707:Generated_Source\PSoC4/CyDMA.c **** /*******************************************************************************
 708:Generated_Source\PSoC4/CyDMA.c **** * Function Name: CyDmaGetNextDescriptor
 709:Generated_Source\PSoC4/CyDMA.c **** ********************************************************************************
 710:Generated_Source\PSoC4/CyDMA.c **** *
 711:Generated_Source\PSoC4/CyDMA.c **** * Summary:
 712:Generated_Source\PSoC4/CyDMA.c **** *  Returns the next descriptor that should be run, as set by 
 713:Generated_Source\PSoC4/CyDMA.c **** *  CyDmaSetNextDescriptor().
 714:Generated_Source\PSoC4/CyDMA.c **** *
 715:Generated_Source\PSoC4/CyDMA.c **** * Parameters:
 716:Generated_Source\PSoC4/CyDMA.c **** *  channel: channel used by this function.
 717:Generated_Source\PSoC4/CyDMA.c **** *                   
 718:Generated_Source\PSoC4/CyDMA.c **** * Return:
 719:Generated_Source\PSoC4/CyDMA.c **** *  Next Descriptor to run (0 or 1).
 720:Generated_Source\PSoC4/CyDMA.c **** *
 721:Generated_Source\PSoC4/CyDMA.c **** *******************************************************************************/
 722:Generated_Source\PSoC4/CyDMA.c **** int32 CyDmaGetNextDescriptor(int32 channel)
 723:Generated_Source\PSoC4/CyDMA.c **** {
 987              		.loc 1 723 0
 988              		.cfi_startproc
ARM GAS  C:\Users\TERENC~1\AppData\Local\Temp\ccD9jUuk.s 			page 32


 989              		@ args = 0, pretend = 0, frame = 0
 990              		@ frame_needed = 0, uses_anonymous_args = 0
 991              	.LVL73:
 992 0000 10B5     		push	{r4, lr}
 993              		.cfi_def_cfa_offset 8
 994              		.cfi_offset 4, -8
 995              		.cfi_offset 14, -4
 996 0002 0400     		movs	r4, r0
 724:Generated_Source\PSoC4/CyDMA.c ****     uint32 nextDescriptor;
 725:Generated_Source\PSoC4/CyDMA.c **** 
 726:Generated_Source\PSoC4/CyDMA.c ****     CYASSERT((channel >= 0) && (channel < CYDMA_CH_NR));
 997              		.loc 1 726 0
 998 0004 1F28     		cmp	r0, #31
 999 0006 02D9     		bls	.L91
 1000              		.loc 1 726 0 is_stmt 0 discriminator 1
 1001 0008 0020     		movs	r0, #0
 1002              	.LVL74:
 1003 000a FFF7FEFF 		bl	CyHalt
 1004              	.LVL75:
 1005              	.L91:
 727:Generated_Source\PSoC4/CyDMA.c **** 
 728:Generated_Source\PSoC4/CyDMA.c ****     nextDescriptor = (CYDMA_CH_CTL_BASE.ctl[channel] & CYDMA_DESCRIPTOR) >> CYDMA_DESCRIPTOR_POS;
 1006              		.loc 1 728 0 is_stmt 1
 1007 000e A400     		lsls	r4, r4, #2
 1008              	.LVL76:
 1009 0010 024B     		ldr	r3, .L92
 1010 0012 E058     		ldr	r0, [r4, r3]
 1011 0014 800F     		lsrs	r0, r0, #30
 1012 0016 0123     		movs	r3, #1
 1013 0018 1840     		ands	r0, r3
 1014              	.LVL77:
 729:Generated_Source\PSoC4/CyDMA.c ****     return ((int32)nextDescriptor);
 730:Generated_Source\PSoC4/CyDMA.c **** }
 1015              		.loc 1 730 0
 1016              		@ sp needed
 1017 001a 10BD     		pop	{r4, pc}
 1018              	.L93:
 1019              		.align	2
 1020              	.L92:
 1021 001c 80101040 		.word	1074794624
 1022              		.cfi_endproc
 1023              	.LFE25:
 1024              		.size	CyDmaGetNextDescriptor, .-CyDmaGetNextDescriptor
 1025              		.section	.text.CyDmaSetConfiguration,"ax",%progbits
 1026              		.align	2
 1027              		.global	CyDmaSetConfiguration
 1028              		.code	16
 1029              		.thumb_func
 1030              		.type	CyDmaSetConfiguration, %function
 1031              	CyDmaSetConfiguration:
 1032              	.LFB26:
 731:Generated_Source\PSoC4/CyDMA.c **** 
 732:Generated_Source\PSoC4/CyDMA.c **** 
 733:Generated_Source\PSoC4/CyDMA.c **** /*******************************************************************************
 734:Generated_Source\PSoC4/CyDMA.c **** * Function Name: CyDmaSetConfiguration
 735:Generated_Source\PSoC4/CyDMA.c **** ********************************************************************************
 736:Generated_Source\PSoC4/CyDMA.c **** *
ARM GAS  C:\Users\TERENC~1\AppData\Local\Temp\ccD9jUuk.s 			page 33


 737:Generated_Source\PSoC4/CyDMA.c **** * Summary:
 738:Generated_Source\PSoC4/CyDMA.c **** *  Sets configuration information for the specified descriptor.
 739:Generated_Source\PSoC4/CyDMA.c **** *
 740:Generated_Source\PSoC4/CyDMA.c **** * Parameters:
 741:Generated_Source\PSoC4/CyDMA.c **** *  channel:    DMA channel modified by this function.
 742:Generated_Source\PSoC4/CyDMA.c **** *  descriptor: Descriptor (0 or 1) modified by this function.
 743:Generated_Source\PSoC4/CyDMA.c **** *  config:     Pointer to a configuration structure. Refer to cydma_init_struct
 744:Generated_Source\PSoC4/CyDMA.c **** *              structure definition in CyDMA_P4.h and/or DMA channel datasheet
 745:Generated_Source\PSoC4/CyDMA.c **** *              for more information.
 746:Generated_Source\PSoC4/CyDMA.c **** *                   
 747:Generated_Source\PSoC4/CyDMA.c **** * Return:
 748:Generated_Source\PSoC4/CyDMA.c **** *  None.
 749:Generated_Source\PSoC4/CyDMA.c **** *
 750:Generated_Source\PSoC4/CyDMA.c **** * Side effect:
 751:Generated_Source\PSoC4/CyDMA.c **** *  The status register associated with the specified descriptor is reset to
 752:Generated_Source\PSoC4/CyDMA.c **** *  zero after this function call. This function also validates the descriptor.
 753:Generated_Source\PSoC4/CyDMA.c **** *  This function should not be called while the descriptor is active.
 754:Generated_Source\PSoC4/CyDMA.c **** *  This can be checked by calling CyDmaGetStatus().
 755:Generated_Source\PSoC4/CyDMA.c **** *
 756:Generated_Source\PSoC4/CyDMA.c **** *******************************************************************************/
 757:Generated_Source\PSoC4/CyDMA.c **** void CyDmaSetConfiguration(int32 channel, int32 descriptor, const cydma_init_struct * config)
 758:Generated_Source\PSoC4/CyDMA.c **** {  
 1033              		.loc 1 758 0
 1034              		.cfi_startproc
 1035              		@ args = 0, pretend = 0, frame = 0
 1036              		@ frame_needed = 0, uses_anonymous_args = 0
 1037              	.LVL78:
 1038 0000 70B5     		push	{r4, r5, r6, lr}
 1039              		.cfi_def_cfa_offset 16
 1040              		.cfi_offset 4, -16
 1041              		.cfi_offset 5, -12
 1042              		.cfi_offset 6, -8
 1043              		.cfi_offset 14, -4
 1044 0002 0600     		movs	r6, r0
 1045 0004 0D00     		movs	r5, r1
 1046 0006 1400     		movs	r4, r2
 759:Generated_Source\PSoC4/CyDMA.c ****     CYASSERT((channel        >= 0) && (channel         < CYDMA_CH_NR));
 1047              		.loc 1 759 0
 1048 0008 1F28     		cmp	r0, #31
 1049 000a 02D9     		bls	.L95
 1050              		.loc 1 759 0 is_stmt 0 discriminator 1
 1051 000c 0020     		movs	r0, #0
 1052              	.LVL79:
 1053 000e FFF7FEFF 		bl	CyHalt
 1054              	.LVL80:
 1055              	.L95:
 760:Generated_Source\PSoC4/CyDMA.c ****     CYASSERT((descriptor     >= 0) && (descriptor      < CYDMA_DESCR_NR));
 1056              		.loc 1 760 0 is_stmt 1
 1057 0012 012D     		cmp	r5, #1
 1058 0014 02D9     		bls	.L96
 1059              		.loc 1 760 0 is_stmt 0 discriminator 1
 1060 0016 0020     		movs	r0, #0
 1061 0018 FFF7FEFF 		bl	CyHalt
 1062              	.LVL81:
 1063              	.L96:
 761:Generated_Source\PSoC4/CyDMA.c **** 
 762:Generated_Source\PSoC4/CyDMA.c ****     CYASSERT(0u == (config->dataElementSize     & (uint32)~CYDMA_DATA_SIZE));   
ARM GAS  C:\Users\TERENC~1\AppData\Local\Temp\ccD9jUuk.s 			page 34


 1064              		.loc 1 762 0 is_stmt 1
 1065 001c 294B     		ldr	r3, .L105
 1066 001e 2268     		ldr	r2, [r4]
 1067 0020 1A42     		tst	r2, r3
 1068 0022 02D0     		beq	.L97
 1069              		.loc 1 762 0 is_stmt 0 discriminator 1
 1070 0024 0020     		movs	r0, #0
 1071 0026 FFF7FEFF 		bl	CyHalt
 1072              	.LVL82:
 1073              	.L97:
 763:Generated_Source\PSoC4/CyDMA.c ****     CYASSERT((config->numDataElements > 0)     && (config->numDataElements <= CYDMA_MAX_DATA_NR));
 1074              		.loc 1 763 0 is_stmt 1
 1075 002a 6368     		ldr	r3, [r4, #4]
 1076 002c 013B     		subs	r3, r3, #1
 1077 002e 264A     		ldr	r2, .L105+4
 1078 0030 9342     		cmp	r3, r2
 1079 0032 02D9     		bls	.L98
 1080              		.loc 1 763 0 is_stmt 0 discriminator 1
 1081 0034 0020     		movs	r0, #0
 1082 0036 FFF7FEFF 		bl	CyHalt
 1083              	.LVL83:
 1084              	.L98:
 764:Generated_Source\PSoC4/CyDMA.c ****     CYASSERT(0u == (config->srcDstTransferWidth & (uint32)~CYDMA_TRANSFER_WIDTH));
 1085              		.loc 1 764 0 is_stmt 1
 1086 003a 244B     		ldr	r3, .L105+8
 1087 003c A268     		ldr	r2, [r4, #8]
 1088 003e 1A42     		tst	r2, r3
 1089 0040 02D0     		beq	.L99
 1090              		.loc 1 764 0 is_stmt 0 discriminator 1
 1091 0042 0020     		movs	r0, #0
 1092 0044 FFF7FEFF 		bl	CyHalt
 1093              	.LVL84:
 1094              	.L99:
 765:Generated_Source\PSoC4/CyDMA.c ****     CYASSERT(0u == (config->addressIncrement    & (uint32)~CYDMA_ADDR_INCR));
 1095              		.loc 1 765 0 is_stmt 1
 1096 0048 214B     		ldr	r3, .L105+12
 1097 004a E268     		ldr	r2, [r4, #12]
 1098 004c 1A42     		tst	r2, r3
 1099 004e 02D0     		beq	.L100
 1100              		.loc 1 765 0 is_stmt 0 discriminator 1
 1101 0050 0020     		movs	r0, #0
 1102 0052 FFF7FEFF 		bl	CyHalt
 1103              	.LVL85:
 1104              	.L100:
 766:Generated_Source\PSoC4/CyDMA.c ****     CYASSERT(0u == (config->triggerType         & (uint32)~CYDMA_TRIGGER_TYPE));
 1105              		.loc 1 766 0 is_stmt 1
 1106 0056 1F4B     		ldr	r3, .L105+16
 1107 0058 2269     		ldr	r2, [r4, #16]
 1108 005a 1A42     		tst	r2, r3
 1109 005c 02D0     		beq	.L101
 1110              		.loc 1 766 0 is_stmt 0 discriminator 1
 1111 005e 0020     		movs	r0, #0
 1112 0060 FFF7FEFF 		bl	CyHalt
 1113              	.LVL86:
 1114              	.L101:
 767:Generated_Source\PSoC4/CyDMA.c ****     CYASSERT(0u == (config->transferMode        & (uint32)~CYDMA_TRANSFER_MODE));
 1115              		.loc 1 767 0 is_stmt 1
ARM GAS  C:\Users\TERENC~1\AppData\Local\Temp\ccD9jUuk.s 			page 35


 1116 0064 6369     		ldr	r3, [r4, #20]
 1117 0066 9B00     		lsls	r3, r3, #2
 1118 0068 02D0     		beq	.L102
 1119              		.loc 1 767 0 is_stmt 0 discriminator 1
 1120 006a 0020     		movs	r0, #0
 1121 006c FFF7FEFF 		bl	CyHalt
 1122              	.LVL87:
 1123              	.L102:
 768:Generated_Source\PSoC4/CyDMA.c ****     CYASSERT(0u == (config->preemptable         & (uint32)~CYDMA_PREEMPTABLE));
 1124              		.loc 1 768 0 is_stmt 1
 1125 0070 194B     		ldr	r3, .L105+20
 1126 0072 A269     		ldr	r2, [r4, #24]
 1127 0074 1A42     		tst	r2, r3
 1128 0076 02D0     		beq	.L103
 1129              		.loc 1 768 0 is_stmt 0 discriminator 1
 1130 0078 0020     		movs	r0, #0
 1131 007a FFF7FEFF 		bl	CyHalt
 1132              	.LVL88:
 1133              	.L103:
 769:Generated_Source\PSoC4/CyDMA.c ****     CYASSERT(0u == (config->actions             & (uint32)~CYDMA_POST_COMPLETE_ACTIONS));
 1134              		.loc 1 769 0 is_stmt 1
 1135 007e 174B     		ldr	r3, .L105+24
 1136 0080 E269     		ldr	r2, [r4, #28]
 1137 0082 1A42     		tst	r2, r3
 1138 0084 02D0     		beq	.L104
 1139              		.loc 1 769 0 is_stmt 0 discriminator 1
 1140 0086 0020     		movs	r0, #0
 1141 0088 FFF7FEFF 		bl	CyHalt
 1142              	.LVL89:
 1143              	.L104:
 770:Generated_Source\PSoC4/CyDMA.c ****     
 771:Generated_Source\PSoC4/CyDMA.c ****     CYDMA_DESCR_BASE.descriptor[channel][descriptor].ctl = config->dataElementSize     |
 772:Generated_Source\PSoC4/CyDMA.c ****                                                   ((uint32)config->numDataElements-1u) |
 1144              		.loc 1 772 0 is_stmt 1
 1145 008c 6368     		ldr	r3, [r4, #4]
 1146 008e 013B     		subs	r3, r3, #1
 771:Generated_Source\PSoC4/CyDMA.c ****                                                   ((uint32)config->numDataElements-1u) |
 1147              		.loc 1 771 0
 1148 0090 2268     		ldr	r2, [r4]
 1149 0092 1343     		orrs	r3, r2
 1150              		.loc 1 772 0
 1151 0094 A268     		ldr	r2, [r4, #8]
 1152 0096 1343     		orrs	r3, r2
 773:Generated_Source\PSoC4/CyDMA.c ****                                                            config->srcDstTransferWidth |
 1153              		.loc 1 773 0
 1154 0098 E268     		ldr	r2, [r4, #12]
 1155 009a 1343     		orrs	r3, r2
 774:Generated_Source\PSoC4/CyDMA.c ****                                                            config->addressIncrement    |
 1156              		.loc 1 774 0
 1157 009c 2269     		ldr	r2, [r4, #16]
 1158 009e 1343     		orrs	r3, r2
 775:Generated_Source\PSoC4/CyDMA.c ****                                                            config->triggerType         |
 1159              		.loc 1 775 0
 1160 00a0 6269     		ldr	r2, [r4, #20]
 1161 00a2 1343     		orrs	r3, r2
 776:Generated_Source\PSoC4/CyDMA.c ****                                                            config->transferMode        |
 1162              		.loc 1 776 0
ARM GAS  C:\Users\TERENC~1\AppData\Local\Temp\ccD9jUuk.s 			page 36


 1163 00a4 A269     		ldr	r2, [r4, #24]
 1164 00a6 1343     		orrs	r3, r2
 777:Generated_Source\PSoC4/CyDMA.c ****                                                            config->preemptable         |
 778:Generated_Source\PSoC4/CyDMA.c ****                                                            config->actions;
 1165              		.loc 1 778 0
 1166 00a8 E269     		ldr	r2, [r4, #28]
 777:Generated_Source\PSoC4/CyDMA.c ****                                                            config->preemptable         |
 1167              		.loc 1 777 0
 1168 00aa 1343     		orrs	r3, r2
 771:Generated_Source\PSoC4/CyDMA.c ****                                                   ((uint32)config->numDataElements-1u) |
 1169              		.loc 1 771 0
 1170 00ac 7600     		lsls	r6, r6, #1
 1171              	.LVL90:
 1172 00ae 7519     		adds	r5, r6, r5
 1173              	.LVL91:
 1174 00b0 2D01     		lsls	r5, r5, #4
 1175 00b2 0B4A     		ldr	r2, .L105+28
 1176 00b4 9446     		mov	ip, r2
 1177 00b6 6544     		add	r5, r5, ip
 1178 00b8 AB60     		str	r3, [r5, #8]
 779:Generated_Source\PSoC4/CyDMA.c **** 
 780:Generated_Source\PSoC4/CyDMA.c ****     CYDMA_DESCR_BASE.descriptor[channel][descriptor].status = CYDMA_VALID;
 1179              		.loc 1 780 0
 1180 00ba 8023     		movs	r3, #128
 1181 00bc 1B06     		lsls	r3, r3, #24
 1182 00be EB60     		str	r3, [r5, #12]
 781:Generated_Source\PSoC4/CyDMA.c **** }
 1183              		.loc 1 781 0
 1184              		@ sp needed
 1185              	.LVL92:
 1186 00c0 70BD     		pop	{r4, r5, r6, pc}
 1187              	.L106:
 1188 00c2 C046     		.align	2
 1189              	.L105:
 1190 00c4 FFFFFCFF 		.word	-196609
 1191 00c8 FFFF0000 		.word	65535
 1192 00cc FFFFAFFF 		.word	-5242881
 1193 00d0 FFFF5FFF 		.word	-10485761
 1194 00d4 FFFFFFFC 		.word	-50331649
 1195 00d8 FFFFFFEF 		.word	-268435457
 1196 00dc FFFFFFD3 		.word	-738197505
 1197 00e0 00181040 		.word	1074796544
 1198              		.cfi_endproc
 1199              	.LFE26:
 1200              		.size	CyDmaSetConfiguration, .-CyDmaSetConfiguration
 1201              		.section	.text.CyDmaValidateDescriptor,"ax",%progbits
 1202              		.align	2
 1203              		.global	CyDmaValidateDescriptor
 1204              		.code	16
 1205              		.thumb_func
 1206              		.type	CyDmaValidateDescriptor, %function
 1207              	CyDmaValidateDescriptor:
 1208              	.LFB27:
 782:Generated_Source\PSoC4/CyDMA.c **** 
 783:Generated_Source\PSoC4/CyDMA.c **** 
 784:Generated_Source\PSoC4/CyDMA.c **** /*******************************************************************************
 785:Generated_Source\PSoC4/CyDMA.c **** * Function Name: CyDmaValidateDescriptor
ARM GAS  C:\Users\TERENC~1\AppData\Local\Temp\ccD9jUuk.s 			page 37


 786:Generated_Source\PSoC4/CyDMA.c **** ********************************************************************************
 787:Generated_Source\PSoC4/CyDMA.c **** *
 788:Generated_Source\PSoC4/CyDMA.c **** * Summary:
 789:Generated_Source\PSoC4/CyDMA.c **** *  Validates the specified descriptor after it has been invalidated.
 790:Generated_Source\PSoC4/CyDMA.c **** *
 791:Generated_Source\PSoC4/CyDMA.c **** * Parameters:
 792:Generated_Source\PSoC4/CyDMA.c **** *  channel:    Channel used by this function.
 793:Generated_Source\PSoC4/CyDMA.c **** *  descriptor: Descriptor (0 or 1) modified by this function.
 794:Generated_Source\PSoC4/CyDMA.c **** *                   
 795:Generated_Source\PSoC4/CyDMA.c **** * Return:
 796:Generated_Source\PSoC4/CyDMA.c **** *  None. 
 797:Generated_Source\PSoC4/CyDMA.c **** *
 798:Generated_Source\PSoC4/CyDMA.c **** * Side effect:
 799:Generated_Source\PSoC4/CyDMA.c **** *  The status register associated with the specified descriptor is reset to
 800:Generated_Source\PSoC4/CyDMA.c **** *  zero after this function call.
 801:Generated_Source\PSoC4/CyDMA.c **** *  This function should not be called when the specified descriptor is active
 802:Generated_Source\PSoC4/CyDMA.c **** *  in the DMA transfer engine. This can be checked by calling CyDmaGetStatus().
 803:Generated_Source\PSoC4/CyDMA.c **** *
 804:Generated_Source\PSoC4/CyDMA.c **** *******************************************************************************/
 805:Generated_Source\PSoC4/CyDMA.c **** void CyDmaValidateDescriptor(int32 channel, int32 descriptor)
 806:Generated_Source\PSoC4/CyDMA.c **** {
 1209              		.loc 1 806 0
 1210              		.cfi_startproc
 1211              		@ args = 0, pretend = 0, frame = 0
 1212              		@ frame_needed = 0, uses_anonymous_args = 0
 1213              	.LVL93:
 1214 0000 70B5     		push	{r4, r5, r6, lr}
 1215              		.cfi_def_cfa_offset 16
 1216              		.cfi_offset 4, -16
 1217              		.cfi_offset 5, -12
 1218              		.cfi_offset 6, -8
 1219              		.cfi_offset 14, -4
 1220 0002 0500     		movs	r5, r0
 1221 0004 0C00     		movs	r4, r1
 807:Generated_Source\PSoC4/CyDMA.c ****     CYASSERT((channel    >= 0) && (channel    < CYDMA_CH_NR));
 1222              		.loc 1 807 0
 1223 0006 1F28     		cmp	r0, #31
 1224 0008 02D9     		bls	.L108
 1225              		.loc 1 807 0 is_stmt 0 discriminator 1
 1226 000a 0020     		movs	r0, #0
 1227              	.LVL94:
 1228 000c FFF7FEFF 		bl	CyHalt
 1229              	.LVL95:
 1230              	.L108:
 808:Generated_Source\PSoC4/CyDMA.c ****     CYASSERT((descriptor >= 0) && (descriptor < CYDMA_DESCR_NR));
 1231              		.loc 1 808 0 is_stmt 1
 1232 0010 012C     		cmp	r4, #1
 1233 0012 02D9     		bls	.L109
 1234              		.loc 1 808 0 is_stmt 0 discriminator 1
 1235 0014 0020     		movs	r0, #0
 1236 0016 FFF7FEFF 		bl	CyHalt
 1237              	.LVL96:
 1238              	.L109:
 809:Generated_Source\PSoC4/CyDMA.c **** 
 810:Generated_Source\PSoC4/CyDMA.c ****     CYDMA_DESCR_BASE.descriptor[channel][descriptor].status = CYDMA_VALID;
 1239              		.loc 1 810 0 is_stmt 1
 1240 001a 6D00     		lsls	r5, r5, #1
ARM GAS  C:\Users\TERENC~1\AppData\Local\Temp\ccD9jUuk.s 			page 38


 1241              	.LVL97:
 1242 001c 2C19     		adds	r4, r5, r4
 1243              	.LVL98:
 1244 001e 2401     		lsls	r4, r4, #4
 1245 0020 034B     		ldr	r3, .L110
 1246 0022 9C46     		mov	ip, r3
 1247 0024 6444     		add	r4, r4, ip
 1248 0026 8023     		movs	r3, #128
 1249 0028 1B06     		lsls	r3, r3, #24
 1250 002a E360     		str	r3, [r4, #12]
 811:Generated_Source\PSoC4/CyDMA.c **** }
 1251              		.loc 1 811 0
 1252              		@ sp needed
 1253 002c 70BD     		pop	{r4, r5, r6, pc}
 1254              	.L111:
 1255 002e C046     		.align	2
 1256              	.L110:
 1257 0030 00181040 		.word	1074796544
 1258              		.cfi_endproc
 1259              	.LFE27:
 1260              		.size	CyDmaValidateDescriptor, .-CyDmaValidateDescriptor
 1261              		.section	.text.CyDmaGetDescriptorStatus,"ax",%progbits
 1262              		.align	2
 1263              		.global	CyDmaGetDescriptorStatus
 1264              		.code	16
 1265              		.thumb_func
 1266              		.type	CyDmaGetDescriptorStatus, %function
 1267              	CyDmaGetDescriptorStatus:
 1268              	.LFB28:
 812:Generated_Source\PSoC4/CyDMA.c **** 
 813:Generated_Source\PSoC4/CyDMA.c **** 
 814:Generated_Source\PSoC4/CyDMA.c **** /*******************************************************************************
 815:Generated_Source\PSoC4/CyDMA.c **** * Function Name: CyDmaGetDescriptorStatus
 816:Generated_Source\PSoC4/CyDMA.c **** ********************************************************************************
 817:Generated_Source\PSoC4/CyDMA.c **** *
 818:Generated_Source\PSoC4/CyDMA.c **** * Summary:
 819:Generated_Source\PSoC4/CyDMA.c **** *  Returns the status of the specified descriptor.
 820:Generated_Source\PSoC4/CyDMA.c **** *
 821:Generated_Source\PSoC4/CyDMA.c **** * Parameters:
 822:Generated_Source\PSoC4/CyDMA.c **** *  channel:    Channel used by this function.
 823:Generated_Source\PSoC4/CyDMA.c **** *  descriptor: Descriptor (0 or 1) modified by this function.
 824:Generated_Source\PSoC4/CyDMA.c **** *                   
 825:Generated_Source\PSoC4/CyDMA.c **** * Return:
 826:Generated_Source\PSoC4/CyDMA.c **** *  Returns the contents of the specified descriptors status register. Refer to 
 827:Generated_Source\PSoC4/CyDMA.c **** *  descriptor status register bit definitions in CyDMA_P4.h or the API
 828:Generated_Source\PSoC4/CyDMA.c **** *  description in the DMA channel datasheet for more information.
 829:Generated_Source\PSoC4/CyDMA.c **** *
 830:Generated_Source\PSoC4/CyDMA.c **** *******************************************************************************/
 831:Generated_Source\PSoC4/CyDMA.c **** uint32 CyDmaGetDescriptorStatus(int32 channel, int32 descriptor)
 832:Generated_Source\PSoC4/CyDMA.c **** {
 1269              		.loc 1 832 0
 1270              		.cfi_startproc
 1271              		@ args = 0, pretend = 0, frame = 0
 1272              		@ frame_needed = 0, uses_anonymous_args = 0
 1273              	.LVL99:
 1274 0000 70B5     		push	{r4, r5, r6, lr}
 1275              		.cfi_def_cfa_offset 16
ARM GAS  C:\Users\TERENC~1\AppData\Local\Temp\ccD9jUuk.s 			page 39


 1276              		.cfi_offset 4, -16
 1277              		.cfi_offset 5, -12
 1278              		.cfi_offset 6, -8
 1279              		.cfi_offset 14, -4
 1280 0002 0500     		movs	r5, r0
 1281 0004 0C00     		movs	r4, r1
 833:Generated_Source\PSoC4/CyDMA.c ****     CYASSERT((channel    >= 0) && (channel    < CYDMA_CH_NR));
 1282              		.loc 1 833 0
 1283 0006 1F28     		cmp	r0, #31
 1284 0008 02D9     		bls	.L113
 1285              		.loc 1 833 0 is_stmt 0 discriminator 1
 1286 000a 0020     		movs	r0, #0
 1287              	.LVL100:
 1288 000c FFF7FEFF 		bl	CyHalt
 1289              	.LVL101:
 1290              	.L113:
 834:Generated_Source\PSoC4/CyDMA.c ****     CYASSERT((descriptor >= 0) && (descriptor < CYDMA_DESCR_NR));
 1291              		.loc 1 834 0 is_stmt 1
 1292 0010 012C     		cmp	r4, #1
 1293 0012 02D9     		bls	.L114
 1294              		.loc 1 834 0 is_stmt 0 discriminator 1
 1295 0014 0020     		movs	r0, #0
 1296 0016 FFF7FEFF 		bl	CyHalt
 1297              	.LVL102:
 1298              	.L114:
 835:Generated_Source\PSoC4/CyDMA.c **** 
 836:Generated_Source\PSoC4/CyDMA.c ****     return (CYDMA_DESCR_BASE.descriptor[channel][descriptor].status);
 1299              		.loc 1 836 0 is_stmt 1
 1300 001a 6D00     		lsls	r5, r5, #1
 1301              	.LVL103:
 1302 001c 2C19     		adds	r4, r5, r4
 1303              	.LVL104:
 1304 001e 2401     		lsls	r4, r4, #4
 1305 0020 024B     		ldr	r3, .L115
 1306 0022 9C46     		mov	ip, r3
 1307 0024 6444     		add	r4, r4, ip
 1308 0026 E068     		ldr	r0, [r4, #12]
 837:Generated_Source\PSoC4/CyDMA.c **** }
 1309              		.loc 1 837 0
 1310              		@ sp needed
 1311 0028 70BD     		pop	{r4, r5, r6, pc}
 1312              	.L116:
 1313 002a C046     		.align	2
 1314              	.L115:
 1315 002c 00181040 		.word	1074796544
 1316              		.cfi_endproc
 1317              	.LFE28:
 1318              		.size	CyDmaGetDescriptorStatus, .-CyDmaGetDescriptorStatus
 1319              		.section	.text.CyDmaSetSrcAddress,"ax",%progbits
 1320              		.align	2
 1321              		.global	CyDmaSetSrcAddress
 1322              		.code	16
 1323              		.thumb_func
 1324              		.type	CyDmaSetSrcAddress, %function
 1325              	CyDmaSetSrcAddress:
 1326              	.LFB29:
 838:Generated_Source\PSoC4/CyDMA.c **** 
ARM GAS  C:\Users\TERENC~1\AppData\Local\Temp\ccD9jUuk.s 			page 40


 839:Generated_Source\PSoC4/CyDMA.c **** 
 840:Generated_Source\PSoC4/CyDMA.c **** /*******************************************************************************
 841:Generated_Source\PSoC4/CyDMA.c **** * Function Name: CyDmaSetSrcAddress
 842:Generated_Source\PSoC4/CyDMA.c **** ********************************************************************************
 843:Generated_Source\PSoC4/CyDMA.c **** *
 844:Generated_Source\PSoC4/CyDMA.c **** * Summary:
 845:Generated_Source\PSoC4/CyDMA.c **** *  Configures the source address for the specified descriptor.
 846:Generated_Source\PSoC4/CyDMA.c **** *
 847:Generated_Source\PSoC4/CyDMA.c **** * Parameters:
 848:Generated_Source\PSoC4/CyDMA.c **** *  channel:    Channel used by this function.
 849:Generated_Source\PSoC4/CyDMA.c **** *  descriptor: Descriptor (0 or 1) modified by this function.
 850:Generated_Source\PSoC4/CyDMA.c **** *  srcAddress: Address of DMA transfer source.
 851:Generated_Source\PSoC4/CyDMA.c **** *                   
 852:Generated_Source\PSoC4/CyDMA.c **** * Return:
 853:Generated_Source\PSoC4/CyDMA.c **** *  None.
 854:Generated_Source\PSoC4/CyDMA.c **** *
 855:Generated_Source\PSoC4/CyDMA.c **** * Side effect:
 856:Generated_Source\PSoC4/CyDMA.c **** *  This function should not be called when the specified descriptor is active
 857:Generated_Source\PSoC4/CyDMA.c **** *  in the DMA transfer engine. This can be checked by calling CyDmaGetStatus(). 
 858:Generated_Source\PSoC4/CyDMA.c **** *
 859:Generated_Source\PSoC4/CyDMA.c **** *******************************************************************************/
 860:Generated_Source\PSoC4/CyDMA.c **** void CyDmaSetSrcAddress(int32 channel, int32 descriptor, void * srcAddress)
 861:Generated_Source\PSoC4/CyDMA.c **** {
 1327              		.loc 1 861 0
 1328              		.cfi_startproc
 1329              		@ args = 0, pretend = 0, frame = 0
 1330              		@ frame_needed = 0, uses_anonymous_args = 0
 1331              	.LVL105:
 1332 0000 70B5     		push	{r4, r5, r6, lr}
 1333              		.cfi_def_cfa_offset 16
 1334              		.cfi_offset 4, -16
 1335              		.cfi_offset 5, -12
 1336              		.cfi_offset 6, -8
 1337              		.cfi_offset 14, -4
 1338 0002 0500     		movs	r5, r0
 1339 0004 0C00     		movs	r4, r1
 1340 0006 1600     		movs	r6, r2
 862:Generated_Source\PSoC4/CyDMA.c ****     CYASSERT((channel    >= 0) && (channel    < CYDMA_CH_NR));
 1341              		.loc 1 862 0
 1342 0008 1F28     		cmp	r0, #31
 1343 000a 02D9     		bls	.L118
 1344              		.loc 1 862 0 is_stmt 0 discriminator 1
 1345 000c 0020     		movs	r0, #0
 1346              	.LVL106:
 1347 000e FFF7FEFF 		bl	CyHalt
 1348              	.LVL107:
 1349              	.L118:
 863:Generated_Source\PSoC4/CyDMA.c ****     CYASSERT((descriptor >= 0) && (descriptor < CYDMA_DESCR_NR));
 1350              		.loc 1 863 0 is_stmt 1
 1351 0012 012C     		cmp	r4, #1
 1352 0014 02D9     		bls	.L119
 1353              		.loc 1 863 0 is_stmt 0 discriminator 1
 1354 0016 0020     		movs	r0, #0
 1355 0018 FFF7FEFF 		bl	CyHalt
 1356              	.LVL108:
 1357              	.L119:
 864:Generated_Source\PSoC4/CyDMA.c **** 
ARM GAS  C:\Users\TERENC~1\AppData\Local\Temp\ccD9jUuk.s 			page 41


 865:Generated_Source\PSoC4/CyDMA.c ****     CYDMA_DESCR_BASE.descriptor[channel][descriptor].src = srcAddress;
 1358              		.loc 1 865 0 is_stmt 1
 1359 001c 6D00     		lsls	r5, r5, #1
 1360              	.LVL109:
 1361 001e 2C19     		adds	r4, r5, r4
 1362              	.LVL110:
 1363 0020 2401     		lsls	r4, r4, #4
 1364 0022 014B     		ldr	r3, .L120
 1365 0024 E650     		str	r6, [r4, r3]
 866:Generated_Source\PSoC4/CyDMA.c **** }
 1366              		.loc 1 866 0
 1367              		@ sp needed
 1368              	.LVL111:
 1369 0026 70BD     		pop	{r4, r5, r6, pc}
 1370              	.L121:
 1371              		.align	2
 1372              	.L120:
 1373 0028 00181040 		.word	1074796544
 1374              		.cfi_endproc
 1375              	.LFE29:
 1376              		.size	CyDmaSetSrcAddress, .-CyDmaSetSrcAddress
 1377              		.section	.text.CyDmaGetSrcAddress,"ax",%progbits
 1378              		.align	2
 1379              		.global	CyDmaGetSrcAddress
 1380              		.code	16
 1381              		.thumb_func
 1382              		.type	CyDmaGetSrcAddress, %function
 1383              	CyDmaGetSrcAddress:
 1384              	.LFB30:
 867:Generated_Source\PSoC4/CyDMA.c **** 
 868:Generated_Source\PSoC4/CyDMA.c **** 
 869:Generated_Source\PSoC4/CyDMA.c **** /*******************************************************************************
 870:Generated_Source\PSoC4/CyDMA.c **** * Function Name: CyDmaGetSrcAddress
 871:Generated_Source\PSoC4/CyDMA.c **** ********************************************************************************
 872:Generated_Source\PSoC4/CyDMA.c **** *
 873:Generated_Source\PSoC4/CyDMA.c **** * Summary:
 874:Generated_Source\PSoC4/CyDMA.c **** *  Returns the source address for the specified descriptor, set by 
 875:Generated_Source\PSoC4/CyDMA.c **** *  CyDmaSetSrcAddress().
 876:Generated_Source\PSoC4/CyDMA.c **** *
 877:Generated_Source\PSoC4/CyDMA.c **** * Parameters:
 878:Generated_Source\PSoC4/CyDMA.c **** *  channel:    Channel used by this function.
 879:Generated_Source\PSoC4/CyDMA.c **** *  descriptor: Specifies descriptor (0 or 1) used by this function.
 880:Generated_Source\PSoC4/CyDMA.c **** *                   
 881:Generated_Source\PSoC4/CyDMA.c **** * Return:
 882:Generated_Source\PSoC4/CyDMA.c **** *  Source address written to specified descriptor.
 883:Generated_Source\PSoC4/CyDMA.c **** *
 884:Generated_Source\PSoC4/CyDMA.c **** *******************************************************************************/
 885:Generated_Source\PSoC4/CyDMA.c **** void * CyDmaGetSrcAddress(int32 channel, int32 descriptor)
 886:Generated_Source\PSoC4/CyDMA.c **** {
 1385              		.loc 1 886 0
 1386              		.cfi_startproc
 1387              		@ args = 0, pretend = 0, frame = 0
 1388              		@ frame_needed = 0, uses_anonymous_args = 0
 1389              	.LVL112:
 1390 0000 70B5     		push	{r4, r5, r6, lr}
 1391              		.cfi_def_cfa_offset 16
 1392              		.cfi_offset 4, -16
ARM GAS  C:\Users\TERENC~1\AppData\Local\Temp\ccD9jUuk.s 			page 42


 1393              		.cfi_offset 5, -12
 1394              		.cfi_offset 6, -8
 1395              		.cfi_offset 14, -4
 1396 0002 0500     		movs	r5, r0
 1397 0004 0C00     		movs	r4, r1
 887:Generated_Source\PSoC4/CyDMA.c ****     CYASSERT((channel    >= 0) && (channel    < CYDMA_CH_NR));
 1398              		.loc 1 887 0
 1399 0006 1F28     		cmp	r0, #31
 1400 0008 02D9     		bls	.L123
 1401              		.loc 1 887 0 is_stmt 0 discriminator 1
 1402 000a 0020     		movs	r0, #0
 1403              	.LVL113:
 1404 000c FFF7FEFF 		bl	CyHalt
 1405              	.LVL114:
 1406              	.L123:
 888:Generated_Source\PSoC4/CyDMA.c ****     CYASSERT((descriptor >= 0) && (descriptor < CYDMA_DESCR_NR));
 1407              		.loc 1 888 0 is_stmt 1
 1408 0010 012C     		cmp	r4, #1
 1409 0012 02D9     		bls	.L124
 1410              		.loc 1 888 0 is_stmt 0 discriminator 1
 1411 0014 0020     		movs	r0, #0
 1412 0016 FFF7FEFF 		bl	CyHalt
 1413              	.LVL115:
 1414              	.L124:
 889:Generated_Source\PSoC4/CyDMA.c **** 
 890:Generated_Source\PSoC4/CyDMA.c ****     return (CYDMA_DESCR_BASE.descriptor[channel][descriptor].src);
 1415              		.loc 1 890 0 is_stmt 1
 1416 001a 6D00     		lsls	r5, r5, #1
 1417              	.LVL116:
 1418 001c 2C19     		adds	r4, r5, r4
 1419              	.LVL117:
 1420 001e 2401     		lsls	r4, r4, #4
 1421 0020 014B     		ldr	r3, .L125
 1422 0022 E058     		ldr	r0, [r4, r3]
 891:Generated_Source\PSoC4/CyDMA.c **** }
 1423              		.loc 1 891 0
 1424              		@ sp needed
 1425 0024 70BD     		pop	{r4, r5, r6, pc}
 1426              	.L126:
 1427 0026 C046     		.align	2
 1428              	.L125:
 1429 0028 00181040 		.word	1074796544
 1430              		.cfi_endproc
 1431              	.LFE30:
 1432              		.size	CyDmaGetSrcAddress, .-CyDmaGetSrcAddress
 1433              		.section	.text.CyDmaSetDstAddress,"ax",%progbits
 1434              		.align	2
 1435              		.global	CyDmaSetDstAddress
 1436              		.code	16
 1437              		.thumb_func
 1438              		.type	CyDmaSetDstAddress, %function
 1439              	CyDmaSetDstAddress:
 1440              	.LFB31:
 892:Generated_Source\PSoC4/CyDMA.c **** 
 893:Generated_Source\PSoC4/CyDMA.c **** 
 894:Generated_Source\PSoC4/CyDMA.c **** /*******************************************************************************
 895:Generated_Source\PSoC4/CyDMA.c **** * Function Name: CyDmaSetDstAddress
ARM GAS  C:\Users\TERENC~1\AppData\Local\Temp\ccD9jUuk.s 			page 43


 896:Generated_Source\PSoC4/CyDMA.c **** ********************************************************************************
 897:Generated_Source\PSoC4/CyDMA.c **** *
 898:Generated_Source\PSoC4/CyDMA.c **** * Summary:
 899:Generated_Source\PSoC4/CyDMA.c **** *  Configures the destination address for the specified descriptor.
 900:Generated_Source\PSoC4/CyDMA.c **** *
 901:Generated_Source\PSoC4/CyDMA.c **** * Parameters:
 902:Generated_Source\PSoC4/CyDMA.c **** *  channel:    Channel used by this function.
 903:Generated_Source\PSoC4/CyDMA.c **** *  descriptor: Descriptor (0 or 1) modified by this function.
 904:Generated_Source\PSoC4/CyDMA.c **** *  dstAddress: Address of DMA transfer destination.
 905:Generated_Source\PSoC4/CyDMA.c **** *                   
 906:Generated_Source\PSoC4/CyDMA.c **** * Return:
 907:Generated_Source\PSoC4/CyDMA.c **** *  None.
 908:Generated_Source\PSoC4/CyDMA.c **** *
 909:Generated_Source\PSoC4/CyDMA.c **** * Side effect:
 910:Generated_Source\PSoC4/CyDMA.c **** *  This function should not be called when the specified descriptor is active
 911:Generated_Source\PSoC4/CyDMA.c **** *  in the DMA transfer engine. This can be checked by calling CyDmaGetStatus(). 
 912:Generated_Source\PSoC4/CyDMA.c **** *
 913:Generated_Source\PSoC4/CyDMA.c **** *******************************************************************************/
 914:Generated_Source\PSoC4/CyDMA.c **** void CyDmaSetDstAddress(int32 channel, int32 descriptor, void * dstAddress)
 915:Generated_Source\PSoC4/CyDMA.c **** {
 1441              		.loc 1 915 0
 1442              		.cfi_startproc
 1443              		@ args = 0, pretend = 0, frame = 0
 1444              		@ frame_needed = 0, uses_anonymous_args = 0
 1445              	.LVL118:
 1446 0000 70B5     		push	{r4, r5, r6, lr}
 1447              		.cfi_def_cfa_offset 16
 1448              		.cfi_offset 4, -16
 1449              		.cfi_offset 5, -12
 1450              		.cfi_offset 6, -8
 1451              		.cfi_offset 14, -4
 1452 0002 0500     		movs	r5, r0
 1453 0004 0C00     		movs	r4, r1
 1454 0006 1600     		movs	r6, r2
 916:Generated_Source\PSoC4/CyDMA.c ****     CYASSERT((channel    >= 0) && (channel    < CYDMA_CH_NR));
 1455              		.loc 1 916 0
 1456 0008 1F28     		cmp	r0, #31
 1457 000a 02D9     		bls	.L128
 1458              		.loc 1 916 0 is_stmt 0 discriminator 1
 1459 000c 0020     		movs	r0, #0
 1460              	.LVL119:
 1461 000e FFF7FEFF 		bl	CyHalt
 1462              	.LVL120:
 1463              	.L128:
 917:Generated_Source\PSoC4/CyDMA.c ****     CYASSERT((descriptor >= 0) && (descriptor < CYDMA_DESCR_NR));
 1464              		.loc 1 917 0 is_stmt 1
 1465 0012 012C     		cmp	r4, #1
 1466 0014 02D9     		bls	.L129
 1467              		.loc 1 917 0 is_stmt 0 discriminator 1
 1468 0016 0020     		movs	r0, #0
 1469 0018 FFF7FEFF 		bl	CyHalt
 1470              	.LVL121:
 1471              	.L129:
 918:Generated_Source\PSoC4/CyDMA.c **** 
 919:Generated_Source\PSoC4/CyDMA.c ****     CYDMA_DESCR_BASE.descriptor[channel][descriptor].dst = dstAddress;
 1472              		.loc 1 919 0 is_stmt 1
 1473 001c 6D00     		lsls	r5, r5, #1
ARM GAS  C:\Users\TERENC~1\AppData\Local\Temp\ccD9jUuk.s 			page 44


 1474              	.LVL122:
 1475 001e 2C19     		adds	r4, r5, r4
 1476              	.LVL123:
 1477 0020 2401     		lsls	r4, r4, #4
 1478 0022 024B     		ldr	r3, .L130
 1479 0024 9C46     		mov	ip, r3
 1480 0026 6444     		add	r4, r4, ip
 1481 0028 6660     		str	r6, [r4, #4]
 920:Generated_Source\PSoC4/CyDMA.c **** }
 1482              		.loc 1 920 0
 1483              		@ sp needed
 1484              	.LVL124:
 1485 002a 70BD     		pop	{r4, r5, r6, pc}
 1486              	.L131:
 1487              		.align	2
 1488              	.L130:
 1489 002c 00181040 		.word	1074796544
 1490              		.cfi_endproc
 1491              	.LFE31:
 1492              		.size	CyDmaSetDstAddress, .-CyDmaSetDstAddress
 1493              		.section	.text.CyDmaGetDstAddress,"ax",%progbits
 1494              		.align	2
 1495              		.global	CyDmaGetDstAddress
 1496              		.code	16
 1497              		.thumb_func
 1498              		.type	CyDmaGetDstAddress, %function
 1499              	CyDmaGetDstAddress:
 1500              	.LFB32:
 921:Generated_Source\PSoC4/CyDMA.c **** 
 922:Generated_Source\PSoC4/CyDMA.c **** 
 923:Generated_Source\PSoC4/CyDMA.c **** /*******************************************************************************
 924:Generated_Source\PSoC4/CyDMA.c **** * Function Name: CyDmaGetDstAddress
 925:Generated_Source\PSoC4/CyDMA.c **** ********************************************************************************
 926:Generated_Source\PSoC4/CyDMA.c **** *
 927:Generated_Source\PSoC4/CyDMA.c **** * Summary:
 928:Generated_Source\PSoC4/CyDMA.c **** *  Returns the destination address for the specified descriptor, set by 
 929:Generated_Source\PSoC4/CyDMA.c **** *  CyDmaSetDstAddress().
 930:Generated_Source\PSoC4/CyDMA.c **** *
 931:Generated_Source\PSoC4/CyDMA.c **** * Parameters:
 932:Generated_Source\PSoC4/CyDMA.c **** *  channel:    Channel used by this function.
 933:Generated_Source\PSoC4/CyDMA.c **** *  descriptor: Specifies descriptor (0 or 1) used by this function.
 934:Generated_Source\PSoC4/CyDMA.c **** *                   
 935:Generated_Source\PSoC4/CyDMA.c **** * Return:
 936:Generated_Source\PSoC4/CyDMA.c **** *  Destination address written to specified descriptor.
 937:Generated_Source\PSoC4/CyDMA.c **** *
 938:Generated_Source\PSoC4/CyDMA.c **** *******************************************************************************/
 939:Generated_Source\PSoC4/CyDMA.c **** void * CyDmaGetDstAddress(int32 channel, int32 descriptor)
 940:Generated_Source\PSoC4/CyDMA.c **** {
 1501              		.loc 1 940 0
 1502              		.cfi_startproc
 1503              		@ args = 0, pretend = 0, frame = 0
 1504              		@ frame_needed = 0, uses_anonymous_args = 0
 1505              	.LVL125:
 1506 0000 70B5     		push	{r4, r5, r6, lr}
 1507              		.cfi_def_cfa_offset 16
 1508              		.cfi_offset 4, -16
 1509              		.cfi_offset 5, -12
ARM GAS  C:\Users\TERENC~1\AppData\Local\Temp\ccD9jUuk.s 			page 45


 1510              		.cfi_offset 6, -8
 1511              		.cfi_offset 14, -4
 1512 0002 0500     		movs	r5, r0
 1513 0004 0C00     		movs	r4, r1
 941:Generated_Source\PSoC4/CyDMA.c ****     CYASSERT((channel    >= 0) && (channel    < CYDMA_CH_NR));
 1514              		.loc 1 941 0
 1515 0006 1F28     		cmp	r0, #31
 1516 0008 02D9     		bls	.L133
 1517              		.loc 1 941 0 is_stmt 0 discriminator 1
 1518 000a 0020     		movs	r0, #0
 1519              	.LVL126:
 1520 000c FFF7FEFF 		bl	CyHalt
 1521              	.LVL127:
 1522              	.L133:
 942:Generated_Source\PSoC4/CyDMA.c ****     CYASSERT((descriptor >= 0) && (descriptor < CYDMA_DESCR_NR));
 1523              		.loc 1 942 0 is_stmt 1
 1524 0010 012C     		cmp	r4, #1
 1525 0012 02D9     		bls	.L134
 1526              		.loc 1 942 0 is_stmt 0 discriminator 1
 1527 0014 0020     		movs	r0, #0
 1528 0016 FFF7FEFF 		bl	CyHalt
 1529              	.LVL128:
 1530              	.L134:
 943:Generated_Source\PSoC4/CyDMA.c **** 
 944:Generated_Source\PSoC4/CyDMA.c ****     return (CYDMA_DESCR_BASE.descriptor[channel][descriptor].dst);
 1531              		.loc 1 944 0 is_stmt 1
 1532 001a 6D00     		lsls	r5, r5, #1
 1533              	.LVL129:
 1534 001c 2C19     		adds	r4, r5, r4
 1535              	.LVL130:
 1536 001e 2401     		lsls	r4, r4, #4
 1537 0020 024B     		ldr	r3, .L135
 1538 0022 9C46     		mov	ip, r3
 1539 0024 6444     		add	r4, r4, ip
 1540 0026 6068     		ldr	r0, [r4, #4]
 945:Generated_Source\PSoC4/CyDMA.c **** }
 1541              		.loc 1 945 0
 1542              		@ sp needed
 1543 0028 70BD     		pop	{r4, r5, r6, pc}
 1544              	.L136:
 1545 002a C046     		.align	2
 1546              	.L135:
 1547 002c 00181040 		.word	1074796544
 1548              		.cfi_endproc
 1549              	.LFE32:
 1550              		.size	CyDmaGetDstAddress, .-CyDmaGetDstAddress
 1551              		.section	.text.CyDmaSetDataElementSize,"ax",%progbits
 1552              		.align	2
 1553              		.global	CyDmaSetDataElementSize
 1554              		.code	16
 1555              		.thumb_func
 1556              		.type	CyDmaSetDataElementSize, %function
 1557              	CyDmaSetDataElementSize:
 1558              	.LFB33:
 946:Generated_Source\PSoC4/CyDMA.c **** 
 947:Generated_Source\PSoC4/CyDMA.c **** /*******************************************************************************
 948:Generated_Source\PSoC4/CyDMA.c **** * Function Name: CyDmaSetDataElementSize
ARM GAS  C:\Users\TERENC~1\AppData\Local\Temp\ccD9jUuk.s 			page 46


 949:Generated_Source\PSoC4/CyDMA.c **** ********************************************************************************
 950:Generated_Source\PSoC4/CyDMA.c **** *
 951:Generated_Source\PSoC4/CyDMA.c **** * Summary:
 952:Generated_Source\PSoC4/CyDMA.c **** *  Sets the data element size for the specified descriptor.
 953:Generated_Source\PSoC4/CyDMA.c **** *
 954:Generated_Source\PSoC4/CyDMA.c **** * Parameters:
 955:Generated_Source\PSoC4/CyDMA.c **** *  channel:         Channel used by this function.
 956:Generated_Source\PSoC4/CyDMA.c **** *  descriptor:      Descriptor (0 or 1) modified by this function.
 957:Generated_Source\PSoC4/CyDMA.c **** *  dataElementSize: Specifies the size of the data element. The DMA transfer
 958:Generated_Source\PSoC4/CyDMA.c **** *                   engine transfers one data element at a time. How these
 959:Generated_Source\PSoC4/CyDMA.c **** *                   transfers occur is controlled by the transfer mode.
 960:Generated_Source\PSoC4/CyDMA.c **** *                   Refer to the API bit field definitions in CyDMA_P4.h
 961:Generated_Source\PSoC4/CyDMA.c **** *                   or API description in the DMA channel datasheet for the 
 962:Generated_Source\PSoC4/CyDMA.c **** *                   parameter options.
 963:Generated_Source\PSoC4/CyDMA.c **** *
 964:Generated_Source\PSoC4/CyDMA.c **** * Return:
 965:Generated_Source\PSoC4/CyDMA.c **** *  None.
 966:Generated_Source\PSoC4/CyDMA.c **** *
 967:Generated_Source\PSoC4/CyDMA.c **** * Side effect:
 968:Generated_Source\PSoC4/CyDMA.c **** *  This function should not be called when the specified descriptor is active
 969:Generated_Source\PSoC4/CyDMA.c **** *  in the DMA transfer engine. This can be checked by calling CyDmaGetStatus(). 
 970:Generated_Source\PSoC4/CyDMA.c **** *
 971:Generated_Source\PSoC4/CyDMA.c **** *******************************************************************************/
 972:Generated_Source\PSoC4/CyDMA.c **** void CyDmaSetDataElementSize(int32 channel, int32 descriptor, uint32 dataElementSize)
 973:Generated_Source\PSoC4/CyDMA.c **** {
 1559              		.loc 1 973 0
 1560              		.cfi_startproc
 1561              		@ args = 0, pretend = 0, frame = 0
 1562              		@ frame_needed = 0, uses_anonymous_args = 0
 1563              	.LVL131:
 1564 0000 70B5     		push	{r4, r5, r6, lr}
 1565              		.cfi_def_cfa_offset 16
 1566              		.cfi_offset 4, -16
 1567              		.cfi_offset 5, -12
 1568              		.cfi_offset 6, -8
 1569              		.cfi_offset 14, -4
 1570 0002 0500     		movs	r5, r0
 1571 0004 0C00     		movs	r4, r1
 1572 0006 1600     		movs	r6, r2
 974:Generated_Source\PSoC4/CyDMA.c ****     uint32 regValue;
 975:Generated_Source\PSoC4/CyDMA.c ****     
 976:Generated_Source\PSoC4/CyDMA.c ****     CYASSERT((channel    >= 0) && (channel    < CYDMA_CH_NR));
 1573              		.loc 1 976 0
 1574 0008 1F28     		cmp	r0, #31
 1575 000a 02D9     		bls	.L138
 1576              		.loc 1 976 0 is_stmt 0 discriminator 1
 1577 000c 0020     		movs	r0, #0
 1578              	.LVL132:
 1579 000e FFF7FEFF 		bl	CyHalt
 1580              	.LVL133:
 1581              	.L138:
 977:Generated_Source\PSoC4/CyDMA.c ****     CYASSERT((descriptor >= 0) && (descriptor < CYDMA_DESCR_NR));
 1582              		.loc 1 977 0 is_stmt 1
 1583 0012 012C     		cmp	r4, #1
 1584 0014 02D9     		bls	.L139
 1585              		.loc 1 977 0 is_stmt 0 discriminator 1
 1586 0016 0020     		movs	r0, #0
ARM GAS  C:\Users\TERENC~1\AppData\Local\Temp\ccD9jUuk.s 			page 47


 1587 0018 FFF7FEFF 		bl	CyHalt
 1588              	.LVL134:
 1589              	.L139:
 978:Generated_Source\PSoC4/CyDMA.c ****     CYASSERT(0u == (dataElementSize & (uint32)~CYDMA_DATA_SIZE));
 1590              		.loc 1 978 0 is_stmt 1
 1591 001c 084B     		ldr	r3, .L141
 1592 001e 1E42     		tst	r6, r3
 1593 0020 02D0     		beq	.L140
 1594              		.loc 1 978 0 is_stmt 0 discriminator 1
 1595 0022 0020     		movs	r0, #0
 1596 0024 FFF7FEFF 		bl	CyHalt
 1597              	.LVL135:
 1598              	.L140:
 979:Generated_Source\PSoC4/CyDMA.c **** 
 980:Generated_Source\PSoC4/CyDMA.c ****     regValue = CYDMA_DESCR_BASE.descriptor[channel][descriptor].ctl & (uint32)~CYDMA_DATA_SIZE;
 1599              		.loc 1 980 0 is_stmt 1
 1600 0028 6D00     		lsls	r5, r5, #1
 1601              	.LVL136:
 1602 002a 2C19     		adds	r4, r5, r4
 1603              	.LVL137:
 1604 002c 2401     		lsls	r4, r4, #4
 1605 002e 054B     		ldr	r3, .L141+4
 1606 0030 9C46     		mov	ip, r3
 1607 0032 6444     		add	r4, r4, ip
 1608 0034 A268     		ldr	r2, [r4, #8]
 1609 0036 024B     		ldr	r3, .L141
 1610 0038 1A40     		ands	r2, r3
 1611              	.LVL138:
 981:Generated_Source\PSoC4/CyDMA.c ****     CYDMA_DESCR_BASE.descriptor[channel][descriptor].ctl = regValue | dataElementSize;
 1612              		.loc 1 981 0
 1613 003a 3243     		orrs	r2, r6
 1614              	.LVL139:
 1615 003c A260     		str	r2, [r4, #8]
 982:Generated_Source\PSoC4/CyDMA.c **** }
 1616              		.loc 1 982 0
 1617              		@ sp needed
 1618              	.LVL140:
 1619 003e 70BD     		pop	{r4, r5, r6, pc}
 1620              	.L142:
 1621              		.align	2
 1622              	.L141:
 1623 0040 FFFFFCFF 		.word	-196609
 1624 0044 00181040 		.word	1074796544
 1625              		.cfi_endproc
 1626              	.LFE33:
 1627              		.size	CyDmaSetDataElementSize, .-CyDmaSetDataElementSize
 1628              		.section	.text.CyDmaGetDataElementSize,"ax",%progbits
 1629              		.align	2
 1630              		.global	CyDmaGetDataElementSize
 1631              		.code	16
 1632              		.thumb_func
 1633              		.type	CyDmaGetDataElementSize, %function
 1634              	CyDmaGetDataElementSize:
 1635              	.LFB34:
 983:Generated_Source\PSoC4/CyDMA.c **** 
 984:Generated_Source\PSoC4/CyDMA.c **** 
 985:Generated_Source\PSoC4/CyDMA.c **** /*******************************************************************************
ARM GAS  C:\Users\TERENC~1\AppData\Local\Temp\ccD9jUuk.s 			page 48


 986:Generated_Source\PSoC4/CyDMA.c **** * Function Name: CyDmaGetDataElementSize
 987:Generated_Source\PSoC4/CyDMA.c **** ********************************************************************************
 988:Generated_Source\PSoC4/CyDMA.c **** *
 989:Generated_Source\PSoC4/CyDMA.c **** * Summary:
 990:Generated_Source\PSoC4/CyDMA.c **** *  Returns the data element size configured for the specified descriptor, set by
 991:Generated_Source\PSoC4/CyDMA.c **** *  CyDmaSetDataElementSize() or CyDmaSetConfiguration.
 992:Generated_Source\PSoC4/CyDMA.c **** *
 993:Generated_Source\PSoC4/CyDMA.c **** * Parameters:
 994:Generated_Source\PSoC4/CyDMA.c **** *  channel:    Channel used by this function.
 995:Generated_Source\PSoC4/CyDMA.c **** *  descriptor: Descriptor (0 or 1) modified by this function.
 996:Generated_Source\PSoC4/CyDMA.c **** *                   
 997:Generated_Source\PSoC4/CyDMA.c **** * Return:
 998:Generated_Source\PSoC4/CyDMA.c **** *  The size of the data element. The DMA transfer engine transfers one data
 999:Generated_Source\PSoC4/CyDMA.c **** *  element at a time. How these transfers occur is controlled by the transfer
1000:Generated_Source\PSoC4/CyDMA.c **** *  mode. Refer to the API bit field definitions in CyDMA_P4.h or the API 
1001:Generated_Source\PSoC4/CyDMA.c **** *  description in the DMA channel datasheet for more information.
1002:Generated_Source\PSoC4/CyDMA.c **** *
1003:Generated_Source\PSoC4/CyDMA.c **** * Note:
1004:Generated_Source\PSoC4/CyDMA.c **** *  The size of the source and destination can be configured to use the
1005:Generated_Source\PSoC4/CyDMA.c **** *  data element size, or a Word, this is set in CyDmaSetSrcDstTransferWidth().
1006:Generated_Source\PSoC4/CyDMA.c **** *
1007:Generated_Source\PSoC4/CyDMA.c **** *******************************************************************************/
1008:Generated_Source\PSoC4/CyDMA.c **** uint32 CyDmaGetDataElementSize(int32 channel, int32 descriptor)
1009:Generated_Source\PSoC4/CyDMA.c **** {
 1636              		.loc 1 1009 0
 1637              		.cfi_startproc
 1638              		@ args = 0, pretend = 0, frame = 0
 1639              		@ frame_needed = 0, uses_anonymous_args = 0
 1640              	.LVL141:
 1641 0000 70B5     		push	{r4, r5, r6, lr}
 1642              		.cfi_def_cfa_offset 16
 1643              		.cfi_offset 4, -16
 1644              		.cfi_offset 5, -12
 1645              		.cfi_offset 6, -8
 1646              		.cfi_offset 14, -4
 1647 0002 0500     		movs	r5, r0
 1648 0004 0C00     		movs	r4, r1
1010:Generated_Source\PSoC4/CyDMA.c ****     CYASSERT((channel    >= 0) && (channel    < CYDMA_CH_NR));
 1649              		.loc 1 1010 0
 1650 0006 1F28     		cmp	r0, #31
 1651 0008 02D9     		bls	.L144
 1652              		.loc 1 1010 0 is_stmt 0 discriminator 1
 1653 000a 0020     		movs	r0, #0
 1654              	.LVL142:
 1655 000c FFF7FEFF 		bl	CyHalt
 1656              	.LVL143:
 1657              	.L144:
1011:Generated_Source\PSoC4/CyDMA.c ****     CYASSERT((descriptor >= 0) && (descriptor < CYDMA_DESCR_NR));
 1658              		.loc 1 1011 0 is_stmt 1
 1659 0010 012C     		cmp	r4, #1
 1660 0012 02D9     		bls	.L145
 1661              		.loc 1 1011 0 is_stmt 0 discriminator 1
 1662 0014 0020     		movs	r0, #0
 1663 0016 FFF7FEFF 		bl	CyHalt
 1664              	.LVL144:
 1665              	.L145:
1012:Generated_Source\PSoC4/CyDMA.c **** 
ARM GAS  C:\Users\TERENC~1\AppData\Local\Temp\ccD9jUuk.s 			page 49


1013:Generated_Source\PSoC4/CyDMA.c ****     return (CYDMA_DESCR_BASE.descriptor[channel][descriptor].ctl & CYDMA_DATA_SIZE);
 1666              		.loc 1 1013 0 is_stmt 1
 1667 001a 6D00     		lsls	r5, r5, #1
 1668              	.LVL145:
 1669 001c 2C19     		adds	r4, r5, r4
 1670              	.LVL146:
 1671 001e 2401     		lsls	r4, r4, #4
 1672 0020 034B     		ldr	r3, .L146
 1673 0022 9C46     		mov	ip, r3
 1674 0024 6444     		add	r4, r4, ip
 1675 0026 A068     		ldr	r0, [r4, #8]
 1676 0028 C023     		movs	r3, #192
 1677 002a 9B02     		lsls	r3, r3, #10
 1678 002c 1840     		ands	r0, r3
1014:Generated_Source\PSoC4/CyDMA.c **** }
 1679              		.loc 1 1014 0
 1680              		@ sp needed
 1681 002e 70BD     		pop	{r4, r5, r6, pc}
 1682              	.L147:
 1683              		.align	2
 1684              	.L146:
 1685 0030 00181040 		.word	1074796544
 1686              		.cfi_endproc
 1687              	.LFE34:
 1688              		.size	CyDmaGetDataElementSize, .-CyDmaGetDataElementSize
 1689              		.section	.text.CyDmaSetNumDataElements,"ax",%progbits
 1690              		.align	2
 1691              		.global	CyDmaSetNumDataElements
 1692              		.code	16
 1693              		.thumb_func
 1694              		.type	CyDmaSetNumDataElements, %function
 1695              	CyDmaSetNumDataElements:
 1696              	.LFB35:
1015:Generated_Source\PSoC4/CyDMA.c **** 
1016:Generated_Source\PSoC4/CyDMA.c **** 
1017:Generated_Source\PSoC4/CyDMA.c **** /*******************************************************************************
1018:Generated_Source\PSoC4/CyDMA.c **** * Function Name: CyDmaSetNumDataElements
1019:Generated_Source\PSoC4/CyDMA.c **** ********************************************************************************
1020:Generated_Source\PSoC4/CyDMA.c **** *
1021:Generated_Source\PSoC4/CyDMA.c **** * Summary:
1022:Generated_Source\PSoC4/CyDMA.c **** *  Sets the number of data elements to transfer for specified descriptor.
1023:Generated_Source\PSoC4/CyDMA.c **** *
1024:Generated_Source\PSoC4/CyDMA.c **** * Parameters:
1025:Generated_Source\PSoC4/CyDMA.c **** *  channel:         Channel used by this function.
1026:Generated_Source\PSoC4/CyDMA.c **** *  descriptor:      Descriptor (0 or 1) modified by this function.
1027:Generated_Source\PSoC4/CyDMA.c **** *  numDataElements: Total number of data elements this descriptor transfers.
1028:Generated_Source\PSoC4/CyDMA.c **** *                   Valid ranges are 1 to 65536.
1029:Generated_Source\PSoC4/CyDMA.c **** *                   
1030:Generated_Source\PSoC4/CyDMA.c **** * Return:
1031:Generated_Source\PSoC4/CyDMA.c **** *  None.
1032:Generated_Source\PSoC4/CyDMA.c **** *
1033:Generated_Source\PSoC4/CyDMA.c **** * Side effect:
1034:Generated_Source\PSoC4/CyDMA.c **** *  This function should not be called when the specified descriptor is active
1035:Generated_Source\PSoC4/CyDMA.c **** *  in the DMA transfer engine. This can be checked by calling CyDmaGetStatus(). 
1036:Generated_Source\PSoC4/CyDMA.c **** *
1037:Generated_Source\PSoC4/CyDMA.c **** *******************************************************************************/
1038:Generated_Source\PSoC4/CyDMA.c **** void CyDmaSetNumDataElements(int32 channel, int32 descriptor, int32 numDataElements)
ARM GAS  C:\Users\TERENC~1\AppData\Local\Temp\ccD9jUuk.s 			page 50


1039:Generated_Source\PSoC4/CyDMA.c **** {
 1697              		.loc 1 1039 0
 1698              		.cfi_startproc
 1699              		@ args = 0, pretend = 0, frame = 0
 1700              		@ frame_needed = 0, uses_anonymous_args = 0
 1701              	.LVL147:
 1702 0000 70B5     		push	{r4, r5, r6, lr}
 1703              		.cfi_def_cfa_offset 16
 1704              		.cfi_offset 4, -16
 1705              		.cfi_offset 5, -12
 1706              		.cfi_offset 6, -8
 1707              		.cfi_offset 14, -4
 1708 0002 0600     		movs	r6, r0
 1709 0004 0C00     		movs	r4, r1
 1710 0006 1500     		movs	r5, r2
1040:Generated_Source\PSoC4/CyDMA.c ****     uint32 regValue;
1041:Generated_Source\PSoC4/CyDMA.c ****     
1042:Generated_Source\PSoC4/CyDMA.c ****     CYASSERT((channel        >= 0) && (channel         <  CYDMA_CH_NR));
 1711              		.loc 1 1042 0
 1712 0008 1F28     		cmp	r0, #31
 1713 000a 02D9     		bls	.L149
 1714              		.loc 1 1042 0 is_stmt 0 discriminator 1
 1715 000c 0020     		movs	r0, #0
 1716              	.LVL148:
 1717 000e FFF7FEFF 		bl	CyHalt
 1718              	.LVL149:
 1719              	.L149:
1043:Generated_Source\PSoC4/CyDMA.c ****     CYASSERT((descriptor     >= 0) && (descriptor      <  CYDMA_DESCR_NR));
 1720              		.loc 1 1043 0 is_stmt 1
 1721 0012 012C     		cmp	r4, #1
 1722 0014 02D9     		bls	.L150
 1723              		.loc 1 1043 0 is_stmt 0 discriminator 1
 1724 0016 0020     		movs	r0, #0
 1725 0018 FFF7FEFF 		bl	CyHalt
 1726              	.LVL150:
 1727              	.L150:
1044:Generated_Source\PSoC4/CyDMA.c ****     CYASSERT((numDataElements > 0) && (numDataElements <= CYDMA_MAX_DATA_NR));
 1728              		.loc 1 1044 0 is_stmt 1
 1729 001c 6B1E     		subs	r3, r5, #1
 1730 001e 094A     		ldr	r2, .L152
 1731 0020 9342     		cmp	r3, r2
 1732 0022 02D9     		bls	.L151
 1733              		.loc 1 1044 0 is_stmt 0 discriminator 1
 1734 0024 0020     		movs	r0, #0
 1735 0026 FFF7FEFF 		bl	CyHalt
 1736              	.LVL151:
 1737              	.L151:
1045:Generated_Source\PSoC4/CyDMA.c ****     
1046:Generated_Source\PSoC4/CyDMA.c ****     --numDataElements;
 1738              		.loc 1 1046 0 is_stmt 1
 1739 002a 013D     		subs	r5, r5, #1
 1740              	.LVL152:
1047:Generated_Source\PSoC4/CyDMA.c ****     regValue = CYDMA_DESCR_BASE.descriptor[channel][descriptor].ctl & (uint32)~CYDMA_DATA_NR;
 1741              		.loc 1 1047 0
 1742 002c 7600     		lsls	r6, r6, #1
 1743              	.LVL153:
 1744 002e 3419     		adds	r4, r6, r4
ARM GAS  C:\Users\TERENC~1\AppData\Local\Temp\ccD9jUuk.s 			page 51


 1745              	.LVL154:
 1746 0030 2401     		lsls	r4, r4, #4
 1747 0032 054B     		ldr	r3, .L152+4
 1748 0034 9C46     		mov	ip, r3
 1749 0036 6444     		add	r4, r4, ip
 1750 0038 A368     		ldr	r3, [r4, #8]
 1751 003a 1B0C     		lsrs	r3, r3, #16
 1752 003c 1B04     		lsls	r3, r3, #16
 1753              	.LVL155:
1048:Generated_Source\PSoC4/CyDMA.c ****     CYDMA_DESCR_BASE.descriptor[channel][descriptor].ctl = regValue | (uint32)numDataElements;
 1754              		.loc 1 1048 0
 1755 003e 1D43     		orrs	r5, r3
 1756              	.LVL156:
 1757 0040 A560     		str	r5, [r4, #8]
1049:Generated_Source\PSoC4/CyDMA.c **** }
 1758              		.loc 1 1049 0
 1759              		@ sp needed
 1760 0042 70BD     		pop	{r4, r5, r6, pc}
 1761              	.L153:
 1762              		.align	2
 1763              	.L152:
 1764 0044 FFFF0000 		.word	65535
 1765 0048 00181040 		.word	1074796544
 1766              		.cfi_endproc
 1767              	.LFE35:
 1768              		.size	CyDmaSetNumDataElements, .-CyDmaSetNumDataElements
 1769              		.section	.text.CyDmaGetNumDataElements,"ax",%progbits
 1770              		.align	2
 1771              		.global	CyDmaGetNumDataElements
 1772              		.code	16
 1773              		.thumb_func
 1774              		.type	CyDmaGetNumDataElements, %function
 1775              	CyDmaGetNumDataElements:
 1776              	.LFB36:
1050:Generated_Source\PSoC4/CyDMA.c **** 
1051:Generated_Source\PSoC4/CyDMA.c **** 
1052:Generated_Source\PSoC4/CyDMA.c **** /*******************************************************************************
1053:Generated_Source\PSoC4/CyDMA.c **** * Function Name: CyDmaGetNumDataElements
1054:Generated_Source\PSoC4/CyDMA.c **** ********************************************************************************
1055:Generated_Source\PSoC4/CyDMA.c **** *
1056:Generated_Source\PSoC4/CyDMA.c **** * Summary:
1057:Generated_Source\PSoC4/CyDMA.c **** *  Returns the number of data elements to be transferred. Only reflects the
1058:Generated_Source\PSoC4/CyDMA.c **** *  value written by CyDmaSetNumDataElements() or CyDmaSetConfiguration(). This
1059:Generated_Source\PSoC4/CyDMA.c **** *  does not reflect how many elements have been transferred. For that
1060:Generated_Source\PSoC4/CyDMA.c **** *  information use the CyDmaGetDescriptorStatus() function.
1061:Generated_Source\PSoC4/CyDMA.c **** *
1062:Generated_Source\PSoC4/CyDMA.c **** * Parameters:
1063:Generated_Source\PSoC4/CyDMA.c **** *  channel:    Channel used by this function.
1064:Generated_Source\PSoC4/CyDMA.c **** *  descriptor: Descriptor (0 or 1) modified by this function.
1065:Generated_Source\PSoC4/CyDMA.c **** *                   
1066:Generated_Source\PSoC4/CyDMA.c **** * Return:
1067:Generated_Source\PSoC4/CyDMA.c **** *  Number of data elements to transfer.
1068:Generated_Source\PSoC4/CyDMA.c **** *
1069:Generated_Source\PSoC4/CyDMA.c **** *******************************************************************************/
1070:Generated_Source\PSoC4/CyDMA.c **** int32 CyDmaGetNumDataElements(int32 channel, int32 descriptor)
1071:Generated_Source\PSoC4/CyDMA.c **** {
 1777              		.loc 1 1071 0
ARM GAS  C:\Users\TERENC~1\AppData\Local\Temp\ccD9jUuk.s 			page 52


 1778              		.cfi_startproc
 1779              		@ args = 0, pretend = 0, frame = 0
 1780              		@ frame_needed = 0, uses_anonymous_args = 0
 1781              	.LVL157:
 1782 0000 70B5     		push	{r4, r5, r6, lr}
 1783              		.cfi_def_cfa_offset 16
 1784              		.cfi_offset 4, -16
 1785              		.cfi_offset 5, -12
 1786              		.cfi_offset 6, -8
 1787              		.cfi_offset 14, -4
 1788 0002 0500     		movs	r5, r0
 1789 0004 0C00     		movs	r4, r1
1072:Generated_Source\PSoC4/CyDMA.c ****     uint32 numElements;
1073:Generated_Source\PSoC4/CyDMA.c **** 
1074:Generated_Source\PSoC4/CyDMA.c ****     CYASSERT((channel    >= 0) && (channel    < CYDMA_CH_NR));
 1790              		.loc 1 1074 0
 1791 0006 1F28     		cmp	r0, #31
 1792 0008 02D9     		bls	.L155
 1793              		.loc 1 1074 0 is_stmt 0 discriminator 1
 1794 000a 0020     		movs	r0, #0
 1795              	.LVL158:
 1796 000c FFF7FEFF 		bl	CyHalt
 1797              	.LVL159:
 1798              	.L155:
1075:Generated_Source\PSoC4/CyDMA.c ****     CYASSERT((descriptor >= 0) && (descriptor < CYDMA_DESCR_NR));
 1799              		.loc 1 1075 0 is_stmt 1
 1800 0010 012C     		cmp	r4, #1
 1801 0012 02D9     		bls	.L156
 1802              		.loc 1 1075 0 is_stmt 0 discriminator 1
 1803 0014 0020     		movs	r0, #0
 1804 0016 FFF7FEFF 		bl	CyHalt
 1805              	.LVL160:
 1806              	.L156:
1076:Generated_Source\PSoC4/CyDMA.c ****     
1077:Generated_Source\PSoC4/CyDMA.c ****     numElements = (CYDMA_DESCR_BASE.descriptor[channel][descriptor].ctl & CYDMA_DATA_NR) + 1u;
 1807              		.loc 1 1077 0 is_stmt 1
 1808 001a 6D00     		lsls	r5, r5, #1
 1809              	.LVL161:
 1810 001c 2C19     		adds	r4, r5, r4
 1811              	.LVL162:
 1812 001e 2401     		lsls	r4, r4, #4
 1813 0020 034B     		ldr	r3, .L157
 1814 0022 9C46     		mov	ip, r3
 1815 0024 6444     		add	r4, r4, ip
 1816 0026 A068     		ldr	r0, [r4, #8]
 1817 0028 0004     		lsls	r0, r0, #16
 1818 002a 000C     		lsrs	r0, r0, #16
 1819 002c 0130     		adds	r0, r0, #1
 1820              	.LVL163:
1078:Generated_Source\PSoC4/CyDMA.c ****     return ((int32)numElements);
1079:Generated_Source\PSoC4/CyDMA.c **** }
 1821              		.loc 1 1079 0
 1822              		@ sp needed
 1823 002e 70BD     		pop	{r4, r5, r6, pc}
 1824              	.L158:
 1825              		.align	2
 1826              	.L157:
ARM GAS  C:\Users\TERENC~1\AppData\Local\Temp\ccD9jUuk.s 			page 53


 1827 0030 00181040 		.word	1074796544
 1828              		.cfi_endproc
 1829              	.LFE36:
 1830              		.size	CyDmaGetNumDataElements, .-CyDmaGetNumDataElements
 1831              		.section	.text.CyDmaSetSrcDstTransferWidth,"ax",%progbits
 1832              		.align	2
 1833              		.global	CyDmaSetSrcDstTransferWidth
 1834              		.code	16
 1835              		.thumb_func
 1836              		.type	CyDmaSetSrcDstTransferWidth, %function
 1837              	CyDmaSetSrcDstTransferWidth:
 1838              	.LFB37:
1080:Generated_Source\PSoC4/CyDMA.c **** 
1081:Generated_Source\PSoC4/CyDMA.c **** 
1082:Generated_Source\PSoC4/CyDMA.c **** /*******************************************************************************
1083:Generated_Source\PSoC4/CyDMA.c **** * Function Name: CyDmaSetSrcDstTransferWidth
1084:Generated_Source\PSoC4/CyDMA.c **** ********************************************************************************
1085:Generated_Source\PSoC4/CyDMA.c **** *
1086:Generated_Source\PSoC4/CyDMA.c **** * Summary:
1087:Generated_Source\PSoC4/CyDMA.c **** *  Sets the width of the source and destination. The DMA can either read and
1088:Generated_Source\PSoC4/CyDMA.c **** *  write data from the source and destination at the size specified by
1089:Generated_Source\PSoC4/CyDMA.c **** *  CyDmaSetDataElementSize() or by a word (4bytes). This also determines how
1090:Generated_Source\PSoC4/CyDMA.c **** *  many bytes the addresses are incremented if increment source and destination
1091:Generated_Source\PSoC4/CyDMA.c **** *  address are turned on.
1092:Generated_Source\PSoC4/CyDMA.c **** *
1093:Generated_Source\PSoC4/CyDMA.c **** * Parameters:
1094:Generated_Source\PSoC4/CyDMA.c **** *  channel:       Channel used by this function.
1095:Generated_Source\PSoC4/CyDMA.c **** *  descriptor:    Descriptor (0 or 1) modified by this function.
1096:Generated_Source\PSoC4/CyDMA.c **** *  transferWidth: Specifies the source and destination widths. Refer to 
1097:Generated_Source\PSoC4/CyDMA.c **** *                 the API bit field definitions in CyDMA_P4.h or the API
1098:Generated_Source\PSoC4/CyDMA.c **** *                 description in the DMA channel datasheet for the parameter
1099:Generated_Source\PSoC4/CyDMA.c **** *                 options.
1100:Generated_Source\PSoC4/CyDMA.c **** *                   
1101:Generated_Source\PSoC4/CyDMA.c **** * Return:
1102:Generated_Source\PSoC4/CyDMA.c **** *  None.
1103:Generated_Source\PSoC4/CyDMA.c **** *
1104:Generated_Source\PSoC4/CyDMA.c **** * Side effect:
1105:Generated_Source\PSoC4/CyDMA.c **** *  This function should not be called when the specified descriptor is active
1106:Generated_Source\PSoC4/CyDMA.c **** *  in the DMA transfer engine. This can be checked by calling CyDmaGetStatus(). 
1107:Generated_Source\PSoC4/CyDMA.c **** *
1108:Generated_Source\PSoC4/CyDMA.c **** *******************************************************************************/
1109:Generated_Source\PSoC4/CyDMA.c **** void CyDmaSetSrcDstTransferWidth(int32 channel, int32 descriptor, uint32 transferWidth)
1110:Generated_Source\PSoC4/CyDMA.c **** {
 1839              		.loc 1 1110 0
 1840              		.cfi_startproc
 1841              		@ args = 0, pretend = 0, frame = 0
 1842              		@ frame_needed = 0, uses_anonymous_args = 0
 1843              	.LVL164:
 1844 0000 70B5     		push	{r4, r5, r6, lr}
 1845              		.cfi_def_cfa_offset 16
 1846              		.cfi_offset 4, -16
 1847              		.cfi_offset 5, -12
 1848              		.cfi_offset 6, -8
 1849              		.cfi_offset 14, -4
 1850 0002 0500     		movs	r5, r0
 1851 0004 0C00     		movs	r4, r1
 1852 0006 1600     		movs	r6, r2
ARM GAS  C:\Users\TERENC~1\AppData\Local\Temp\ccD9jUuk.s 			page 54


1111:Generated_Source\PSoC4/CyDMA.c ****     uint32 regValue;
1112:Generated_Source\PSoC4/CyDMA.c **** 
1113:Generated_Source\PSoC4/CyDMA.c ****     CYASSERT((channel    >= 0) && (channel    < CYDMA_CH_NR));
 1853              		.loc 1 1113 0
 1854 0008 1F28     		cmp	r0, #31
 1855 000a 02D9     		bls	.L160
 1856              		.loc 1 1113 0 is_stmt 0 discriminator 1
 1857 000c 0020     		movs	r0, #0
 1858              	.LVL165:
 1859 000e FFF7FEFF 		bl	CyHalt
 1860              	.LVL166:
 1861              	.L160:
1114:Generated_Source\PSoC4/CyDMA.c ****     CYASSERT((descriptor >= 0) && (descriptor < CYDMA_DESCR_NR));
 1862              		.loc 1 1114 0 is_stmt 1
 1863 0012 012C     		cmp	r4, #1
 1864 0014 02D9     		bls	.L161
 1865              		.loc 1 1114 0 is_stmt 0 discriminator 1
 1866 0016 0020     		movs	r0, #0
 1867 0018 FFF7FEFF 		bl	CyHalt
 1868              	.LVL167:
 1869              	.L161:
1115:Generated_Source\PSoC4/CyDMA.c ****     CYASSERT(0u == (transferWidth & (uint32)~CYDMA_TRANSFER_WIDTH));
 1870              		.loc 1 1115 0 is_stmt 1
 1871 001c 084B     		ldr	r3, .L163
 1872 001e 1E42     		tst	r6, r3
 1873 0020 02D0     		beq	.L162
 1874              		.loc 1 1115 0 is_stmt 0 discriminator 1
 1875 0022 0020     		movs	r0, #0
 1876 0024 FFF7FEFF 		bl	CyHalt
 1877              	.LVL168:
 1878              	.L162:
1116:Generated_Source\PSoC4/CyDMA.c **** 
1117:Generated_Source\PSoC4/CyDMA.c ****     regValue = CYDMA_DESCR_BASE.descriptor[channel][descriptor].ctl & (uint32)~CYDMA_TRANSFER_WIDTH
 1879              		.loc 1 1117 0 is_stmt 1
 1880 0028 6D00     		lsls	r5, r5, #1
 1881              	.LVL169:
 1882 002a 2C19     		adds	r4, r5, r4
 1883              	.LVL170:
 1884 002c 2401     		lsls	r4, r4, #4
 1885 002e 054B     		ldr	r3, .L163+4
 1886 0030 9C46     		mov	ip, r3
 1887 0032 6444     		add	r4, r4, ip
 1888 0034 A268     		ldr	r2, [r4, #8]
 1889 0036 024B     		ldr	r3, .L163
 1890 0038 1A40     		ands	r2, r3
 1891              	.LVL171:
1118:Generated_Source\PSoC4/CyDMA.c ****     CYDMA_DESCR_BASE.descriptor[channel][descriptor].ctl = regValue | transferWidth;
 1892              		.loc 1 1118 0
 1893 003a 3243     		orrs	r2, r6
 1894              	.LVL172:
 1895 003c A260     		str	r2, [r4, #8]
1119:Generated_Source\PSoC4/CyDMA.c **** }
 1896              		.loc 1 1119 0
 1897              		@ sp needed
 1898              	.LVL173:
 1899 003e 70BD     		pop	{r4, r5, r6, pc}
 1900              	.L164:
ARM GAS  C:\Users\TERENC~1\AppData\Local\Temp\ccD9jUuk.s 			page 55


 1901              		.align	2
 1902              	.L163:
 1903 0040 FFFFAFFF 		.word	-5242881
 1904 0044 00181040 		.word	1074796544
 1905              		.cfi_endproc
 1906              	.LFE37:
 1907              		.size	CyDmaSetSrcDstTransferWidth, .-CyDmaSetSrcDstTransferWidth
 1908              		.section	.text.CyDmaGetSrcDstTransferWidth,"ax",%progbits
 1909              		.align	2
 1910              		.global	CyDmaGetSrcDstTransferWidth
 1911              		.code	16
 1912              		.thumb_func
 1913              		.type	CyDmaGetSrcDstTransferWidth, %function
 1914              	CyDmaGetSrcDstTransferWidth:
 1915              	.LFB38:
1120:Generated_Source\PSoC4/CyDMA.c **** 
1121:Generated_Source\PSoC4/CyDMA.c **** 
1122:Generated_Source\PSoC4/CyDMA.c **** /*******************************************************************************
1123:Generated_Source\PSoC4/CyDMA.c **** * Function Name: CyDmaGetSrcDstTransferWidth
1124:Generated_Source\PSoC4/CyDMA.c **** ********************************************************************************
1125:Generated_Source\PSoC4/CyDMA.c **** *
1126:Generated_Source\PSoC4/CyDMA.c **** * Summary:
1127:Generated_Source\PSoC4/CyDMA.c **** *  Returns the width of the source and destination, as set by 
1128:Generated_Source\PSoC4/CyDMA.c **** *  CyDmaSetSrcDstTransferWidth() or CyDmaSetConfiguration().
1129:Generated_Source\PSoC4/CyDMA.c **** *
1130:Generated_Source\PSoC4/CyDMA.c **** * Parameters:
1131:Generated_Source\PSoC4/CyDMA.c **** *  channel:    Channel used by this function.
1132:Generated_Source\PSoC4/CyDMA.c **** *  descriptor: Descriptor (0 or 1) modified by this function.
1133:Generated_Source\PSoC4/CyDMA.c **** *                   
1134:Generated_Source\PSoC4/CyDMA.c **** * Return:
1135:Generated_Source\PSoC4/CyDMA.c **** *  Width of source and destination. Refer to the API bit field definitions in
1136:Generated_Source\PSoC4/CyDMA.c **** *  CyDMA_P4.h or the API description in the DMA channel datasheet for more
1137:Generated_Source\PSoC4/CyDMA.c **** *  information.
1138:Generated_Source\PSoC4/CyDMA.c **** *
1139:Generated_Source\PSoC4/CyDMA.c **** *******************************************************************************/
1140:Generated_Source\PSoC4/CyDMA.c **** uint32 CyDmaGetSrcDstTransferWidth(int32 channel, int32 descriptor)
1141:Generated_Source\PSoC4/CyDMA.c **** {
 1916              		.loc 1 1141 0
 1917              		.cfi_startproc
 1918              		@ args = 0, pretend = 0, frame = 0
 1919              		@ frame_needed = 0, uses_anonymous_args = 0
 1920              	.LVL174:
 1921 0000 70B5     		push	{r4, r5, r6, lr}
 1922              		.cfi_def_cfa_offset 16
 1923              		.cfi_offset 4, -16
 1924              		.cfi_offset 5, -12
 1925              		.cfi_offset 6, -8
 1926              		.cfi_offset 14, -4
 1927 0002 0500     		movs	r5, r0
 1928 0004 0C00     		movs	r4, r1
1142:Generated_Source\PSoC4/CyDMA.c ****     CYASSERT((channel    >= 0) && (channel    < CYDMA_CH_NR));
 1929              		.loc 1 1142 0
 1930 0006 1F28     		cmp	r0, #31
 1931 0008 02D9     		bls	.L166
 1932              		.loc 1 1142 0 is_stmt 0 discriminator 1
 1933 000a 0020     		movs	r0, #0
 1934              	.LVL175:
ARM GAS  C:\Users\TERENC~1\AppData\Local\Temp\ccD9jUuk.s 			page 56


 1935 000c FFF7FEFF 		bl	CyHalt
 1936              	.LVL176:
 1937              	.L166:
1143:Generated_Source\PSoC4/CyDMA.c ****     CYASSERT((descriptor >= 0) && (descriptor < CYDMA_DESCR_NR));
 1938              		.loc 1 1143 0 is_stmt 1
 1939 0010 012C     		cmp	r4, #1
 1940 0012 02D9     		bls	.L167
 1941              		.loc 1 1143 0 is_stmt 0 discriminator 1
 1942 0014 0020     		movs	r0, #0
 1943 0016 FFF7FEFF 		bl	CyHalt
 1944              	.LVL177:
 1945              	.L167:
1144:Generated_Source\PSoC4/CyDMA.c ****     return (CYDMA_DESCR_BASE.descriptor[channel][descriptor].ctl & CYDMA_TRANSFER_WIDTH);
 1946              		.loc 1 1144 0 is_stmt 1
 1947 001a 6D00     		lsls	r5, r5, #1
 1948              	.LVL178:
 1949 001c 2C19     		adds	r4, r5, r4
 1950              	.LVL179:
 1951 001e 2401     		lsls	r4, r4, #4
 1952 0020 034B     		ldr	r3, .L168
 1953 0022 9C46     		mov	ip, r3
 1954 0024 6444     		add	r4, r4, ip
 1955 0026 A068     		ldr	r0, [r4, #8]
 1956 0028 A023     		movs	r3, #160
 1957 002a DB03     		lsls	r3, r3, #15
 1958 002c 1840     		ands	r0, r3
1145:Generated_Source\PSoC4/CyDMA.c **** }
 1959              		.loc 1 1145 0
 1960              		@ sp needed
 1961 002e 70BD     		pop	{r4, r5, r6, pc}
 1962              	.L169:
 1963              		.align	2
 1964              	.L168:
 1965 0030 00181040 		.word	1074796544
 1966              		.cfi_endproc
 1967              	.LFE38:
 1968              		.size	CyDmaGetSrcDstTransferWidth, .-CyDmaGetSrcDstTransferWidth
 1969              		.section	.text.CyDmaSetAddressIncrement,"ax",%progbits
 1970              		.align	2
 1971              		.global	CyDmaSetAddressIncrement
 1972              		.code	16
 1973              		.thumb_func
 1974              		.type	CyDmaSetAddressIncrement, %function
 1975              	CyDmaSetAddressIncrement:
 1976              	.LFB39:
1146:Generated_Source\PSoC4/CyDMA.c **** 
1147:Generated_Source\PSoC4/CyDMA.c **** 
1148:Generated_Source\PSoC4/CyDMA.c **** /*******************************************************************************
1149:Generated_Source\PSoC4/CyDMA.c **** * Function Name: CyDmaSetAddressIncrement
1150:Generated_Source\PSoC4/CyDMA.c **** ********************************************************************************
1151:Generated_Source\PSoC4/CyDMA.c **** *
1152:Generated_Source\PSoC4/CyDMA.c **** * Summary:
1153:Generated_Source\PSoC4/CyDMA.c **** *  Sets whether the source or destination addresses are incremented after the
1154:Generated_Source\PSoC4/CyDMA.c **** *  transfer of each data element. The amount that the source and destination
1155:Generated_Source\PSoC4/CyDMA.c **** *  address are incremented is determined by the CyDmaSetSrcDstTransferWidth()
1156:Generated_Source\PSoC4/CyDMA.c **** *  function. The addresses will either be incremented by the data element size
1157:Generated_Source\PSoC4/CyDMA.c **** *  or by a word (4 bytes).
ARM GAS  C:\Users\TERENC~1\AppData\Local\Temp\ccD9jUuk.s 			page 57


1158:Generated_Source\PSoC4/CyDMA.c **** *
1159:Generated_Source\PSoC4/CyDMA.c **** * Parameters:
1160:Generated_Source\PSoC4/CyDMA.c **** *  channel:          Channel used by this function.
1161:Generated_Source\PSoC4/CyDMA.c **** *  descriptor:       Descriptor (0 or 1) modified by this function.
1162:Generated_Source\PSoC4/CyDMA.c **** *  addressIncrement: Address increment settings. Refer to the API bit fields 
1163:Generated_Source\PSoC4/CyDMA.c **** *                    definition in CyDMA_P4.h or the API description in the DMA
1164:Generated_Source\PSoC4/CyDMA.c **** *                    channel datasheet for the parameter options.
1165:Generated_Source\PSoC4/CyDMA.c **** *    
1166:Generated_Source\PSoC4/CyDMA.c **** * Return:
1167:Generated_Source\PSoC4/CyDMA.c **** *  None.
1168:Generated_Source\PSoC4/CyDMA.c **** *
1169:Generated_Source\PSoC4/CyDMA.c **** * Side effect:
1170:Generated_Source\PSoC4/CyDMA.c **** *  This function should not be called when the specified descriptor is active
1171:Generated_Source\PSoC4/CyDMA.c **** *  in the DMA transfer engine. This can be checked by calling CyDmaGetStatus(). 
1172:Generated_Source\PSoC4/CyDMA.c **** *
1173:Generated_Source\PSoC4/CyDMA.c **** *******************************************************************************/
1174:Generated_Source\PSoC4/CyDMA.c **** void CyDmaSetAddressIncrement(int32 channel, int32 descriptor, uint32 addressIncrement)
1175:Generated_Source\PSoC4/CyDMA.c **** {
 1977              		.loc 1 1175 0
 1978              		.cfi_startproc
 1979              		@ args = 0, pretend = 0, frame = 0
 1980              		@ frame_needed = 0, uses_anonymous_args = 0
 1981              	.LVL180:
 1982 0000 70B5     		push	{r4, r5, r6, lr}
 1983              		.cfi_def_cfa_offset 16
 1984              		.cfi_offset 4, -16
 1985              		.cfi_offset 5, -12
 1986              		.cfi_offset 6, -8
 1987              		.cfi_offset 14, -4
 1988 0002 0500     		movs	r5, r0
 1989 0004 0C00     		movs	r4, r1
 1990 0006 1600     		movs	r6, r2
1176:Generated_Source\PSoC4/CyDMA.c ****     uint32 regValue;
1177:Generated_Source\PSoC4/CyDMA.c **** 
1178:Generated_Source\PSoC4/CyDMA.c ****     CYASSERT((channel    >= 0) && (channel    < CYDMA_CH_NR));
 1991              		.loc 1 1178 0
 1992 0008 1F28     		cmp	r0, #31
 1993 000a 02D9     		bls	.L171
 1994              		.loc 1 1178 0 is_stmt 0 discriminator 1
 1995 000c 0020     		movs	r0, #0
 1996              	.LVL181:
 1997 000e FFF7FEFF 		bl	CyHalt
 1998              	.LVL182:
 1999              	.L171:
1179:Generated_Source\PSoC4/CyDMA.c ****     CYASSERT((descriptor >= 0) && (descriptor < CYDMA_DESCR_NR));
 2000              		.loc 1 1179 0 is_stmt 1
 2001 0012 012C     		cmp	r4, #1
 2002 0014 02D9     		bls	.L172
 2003              		.loc 1 1179 0 is_stmt 0 discriminator 1
 2004 0016 0020     		movs	r0, #0
 2005 0018 FFF7FEFF 		bl	CyHalt
 2006              	.LVL183:
 2007              	.L172:
1180:Generated_Source\PSoC4/CyDMA.c ****     CYASSERT(0u == (addressIncrement & (uint32)~CYDMA_ADDR_INCR));
 2008              		.loc 1 1180 0 is_stmt 1
 2009 001c 084B     		ldr	r3, .L174
 2010 001e 1E42     		tst	r6, r3
ARM GAS  C:\Users\TERENC~1\AppData\Local\Temp\ccD9jUuk.s 			page 58


 2011 0020 02D0     		beq	.L173
 2012              		.loc 1 1180 0 is_stmt 0 discriminator 1
 2013 0022 0020     		movs	r0, #0
 2014 0024 FFF7FEFF 		bl	CyHalt
 2015              	.LVL184:
 2016              	.L173:
1181:Generated_Source\PSoC4/CyDMA.c **** 
1182:Generated_Source\PSoC4/CyDMA.c ****     regValue = CYDMA_DESCR_BASE.descriptor[channel][descriptor].ctl & (uint32)~CYDMA_ADDR_INCR;
 2017              		.loc 1 1182 0 is_stmt 1
 2018 0028 6D00     		lsls	r5, r5, #1
 2019              	.LVL185:
 2020 002a 2C19     		adds	r4, r5, r4
 2021              	.LVL186:
 2022 002c 2401     		lsls	r4, r4, #4
 2023 002e 054B     		ldr	r3, .L174+4
 2024 0030 9C46     		mov	ip, r3
 2025 0032 6444     		add	r4, r4, ip
 2026 0034 A268     		ldr	r2, [r4, #8]
 2027 0036 024B     		ldr	r3, .L174
 2028 0038 1A40     		ands	r2, r3
 2029              	.LVL187:
1183:Generated_Source\PSoC4/CyDMA.c ****     CYDMA_DESCR_BASE.descriptor[channel][descriptor].ctl = regValue | addressIncrement;
 2030              		.loc 1 1183 0
 2031 003a 3243     		orrs	r2, r6
 2032              	.LVL188:
 2033 003c A260     		str	r2, [r4, #8]
1184:Generated_Source\PSoC4/CyDMA.c **** }
 2034              		.loc 1 1184 0
 2035              		@ sp needed
 2036              	.LVL189:
 2037 003e 70BD     		pop	{r4, r5, r6, pc}
 2038              	.L175:
 2039              		.align	2
 2040              	.L174:
 2041 0040 FFFF5FFF 		.word	-10485761
 2042 0044 00181040 		.word	1074796544
 2043              		.cfi_endproc
 2044              	.LFE39:
 2045              		.size	CyDmaSetAddressIncrement, .-CyDmaSetAddressIncrement
 2046              		.section	.text.CyDmaGetAddressIncrement,"ax",%progbits
 2047              		.align	2
 2048              		.global	CyDmaGetAddressIncrement
 2049              		.code	16
 2050              		.thumb_func
 2051              		.type	CyDmaGetAddressIncrement, %function
 2052              	CyDmaGetAddressIncrement:
 2053              	.LFB40:
1185:Generated_Source\PSoC4/CyDMA.c **** 
1186:Generated_Source\PSoC4/CyDMA.c **** 
1187:Generated_Source\PSoC4/CyDMA.c **** /*******************************************************************************
1188:Generated_Source\PSoC4/CyDMA.c **** * Function Name: CyDmaGetAddressIncrement
1189:Generated_Source\PSoC4/CyDMA.c **** ********************************************************************************
1190:Generated_Source\PSoC4/CyDMA.c **** *
1191:Generated_Source\PSoC4/CyDMA.c **** * Summary:
1192:Generated_Source\PSoC4/CyDMA.c **** *  Returns address increment settings as set by CyDmaSetAddressIncrement() or
1193:Generated_Source\PSoC4/CyDMA.c **** *  CyDmaSetConfiguration().
1194:Generated_Source\PSoC4/CyDMA.c **** *
ARM GAS  C:\Users\TERENC~1\AppData\Local\Temp\ccD9jUuk.s 			page 59


1195:Generated_Source\PSoC4/CyDMA.c **** * Parameters:
1196:Generated_Source\PSoC4/CyDMA.c **** *  channel:    Channel used by this function.
1197:Generated_Source\PSoC4/CyDMA.c **** *  descriptor: Descriptor (0 or 1) modified by this function.
1198:Generated_Source\PSoC4/CyDMA.c **** *                   
1199:Generated_Source\PSoC4/CyDMA.c **** * Return:
1200:Generated_Source\PSoC4/CyDMA.c **** *  Address increment settings. Refer to the API bit field definitions in
1201:Generated_Source\PSoC4/CyDMA.c **** *  CyDMA_P4.h or the API description in the DMA channel datasheet for more
1202:Generated_Source\PSoC4/CyDMA.c **** *  information.
1203:Generated_Source\PSoC4/CyDMA.c **** *
1204:Generated_Source\PSoC4/CyDMA.c **** *******************************************************************************/
1205:Generated_Source\PSoC4/CyDMA.c **** uint32 CyDmaGetAddressIncrement(int32 channel, int32 descriptor)
1206:Generated_Source\PSoC4/CyDMA.c **** {
 2054              		.loc 1 1206 0
 2055              		.cfi_startproc
 2056              		@ args = 0, pretend = 0, frame = 0
 2057              		@ frame_needed = 0, uses_anonymous_args = 0
 2058              	.LVL190:
 2059 0000 70B5     		push	{r4, r5, r6, lr}
 2060              		.cfi_def_cfa_offset 16
 2061              		.cfi_offset 4, -16
 2062              		.cfi_offset 5, -12
 2063              		.cfi_offset 6, -8
 2064              		.cfi_offset 14, -4
 2065 0002 0500     		movs	r5, r0
 2066 0004 0C00     		movs	r4, r1
1207:Generated_Source\PSoC4/CyDMA.c ****     CYASSERT((channel    >= 0) && (channel    < CYDMA_CH_NR));
 2067              		.loc 1 1207 0
 2068 0006 1F28     		cmp	r0, #31
 2069 0008 02D9     		bls	.L177
 2070              		.loc 1 1207 0 is_stmt 0 discriminator 1
 2071 000a 0020     		movs	r0, #0
 2072              	.LVL191:
 2073 000c FFF7FEFF 		bl	CyHalt
 2074              	.LVL192:
 2075              	.L177:
1208:Generated_Source\PSoC4/CyDMA.c ****     CYASSERT((descriptor >= 0) && (descriptor < CYDMA_DESCR_NR));
 2076              		.loc 1 1208 0 is_stmt 1
 2077 0010 012C     		cmp	r4, #1
 2078 0012 02D9     		bls	.L178
 2079              		.loc 1 1208 0 is_stmt 0 discriminator 1
 2080 0014 0020     		movs	r0, #0
 2081 0016 FFF7FEFF 		bl	CyHalt
 2082              	.LVL193:
 2083              	.L178:
1209:Generated_Source\PSoC4/CyDMA.c **** 
1210:Generated_Source\PSoC4/CyDMA.c ****     return (CYDMA_DESCR_BASE.descriptor[channel][descriptor].ctl & CYDMA_ADDR_INCR);
 2084              		.loc 1 1210 0 is_stmt 1
 2085 001a 6D00     		lsls	r5, r5, #1
 2086              	.LVL194:
 2087 001c 2C19     		adds	r4, r5, r4
 2088              	.LVL195:
 2089 001e 2401     		lsls	r4, r4, #4
 2090 0020 034B     		ldr	r3, .L179
 2091 0022 9C46     		mov	ip, r3
 2092 0024 6444     		add	r4, r4, ip
 2093 0026 A068     		ldr	r0, [r4, #8]
 2094 0028 A023     		movs	r3, #160
ARM GAS  C:\Users\TERENC~1\AppData\Local\Temp\ccD9jUuk.s 			page 60


 2095 002a 1B04     		lsls	r3, r3, #16
 2096 002c 1840     		ands	r0, r3
1211:Generated_Source\PSoC4/CyDMA.c **** }
 2097              		.loc 1 1211 0
 2098              		@ sp needed
 2099 002e 70BD     		pop	{r4, r5, r6, pc}
 2100              	.L180:
 2101              		.align	2
 2102              	.L179:
 2103 0030 00181040 		.word	1074796544
 2104              		.cfi_endproc
 2105              	.LFE40:
 2106              		.size	CyDmaGetAddressIncrement, .-CyDmaGetAddressIncrement
 2107              		.section	.text.CyDmaSetTriggerType,"ax",%progbits
 2108              		.align	2
 2109              		.global	CyDmaSetTriggerType
 2110              		.code	16
 2111              		.thumb_func
 2112              		.type	CyDmaSetTriggerType, %function
 2113              	CyDmaSetTriggerType:
 2114              	.LFB41:
1212:Generated_Source\PSoC4/CyDMA.c **** 
1213:Generated_Source\PSoC4/CyDMA.c **** 
1214:Generated_Source\PSoC4/CyDMA.c **** /*******************************************************************************
1215:Generated_Source\PSoC4/CyDMA.c **** * Function Name: CyDmaSetTriggerType
1216:Generated_Source\PSoC4/CyDMA.c **** ********************************************************************************
1217:Generated_Source\PSoC4/CyDMA.c **** *
1218:Generated_Source\PSoC4/CyDMA.c **** * Summary:
1219:Generated_Source\PSoC4/CyDMA.c **** *  Sets the type of input trigger for the DMA For level sensitive triggers sets
1220:Generated_Source\PSoC4/CyDMA.c **** *  how long the DMA waits for the trigger to go low (deactivate) before
1221:Generated_Source\PSoC4/CyDMA.c **** *  triggering the channel again.
1222:Generated_Source\PSoC4/CyDMA.c **** *
1223:Generated_Source\PSoC4/CyDMA.c **** * Parameters:
1224:Generated_Source\PSoC4/CyDMA.c **** *  channel:     Channel used by this function.
1225:Generated_Source\PSoC4/CyDMA.c **** *  descriptor:  Descriptor (0 or 1) modified by this function.
1226:Generated_Source\PSoC4/CyDMA.c **** *  triggerType: Type of DMA trigger. Refer to the API bit field definitions
1227:Generated_Source\PSoC4/CyDMA.c **** *               in CyDMA_P4.h or the API description in the DMA channel
1228:Generated_Source\PSoC4/CyDMA.c **** *               datasheet for the parameter options.
1229:Generated_Source\PSoC4/CyDMA.c **** *                   
1230:Generated_Source\PSoC4/CyDMA.c **** * Return:
1231:Generated_Source\PSoC4/CyDMA.c **** *  None.
1232:Generated_Source\PSoC4/CyDMA.c **** *
1233:Generated_Source\PSoC4/CyDMA.c **** * Side effect:
1234:Generated_Source\PSoC4/CyDMA.c **** *  This function should not be called when the specified descriptor is active
1235:Generated_Source\PSoC4/CyDMA.c **** *  in the DMA transfer engine. This can be checked by calling CyDmaGetStatus(). 
1236:Generated_Source\PSoC4/CyDMA.c **** *
1237:Generated_Source\PSoC4/CyDMA.c **** *******************************************************************************/
1238:Generated_Source\PSoC4/CyDMA.c **** void CyDmaSetTriggerType(int32 channel, int32 descriptor, uint32 triggerType)
1239:Generated_Source\PSoC4/CyDMA.c **** {
 2115              		.loc 1 1239 0
 2116              		.cfi_startproc
 2117              		@ args = 0, pretend = 0, frame = 0
 2118              		@ frame_needed = 0, uses_anonymous_args = 0
 2119              	.LVL196:
 2120 0000 70B5     		push	{r4, r5, r6, lr}
 2121              		.cfi_def_cfa_offset 16
 2122              		.cfi_offset 4, -16
ARM GAS  C:\Users\TERENC~1\AppData\Local\Temp\ccD9jUuk.s 			page 61


 2123              		.cfi_offset 5, -12
 2124              		.cfi_offset 6, -8
 2125              		.cfi_offset 14, -4
 2126 0002 0500     		movs	r5, r0
 2127 0004 0C00     		movs	r4, r1
 2128 0006 1600     		movs	r6, r2
1240:Generated_Source\PSoC4/CyDMA.c ****     uint32 regValue;
1241:Generated_Source\PSoC4/CyDMA.c **** 
1242:Generated_Source\PSoC4/CyDMA.c ****     CYASSERT((channel    >= 0) && (channel    < CYDMA_CH_NR));
 2129              		.loc 1 1242 0
 2130 0008 1F28     		cmp	r0, #31
 2131 000a 02D9     		bls	.L182
 2132              		.loc 1 1242 0 is_stmt 0 discriminator 1
 2133 000c 0020     		movs	r0, #0
 2134              	.LVL197:
 2135 000e FFF7FEFF 		bl	CyHalt
 2136              	.LVL198:
 2137              	.L182:
1243:Generated_Source\PSoC4/CyDMA.c ****     CYASSERT((descriptor >= 0) && (descriptor < CYDMA_DESCR_NR));
 2138              		.loc 1 1243 0 is_stmt 1
 2139 0012 012C     		cmp	r4, #1
 2140 0014 02D9     		bls	.L183
 2141              		.loc 1 1243 0 is_stmt 0 discriminator 1
 2142 0016 0020     		movs	r0, #0
 2143 0018 FFF7FEFF 		bl	CyHalt
 2144              	.LVL199:
 2145              	.L183:
1244:Generated_Source\PSoC4/CyDMA.c ****     CYASSERT(0u == (triggerType & (uint32)~CYDMA_TRIGGER_TYPE));
 2146              		.loc 1 1244 0 is_stmt 1
 2147 001c 084B     		ldr	r3, .L185
 2148 001e 1E42     		tst	r6, r3
 2149 0020 02D0     		beq	.L184
 2150              		.loc 1 1244 0 is_stmt 0 discriminator 1
 2151 0022 0020     		movs	r0, #0
 2152 0024 FFF7FEFF 		bl	CyHalt
 2153              	.LVL200:
 2154              	.L184:
1245:Generated_Source\PSoC4/CyDMA.c **** 
1246:Generated_Source\PSoC4/CyDMA.c ****     regValue = CYDMA_DESCR_BASE.descriptor[channel][descriptor].ctl & (uint32)~CYDMA_TRIGGER_TYPE;
 2155              		.loc 1 1246 0 is_stmt 1
 2156 0028 6D00     		lsls	r5, r5, #1
 2157              	.LVL201:
 2158 002a 2C19     		adds	r4, r5, r4
 2159              	.LVL202:
 2160 002c 2401     		lsls	r4, r4, #4
 2161 002e 054B     		ldr	r3, .L185+4
 2162 0030 9C46     		mov	ip, r3
 2163 0032 6444     		add	r4, r4, ip
 2164 0034 A268     		ldr	r2, [r4, #8]
 2165 0036 024B     		ldr	r3, .L185
 2166 0038 1A40     		ands	r2, r3
 2167              	.LVL203:
1247:Generated_Source\PSoC4/CyDMA.c ****     CYDMA_DESCR_BASE.descriptor[channel][descriptor].ctl = regValue | triggerType;
 2168              		.loc 1 1247 0
 2169 003a 3243     		orrs	r2, r6
 2170              	.LVL204:
 2171 003c A260     		str	r2, [r4, #8]
ARM GAS  C:\Users\TERENC~1\AppData\Local\Temp\ccD9jUuk.s 			page 62


1248:Generated_Source\PSoC4/CyDMA.c **** }
 2172              		.loc 1 1248 0
 2173              		@ sp needed
 2174              	.LVL205:
 2175 003e 70BD     		pop	{r4, r5, r6, pc}
 2176              	.L186:
 2177              		.align	2
 2178              	.L185:
 2179 0040 FFFFFFFC 		.word	-50331649
 2180 0044 00181040 		.word	1074796544
 2181              		.cfi_endproc
 2182              	.LFE41:
 2183              		.size	CyDmaSetTriggerType, .-CyDmaSetTriggerType
 2184              		.section	.text.CyDmaGetTriggerType,"ax",%progbits
 2185              		.align	2
 2186              		.global	CyDmaGetTriggerType
 2187              		.code	16
 2188              		.thumb_func
 2189              		.type	CyDmaGetTriggerType, %function
 2190              	CyDmaGetTriggerType:
 2191              	.LFB42:
1249:Generated_Source\PSoC4/CyDMA.c **** 
1250:Generated_Source\PSoC4/CyDMA.c **** 
1251:Generated_Source\PSoC4/CyDMA.c **** /*******************************************************************************
1252:Generated_Source\PSoC4/CyDMA.c **** * Function Name: CyDmaGetTriggerType
1253:Generated_Source\PSoC4/CyDMA.c **** ********************************************************************************
1254:Generated_Source\PSoC4/CyDMA.c **** *
1255:Generated_Source\PSoC4/CyDMA.c **** * Summary:
1256:Generated_Source\PSoC4/CyDMA.c **** *  Returns the trigger deactivation settings as set by CyDmaSetTriggerType() or
1257:Generated_Source\PSoC4/CyDMA.c **** *  CyDmaSetConfiguration().
1258:Generated_Source\PSoC4/CyDMA.c **** *
1259:Generated_Source\PSoC4/CyDMA.c **** * Parameters:
1260:Generated_Source\PSoC4/CyDMA.c **** *  channel:    Channel used by this function.
1261:Generated_Source\PSoC4/CyDMA.c **** *  descriptor: Descriptor (0 or 1) modified by this function.
1262:Generated_Source\PSoC4/CyDMA.c **** *                   
1263:Generated_Source\PSoC4/CyDMA.c **** * Return:
1264:Generated_Source\PSoC4/CyDMA.c **** *  Trigger deactivation settings. Refer to the API bit field definitions in
1265:Generated_Source\PSoC4/CyDMA.c **** *  CyDMA_P4.h or the API description in the DMA channel datasheet for more
1266:Generated_Source\PSoC4/CyDMA.c **** *  information.
1267:Generated_Source\PSoC4/CyDMA.c **** *
1268:Generated_Source\PSoC4/CyDMA.c **** *******************************************************************************/
1269:Generated_Source\PSoC4/CyDMA.c **** uint32 CyDmaGetTriggerType(int32 channel, int32 descriptor)
1270:Generated_Source\PSoC4/CyDMA.c **** {
 2192              		.loc 1 1270 0
 2193              		.cfi_startproc
 2194              		@ args = 0, pretend = 0, frame = 0
 2195              		@ frame_needed = 0, uses_anonymous_args = 0
 2196              	.LVL206:
 2197 0000 70B5     		push	{r4, r5, r6, lr}
 2198              		.cfi_def_cfa_offset 16
 2199              		.cfi_offset 4, -16
 2200              		.cfi_offset 5, -12
 2201              		.cfi_offset 6, -8
 2202              		.cfi_offset 14, -4
 2203 0002 0500     		movs	r5, r0
 2204 0004 0C00     		movs	r4, r1
1271:Generated_Source\PSoC4/CyDMA.c ****     CYASSERT((channel    >= 0) && (channel    < CYDMA_CH_NR));
ARM GAS  C:\Users\TERENC~1\AppData\Local\Temp\ccD9jUuk.s 			page 63


 2205              		.loc 1 1271 0
 2206 0006 1F28     		cmp	r0, #31
 2207 0008 02D9     		bls	.L188
 2208              		.loc 1 1271 0 is_stmt 0 discriminator 1
 2209 000a 0020     		movs	r0, #0
 2210              	.LVL207:
 2211 000c FFF7FEFF 		bl	CyHalt
 2212              	.LVL208:
 2213              	.L188:
1272:Generated_Source\PSoC4/CyDMA.c ****     CYASSERT((descriptor >= 0) && (descriptor < CYDMA_DESCR_NR));
 2214              		.loc 1 1272 0 is_stmt 1
 2215 0010 012C     		cmp	r4, #1
 2216 0012 02D9     		bls	.L189
 2217              		.loc 1 1272 0 is_stmt 0 discriminator 1
 2218 0014 0020     		movs	r0, #0
 2219 0016 FFF7FEFF 		bl	CyHalt
 2220              	.LVL209:
 2221              	.L189:
1273:Generated_Source\PSoC4/CyDMA.c **** 
1274:Generated_Source\PSoC4/CyDMA.c ****     return (CYDMA_DESCR_BASE.descriptor[channel][descriptor].ctl & CYDMA_TRIGGER_TYPE);
 2222              		.loc 1 1274 0 is_stmt 1
 2223 001a 6D00     		lsls	r5, r5, #1
 2224              	.LVL210:
 2225 001c 2C19     		adds	r4, r5, r4
 2226              	.LVL211:
 2227 001e 2401     		lsls	r4, r4, #4
 2228 0020 034B     		ldr	r3, .L190
 2229 0022 9C46     		mov	ip, r3
 2230 0024 6444     		add	r4, r4, ip
 2231 0026 A068     		ldr	r0, [r4, #8]
 2232 0028 C023     		movs	r3, #192
 2233 002a 9B04     		lsls	r3, r3, #18
 2234 002c 1840     		ands	r0, r3
1275:Generated_Source\PSoC4/CyDMA.c **** }
 2235              		.loc 1 1275 0
 2236              		@ sp needed
 2237 002e 70BD     		pop	{r4, r5, r6, pc}
 2238              	.L191:
 2239              		.align	2
 2240              	.L190:
 2241 0030 00181040 		.word	1074796544
 2242              		.cfi_endproc
 2243              	.LFE42:
 2244              		.size	CyDmaGetTriggerType, .-CyDmaGetTriggerType
 2245              		.section	.text.CyDmaSetTransferMode,"ax",%progbits
 2246              		.align	2
 2247              		.global	CyDmaSetTransferMode
 2248              		.code	16
 2249              		.thumb_func
 2250              		.type	CyDmaSetTransferMode, %function
 2251              	CyDmaSetTransferMode:
 2252              	.LFB43:
1276:Generated_Source\PSoC4/CyDMA.c **** 
1277:Generated_Source\PSoC4/CyDMA.c **** 
1278:Generated_Source\PSoC4/CyDMA.c **** /*******************************************************************************
1279:Generated_Source\PSoC4/CyDMA.c **** * Function Name: CyDmaSetTransferMode
1280:Generated_Source\PSoC4/CyDMA.c **** ********************************************************************************
ARM GAS  C:\Users\TERENC~1\AppData\Local\Temp\ccD9jUuk.s 			page 64


1281:Generated_Source\PSoC4/CyDMA.c **** *
1282:Generated_Source\PSoC4/CyDMA.c **** * Summary:
1283:Generated_Source\PSoC4/CyDMA.c **** *  Sets the DMA transfer mode. This determines how the DMA reacts to each trigger
1284:Generated_Source\PSoC4/CyDMA.c **** *  event.
1285:Generated_Source\PSoC4/CyDMA.c **** *
1286:Generated_Source\PSoC4/CyDMA.c **** * Parameters:
1287:Generated_Source\PSoC4/CyDMA.c **** *  channel:      Channel used by this function.
1288:Generated_Source\PSoC4/CyDMA.c **** *  descriptor:   Descriptor (0 or 1) modified by this function.
1289:Generated_Source\PSoC4/CyDMA.c **** *  transferMode: Specifies the DMA transfer mode settings. Refer to the API bit
1290:Generated_Source\PSoC4/CyDMA.c **** *                field definitions in CyDMA_P4.h or the API description in the
1291:Generated_Source\PSoC4/CyDMA.c **** *                DMA channel datasheet for the parameter options.
1292:Generated_Source\PSoC4/CyDMA.c **** *                   
1293:Generated_Source\PSoC4/CyDMA.c **** * Return:
1294:Generated_Source\PSoC4/CyDMA.c **** *  None.
1295:Generated_Source\PSoC4/CyDMA.c **** *
1296:Generated_Source\PSoC4/CyDMA.c **** * Side effect:
1297:Generated_Source\PSoC4/CyDMA.c **** *  This function should not be called when the specified descriptor is active
1298:Generated_Source\PSoC4/CyDMA.c **** *  in the DMA transfer engine. This can be checked by calling CyDmaGetStatus(). 
1299:Generated_Source\PSoC4/CyDMA.c **** *
1300:Generated_Source\PSoC4/CyDMA.c **** *******************************************************************************/
1301:Generated_Source\PSoC4/CyDMA.c **** void CyDmaSetTransferMode(int32 channel, int32 descriptor, uint32 transferMode)
1302:Generated_Source\PSoC4/CyDMA.c **** {
 2253              		.loc 1 1302 0
 2254              		.cfi_startproc
 2255              		@ args = 0, pretend = 0, frame = 0
 2256              		@ frame_needed = 0, uses_anonymous_args = 0
 2257              	.LVL212:
 2258 0000 70B5     		push	{r4, r5, r6, lr}
 2259              		.cfi_def_cfa_offset 16
 2260              		.cfi_offset 4, -16
 2261              		.cfi_offset 5, -12
 2262              		.cfi_offset 6, -8
 2263              		.cfi_offset 14, -4
 2264 0002 0600     		movs	r6, r0
 2265 0004 0C00     		movs	r4, r1
 2266 0006 1500     		movs	r5, r2
1303:Generated_Source\PSoC4/CyDMA.c ****     uint32 regValue;
1304:Generated_Source\PSoC4/CyDMA.c **** 
1305:Generated_Source\PSoC4/CyDMA.c ****     CYASSERT((channel    >= 0) && (channel    < CYDMA_CH_NR));
 2267              		.loc 1 1305 0
 2268 0008 1F28     		cmp	r0, #31
 2269 000a 02D9     		bls	.L193
 2270              		.loc 1 1305 0 is_stmt 0 discriminator 1
 2271 000c 0020     		movs	r0, #0
 2272              	.LVL213:
 2273 000e FFF7FEFF 		bl	CyHalt
 2274              	.LVL214:
 2275              	.L193:
1306:Generated_Source\PSoC4/CyDMA.c ****     CYASSERT((descriptor >= 0) && (descriptor < CYDMA_DESCR_NR));
 2276              		.loc 1 1306 0 is_stmt 1
 2277 0012 012C     		cmp	r4, #1
 2278 0014 02D9     		bls	.L194
 2279              		.loc 1 1306 0 is_stmt 0 discriminator 1
 2280 0016 0020     		movs	r0, #0
 2281 0018 FFF7FEFF 		bl	CyHalt
 2282              	.LVL215:
 2283              	.L194:
ARM GAS  C:\Users\TERENC~1\AppData\Local\Temp\ccD9jUuk.s 			page 65


1307:Generated_Source\PSoC4/CyDMA.c ****     CYASSERT(0u == (transferMode & (uint32)~CYDMA_TRANSFER_MODE));
 2284              		.loc 1 1307 0 is_stmt 1
 2285 001c AB00     		lsls	r3, r5, #2
 2286 001e 02D0     		beq	.L195
 2287              		.loc 1 1307 0 is_stmt 0 discriminator 1
 2288 0020 0020     		movs	r0, #0
 2289 0022 FFF7FEFF 		bl	CyHalt
 2290              	.LVL216:
 2291              	.L195:
1308:Generated_Source\PSoC4/CyDMA.c **** 
1309:Generated_Source\PSoC4/CyDMA.c ****     regValue = CYDMA_DESCR_BASE.descriptor[channel][descriptor].ctl & (uint32)~CYDMA_TRANSFER_MODE;
 2292              		.loc 1 1309 0 is_stmt 1
 2293 0026 7600     		lsls	r6, r6, #1
 2294              	.LVL217:
 2295 0028 3419     		adds	r4, r6, r4
 2296              	.LVL218:
 2297 002a 2401     		lsls	r4, r4, #4
 2298 002c 044B     		ldr	r3, .L196
 2299 002e 9C46     		mov	ip, r3
 2300 0030 6444     		add	r4, r4, ip
 2301 0032 A268     		ldr	r2, [r4, #8]
 2302 0034 9200     		lsls	r2, r2, #2
 2303 0036 9208     		lsrs	r2, r2, #2
 2304              	.LVL219:
1310:Generated_Source\PSoC4/CyDMA.c ****     CYDMA_DESCR_BASE.descriptor[channel][descriptor].ctl = regValue | transferMode;
 2305              		.loc 1 1310 0
 2306 0038 2A43     		orrs	r2, r5
 2307              	.LVL220:
 2308 003a A260     		str	r2, [r4, #8]
1311:Generated_Source\PSoC4/CyDMA.c **** }
 2309              		.loc 1 1311 0
 2310              		@ sp needed
 2311              	.LVL221:
 2312 003c 70BD     		pop	{r4, r5, r6, pc}
 2313              	.L197:
 2314 003e C046     		.align	2
 2315              	.L196:
 2316 0040 00181040 		.word	1074796544
 2317              		.cfi_endproc
 2318              	.LFE43:
 2319              		.size	CyDmaSetTransferMode, .-CyDmaSetTransferMode
 2320              		.section	.text.CyDmaGetTransferMode,"ax",%progbits
 2321              		.align	2
 2322              		.global	CyDmaGetTransferMode
 2323              		.code	16
 2324              		.thumb_func
 2325              		.type	CyDmaGetTransferMode, %function
 2326              	CyDmaGetTransferMode:
 2327              	.LFB44:
1312:Generated_Source\PSoC4/CyDMA.c **** 
1313:Generated_Source\PSoC4/CyDMA.c **** 
1314:Generated_Source\PSoC4/CyDMA.c **** /*******************************************************************************
1315:Generated_Source\PSoC4/CyDMA.c **** * Function Name: CyDmaGetTransferMode
1316:Generated_Source\PSoC4/CyDMA.c **** ********************************************************************************
1317:Generated_Source\PSoC4/CyDMA.c **** *
1318:Generated_Source\PSoC4/CyDMA.c **** * Summary:
1319:Generated_Source\PSoC4/CyDMA.c **** *  Returns the transfer mode for the specified descriptor as set by 
ARM GAS  C:\Users\TERENC~1\AppData\Local\Temp\ccD9jUuk.s 			page 66


1320:Generated_Source\PSoC4/CyDMA.c **** *  CyDmaSetTransferMode() or CyDmaSetConfiguration.
1321:Generated_Source\PSoC4/CyDMA.c **** *
1322:Generated_Source\PSoC4/CyDMA.c **** * Parameters:
1323:Generated_Source\PSoC4/CyDMA.c **** *  channel:    Channel used by this function.
1324:Generated_Source\PSoC4/CyDMA.c **** *  descriptor: Descriptor (0 or 1) modified by this function.
1325:Generated_Source\PSoC4/CyDMA.c **** *                   
1326:Generated_Source\PSoC4/CyDMA.c **** * Return:
1327:Generated_Source\PSoC4/CyDMA.c **** *  DMA transfer mode settings. Refer to the API bit field definitions in
1328:Generated_Source\PSoC4/CyDMA.c **** *  CyDMA_P4.h or the API description in the DMA channel datasheet for more
1329:Generated_Source\PSoC4/CyDMA.c **** *  information.
1330:Generated_Source\PSoC4/CyDMA.c **** *
1331:Generated_Source\PSoC4/CyDMA.c **** *******************************************************************************/
1332:Generated_Source\PSoC4/CyDMA.c **** uint32 CyDmaGetTransferMode(int32 channel, int32 descriptor)
1333:Generated_Source\PSoC4/CyDMA.c **** {
 2328              		.loc 1 1333 0
 2329              		.cfi_startproc
 2330              		@ args = 0, pretend = 0, frame = 0
 2331              		@ frame_needed = 0, uses_anonymous_args = 0
 2332              	.LVL222:
 2333 0000 70B5     		push	{r4, r5, r6, lr}
 2334              		.cfi_def_cfa_offset 16
 2335              		.cfi_offset 4, -16
 2336              		.cfi_offset 5, -12
 2337              		.cfi_offset 6, -8
 2338              		.cfi_offset 14, -4
 2339 0002 0500     		movs	r5, r0
 2340 0004 0C00     		movs	r4, r1
1334:Generated_Source\PSoC4/CyDMA.c ****     CYASSERT((channel    >= 0) && (channel    < CYDMA_CH_NR));
 2341              		.loc 1 1334 0
 2342 0006 1F28     		cmp	r0, #31
 2343 0008 02D9     		bls	.L199
 2344              		.loc 1 1334 0 is_stmt 0 discriminator 1
 2345 000a 0020     		movs	r0, #0
 2346              	.LVL223:
 2347 000c FFF7FEFF 		bl	CyHalt
 2348              	.LVL224:
 2349              	.L199:
1335:Generated_Source\PSoC4/CyDMA.c ****     CYASSERT((descriptor >= 0) && (descriptor < CYDMA_DESCR_NR));
 2350              		.loc 1 1335 0 is_stmt 1
 2351 0010 012C     		cmp	r4, #1
 2352 0012 02D9     		bls	.L200
 2353              		.loc 1 1335 0 is_stmt 0 discriminator 1
 2354 0014 0020     		movs	r0, #0
 2355 0016 FFF7FEFF 		bl	CyHalt
 2356              	.LVL225:
 2357              	.L200:
1336:Generated_Source\PSoC4/CyDMA.c **** 
1337:Generated_Source\PSoC4/CyDMA.c ****     return (CYDMA_DESCR_BASE.descriptor[channel][descriptor].ctl & CYDMA_TRANSFER_MODE);
 2358              		.loc 1 1337 0 is_stmt 1
 2359 001a 6D00     		lsls	r5, r5, #1
 2360              	.LVL226:
 2361 001c 2C19     		adds	r4, r5, r4
 2362              	.LVL227:
 2363 001e 2401     		lsls	r4, r4, #4
 2364 0020 034B     		ldr	r3, .L201
 2365 0022 9C46     		mov	ip, r3
 2366 0024 6444     		add	r4, r4, ip
ARM GAS  C:\Users\TERENC~1\AppData\Local\Temp\ccD9jUuk.s 			page 67


 2367 0026 A068     		ldr	r0, [r4, #8]
 2368 0028 800F     		lsrs	r0, r0, #30
 2369 002a 8007     		lsls	r0, r0, #30
1338:Generated_Source\PSoC4/CyDMA.c **** }
 2370              		.loc 1 1338 0
 2371              		@ sp needed
 2372 002c 70BD     		pop	{r4, r5, r6, pc}
 2373              	.L202:
 2374 002e C046     		.align	2
 2375              	.L201:
 2376 0030 00181040 		.word	1074796544
 2377              		.cfi_endproc
 2378              	.LFE44:
 2379              		.size	CyDmaGetTransferMode, .-CyDmaGetTransferMode
 2380              		.section	.text.CyDmaSetPreemptable,"ax",%progbits
 2381              		.align	2
 2382              		.global	CyDmaSetPreemptable
 2383              		.code	16
 2384              		.thumb_func
 2385              		.type	CyDmaSetPreemptable, %function
 2386              	CyDmaSetPreemptable:
 2387              	.LFB45:
1339:Generated_Source\PSoC4/CyDMA.c **** 
1340:Generated_Source\PSoC4/CyDMA.c **** 
1341:Generated_Source\PSoC4/CyDMA.c **** /*******************************************************************************
1342:Generated_Source\PSoC4/CyDMA.c **** * Function Name: CyDmaSetPreemptable
1343:Generated_Source\PSoC4/CyDMA.c **** ********************************************************************************
1344:Generated_Source\PSoC4/CyDMA.c **** *
1345:Generated_Source\PSoC4/CyDMA.c **** * Summary:
1346:Generated_Source\PSoC4/CyDMA.c **** *  Determines if the descriptor is preemptable.
1347:Generated_Source\PSoC4/CyDMA.c **** *
1348:Generated_Source\PSoC4/CyDMA.c **** * Parameters:
1349:Generated_Source\PSoC4/CyDMA.c **** *  channel:     Channel used by this function.
1350:Generated_Source\PSoC4/CyDMA.c **** *  descriptor:  Descriptor (0 or 1) modified by this function.
1351:Generated_Source\PSoC4/CyDMA.c **** *  preemptable: Descriptor preemption settings. Refer to the API bit fields
1352:Generated_Source\PSoC4/CyDMA.c **** *               definition in CyDMA_P4.h or the API description in the DMA 
1353:Generated_Source\PSoC4/CyDMA.c **** *               channel datasheet for the parameter options.
1354:Generated_Source\PSoC4/CyDMA.c **** *                   
1355:Generated_Source\PSoC4/CyDMA.c **** * Return:
1356:Generated_Source\PSoC4/CyDMA.c **** *  None.
1357:Generated_Source\PSoC4/CyDMA.c **** *
1358:Generated_Source\PSoC4/CyDMA.c **** * Side effect:
1359:Generated_Source\PSoC4/CyDMA.c **** *  This function should not be called when the specified descriptor is active
1360:Generated_Source\PSoC4/CyDMA.c **** *  in the DMA transfer engine. This can be checked by calling CyDmaGetStatus(). 
1361:Generated_Source\PSoC4/CyDMA.c **** *
1362:Generated_Source\PSoC4/CyDMA.c **** *******************************************************************************/
1363:Generated_Source\PSoC4/CyDMA.c **** void CyDmaSetPreemptable(int32 channel, int32 descriptor, uint32 preemptable)
1364:Generated_Source\PSoC4/CyDMA.c **** {
 2388              		.loc 1 1364 0
 2389              		.cfi_startproc
 2390              		@ args = 0, pretend = 0, frame = 0
 2391              		@ frame_needed = 0, uses_anonymous_args = 0
 2392              	.LVL228:
 2393 0000 70B5     		push	{r4, r5, r6, lr}
 2394              		.cfi_def_cfa_offset 16
 2395              		.cfi_offset 4, -16
 2396              		.cfi_offset 5, -12
ARM GAS  C:\Users\TERENC~1\AppData\Local\Temp\ccD9jUuk.s 			page 68


 2397              		.cfi_offset 6, -8
 2398              		.cfi_offset 14, -4
 2399 0002 0500     		movs	r5, r0
 2400 0004 0C00     		movs	r4, r1
 2401 0006 1600     		movs	r6, r2
1365:Generated_Source\PSoC4/CyDMA.c ****     uint32 regValue;
1366:Generated_Source\PSoC4/CyDMA.c **** 
1367:Generated_Source\PSoC4/CyDMA.c ****     CYASSERT((channel    >= 0) && (channel    < CYDMA_CH_NR));
 2402              		.loc 1 1367 0
 2403 0008 1F28     		cmp	r0, #31
 2404 000a 02D9     		bls	.L204
 2405              		.loc 1 1367 0 is_stmt 0 discriminator 1
 2406 000c 0020     		movs	r0, #0
 2407              	.LVL229:
 2408 000e FFF7FEFF 		bl	CyHalt
 2409              	.LVL230:
 2410              	.L204:
1368:Generated_Source\PSoC4/CyDMA.c ****     CYASSERT((descriptor >= 0) && (descriptor < CYDMA_DESCR_NR));
 2411              		.loc 1 1368 0 is_stmt 1
 2412 0012 012C     		cmp	r4, #1
 2413 0014 02D9     		bls	.L205
 2414              		.loc 1 1368 0 is_stmt 0 discriminator 1
 2415 0016 0020     		movs	r0, #0
 2416 0018 FFF7FEFF 		bl	CyHalt
 2417              	.LVL231:
 2418              	.L205:
1369:Generated_Source\PSoC4/CyDMA.c ****     CYASSERT(0u == (preemptable & (uint32)~CYDMA_PREEMPTABLE));
 2419              		.loc 1 1369 0 is_stmt 1
 2420 001c 084B     		ldr	r3, .L207
 2421 001e 1E42     		tst	r6, r3
 2422 0020 02D0     		beq	.L206
 2423              		.loc 1 1369 0 is_stmt 0 discriminator 1
 2424 0022 0020     		movs	r0, #0
 2425 0024 FFF7FEFF 		bl	CyHalt
 2426              	.LVL232:
 2427              	.L206:
1370:Generated_Source\PSoC4/CyDMA.c **** 
1371:Generated_Source\PSoC4/CyDMA.c ****     regValue = CYDMA_DESCR_BASE.descriptor[channel][descriptor].ctl & (uint32)~CYDMA_PREEMPTABLE;
 2428              		.loc 1 1371 0 is_stmt 1
 2429 0028 6D00     		lsls	r5, r5, #1
 2430              	.LVL233:
 2431 002a 2C19     		adds	r4, r5, r4
 2432              	.LVL234:
 2433 002c 2401     		lsls	r4, r4, #4
 2434 002e 054B     		ldr	r3, .L207+4
 2435 0030 9C46     		mov	ip, r3
 2436 0032 6444     		add	r4, r4, ip
 2437 0034 A268     		ldr	r2, [r4, #8]
 2438 0036 024B     		ldr	r3, .L207
 2439 0038 1A40     		ands	r2, r3
 2440              	.LVL235:
1372:Generated_Source\PSoC4/CyDMA.c ****     CYDMA_DESCR_BASE.descriptor[channel][descriptor].ctl = regValue | preemptable;
 2441              		.loc 1 1372 0
 2442 003a 3243     		orrs	r2, r6
 2443              	.LVL236:
 2444 003c A260     		str	r2, [r4, #8]
1373:Generated_Source\PSoC4/CyDMA.c **** }
ARM GAS  C:\Users\TERENC~1\AppData\Local\Temp\ccD9jUuk.s 			page 69


 2445              		.loc 1 1373 0
 2446              		@ sp needed
 2447              	.LVL237:
 2448 003e 70BD     		pop	{r4, r5, r6, pc}
 2449              	.L208:
 2450              		.align	2
 2451              	.L207:
 2452 0040 FFFFFFEF 		.word	-268435457
 2453 0044 00181040 		.word	1074796544
 2454              		.cfi_endproc
 2455              	.LFE45:
 2456              		.size	CyDmaSetPreemptable, .-CyDmaSetPreemptable
 2457              		.section	.text.CyDmaGetPreemptable,"ax",%progbits
 2458              		.align	2
 2459              		.global	CyDmaGetPreemptable
 2460              		.code	16
 2461              		.thumb_func
 2462              		.type	CyDmaGetPreemptable, %function
 2463              	CyDmaGetPreemptable:
 2464              	.LFB46:
1374:Generated_Source\PSoC4/CyDMA.c **** 
1375:Generated_Source\PSoC4/CyDMA.c **** 
1376:Generated_Source\PSoC4/CyDMA.c **** /*******************************************************************************
1377:Generated_Source\PSoC4/CyDMA.c **** * Function Name: CyDmaGetPreemptable
1378:Generated_Source\PSoC4/CyDMA.c **** ********************************************************************************
1379:Generated_Source\PSoC4/CyDMA.c **** *
1380:Generated_Source\PSoC4/CyDMA.c **** * Summary:
1381:Generated_Source\PSoC4/CyDMA.c **** *  Returns whether or not the descriptor is preemptable.
1382:Generated_Source\PSoC4/CyDMA.c **** *
1383:Generated_Source\PSoC4/CyDMA.c **** * Parameters:
1384:Generated_Source\PSoC4/CyDMA.c **** *  channel:    Channel used by this function.
1385:Generated_Source\PSoC4/CyDMA.c **** *  descriptor: Descriptor (0 or 1) modified by this function.
1386:Generated_Source\PSoC4/CyDMA.c **** *                   
1387:Generated_Source\PSoC4/CyDMA.c **** * Return:
1388:Generated_Source\PSoC4/CyDMA.c **** *  Descriptor preemption setting. Refer to the API bit field definitions in
1389:Generated_Source\PSoC4/CyDMA.c **** *  CyDMA_P4.h or the API description in the DMA channel datasheet for more
1390:Generated_Source\PSoC4/CyDMA.c **** *  information.
1391:Generated_Source\PSoC4/CyDMA.c **** *
1392:Generated_Source\PSoC4/CyDMA.c **** *******************************************************************************/
1393:Generated_Source\PSoC4/CyDMA.c **** uint32 CyDmaGetPreemptable(int32 channel, int32 descriptor)
1394:Generated_Source\PSoC4/CyDMA.c **** {
 2465              		.loc 1 1394 0
 2466              		.cfi_startproc
 2467              		@ args = 0, pretend = 0, frame = 0
 2468              		@ frame_needed = 0, uses_anonymous_args = 0
 2469              	.LVL238:
 2470 0000 70B5     		push	{r4, r5, r6, lr}
 2471              		.cfi_def_cfa_offset 16
 2472              		.cfi_offset 4, -16
 2473              		.cfi_offset 5, -12
 2474              		.cfi_offset 6, -8
 2475              		.cfi_offset 14, -4
 2476 0002 0500     		movs	r5, r0
 2477 0004 0C00     		movs	r4, r1
1395:Generated_Source\PSoC4/CyDMA.c ****     CYASSERT((channel    >= 0) && (channel    < CYDMA_CH_NR));
 2478              		.loc 1 1395 0
 2479 0006 1F28     		cmp	r0, #31
ARM GAS  C:\Users\TERENC~1\AppData\Local\Temp\ccD9jUuk.s 			page 70


 2480 0008 02D9     		bls	.L210
 2481              		.loc 1 1395 0 is_stmt 0 discriminator 1
 2482 000a 0020     		movs	r0, #0
 2483              	.LVL239:
 2484 000c FFF7FEFF 		bl	CyHalt
 2485              	.LVL240:
 2486              	.L210:
1396:Generated_Source\PSoC4/CyDMA.c ****     CYASSERT((descriptor >= 0) && (descriptor < CYDMA_DESCR_NR));
 2487              		.loc 1 1396 0 is_stmt 1
 2488 0010 012C     		cmp	r4, #1
 2489 0012 02D9     		bls	.L211
 2490              		.loc 1 1396 0 is_stmt 0 discriminator 1
 2491 0014 0020     		movs	r0, #0
 2492 0016 FFF7FEFF 		bl	CyHalt
 2493              	.LVL241:
 2494              	.L211:
1397:Generated_Source\PSoC4/CyDMA.c **** 
1398:Generated_Source\PSoC4/CyDMA.c ****     return (CYDMA_DESCR_BASE.descriptor[channel][descriptor].ctl & CYDMA_PREEMPTABLE);
 2495              		.loc 1 1398 0 is_stmt 1
 2496 001a 6D00     		lsls	r5, r5, #1
 2497              	.LVL242:
 2498 001c 2C19     		adds	r4, r5, r4
 2499              	.LVL243:
 2500 001e 2401     		lsls	r4, r4, #4
 2501 0020 034B     		ldr	r3, .L212
 2502 0022 9C46     		mov	ip, r3
 2503 0024 6444     		add	r4, r4, ip
 2504 0026 A068     		ldr	r0, [r4, #8]
 2505 0028 8023     		movs	r3, #128
 2506 002a 5B05     		lsls	r3, r3, #21
 2507 002c 1840     		ands	r0, r3
1399:Generated_Source\PSoC4/CyDMA.c **** }
 2508              		.loc 1 1399 0
 2509              		@ sp needed
 2510 002e 70BD     		pop	{r4, r5, r6, pc}
 2511              	.L213:
 2512              		.align	2
 2513              	.L212:
 2514 0030 00181040 		.word	1074796544
 2515              		.cfi_endproc
 2516              	.LFE46:
 2517              		.size	CyDmaGetPreemptable, .-CyDmaGetPreemptable
 2518              		.section	.text.CyDmaSetPostCompletionActions,"ax",%progbits
 2519              		.align	2
 2520              		.global	CyDmaSetPostCompletionActions
 2521              		.code	16
 2522              		.thumb_func
 2523              		.type	CyDmaSetPostCompletionActions, %function
 2524              	CyDmaSetPostCompletionActions:
 2525              	.LFB47:
1400:Generated_Source\PSoC4/CyDMA.c **** 
1401:Generated_Source\PSoC4/CyDMA.c **** 
1402:Generated_Source\PSoC4/CyDMA.c **** /*******************************************************************************
1403:Generated_Source\PSoC4/CyDMA.c **** * Function Name: CyDmaSetPostCompletionActions
1404:Generated_Source\PSoC4/CyDMA.c **** ********************************************************************************
1405:Generated_Source\PSoC4/CyDMA.c **** *
1406:Generated_Source\PSoC4/CyDMA.c **** * Summary:
ARM GAS  C:\Users\TERENC~1\AppData\Local\Temp\ccD9jUuk.s 			page 71


1407:Generated_Source\PSoC4/CyDMA.c **** *  Determines what occurs after a descriptor completes.
1408:Generated_Source\PSoC4/CyDMA.c **** *
1409:Generated_Source\PSoC4/CyDMA.c **** * Parameters:
1410:Generated_Source\PSoC4/CyDMA.c **** *  channel:    Channel used by this function.
1411:Generated_Source\PSoC4/CyDMA.c **** *  descriptor: Descriptor (0 or 1) modified by this function.
1412:Generated_Source\PSoC4/CyDMA.c **** *  actions:    Specifies descriptor post completion actions. Refer to the API
1413:Generated_Source\PSoC4/CyDMA.c **** *              bit field definitions in CyDMA_P4.h or the API description
1414:Generated_Source\PSoC4/CyDMA.c **** *              in the DMA channel datasheet for the parameter options.
1415:Generated_Source\PSoC4/CyDMA.c **** *                   
1416:Generated_Source\PSoC4/CyDMA.c **** * Return:
1417:Generated_Source\PSoC4/CyDMA.c **** *  None.  
1418:Generated_Source\PSoC4/CyDMA.c **** *
1419:Generated_Source\PSoC4/CyDMA.c **** * Side effect:
1420:Generated_Source\PSoC4/CyDMA.c **** *  This function should not be called when the specified descriptor is active
1421:Generated_Source\PSoC4/CyDMA.c **** *  in the DMA transfer engine. This can be checked by calling CyDmaGetStatus(). 
1422:Generated_Source\PSoC4/CyDMA.c **** *
1423:Generated_Source\PSoC4/CyDMA.c **** *******************************************************************************/
1424:Generated_Source\PSoC4/CyDMA.c **** void CyDmaSetPostCompletionActions(int32 channel, int32 descriptor, uint32 actions)
1425:Generated_Source\PSoC4/CyDMA.c **** {
 2526              		.loc 1 1425 0
 2527              		.cfi_startproc
 2528              		@ args = 0, pretend = 0, frame = 0
 2529              		@ frame_needed = 0, uses_anonymous_args = 0
 2530              	.LVL244:
 2531 0000 70B5     		push	{r4, r5, r6, lr}
 2532              		.cfi_def_cfa_offset 16
 2533              		.cfi_offset 4, -16
 2534              		.cfi_offset 5, -12
 2535              		.cfi_offset 6, -8
 2536              		.cfi_offset 14, -4
 2537 0002 0500     		movs	r5, r0
 2538 0004 0C00     		movs	r4, r1
 2539 0006 1600     		movs	r6, r2
1426:Generated_Source\PSoC4/CyDMA.c ****     uint32 regValue;
1427:Generated_Source\PSoC4/CyDMA.c **** 
1428:Generated_Source\PSoC4/CyDMA.c ****     CYASSERT((channel    >= 0) && (channel    < CYDMA_CH_NR));
 2540              		.loc 1 1428 0
 2541 0008 1F28     		cmp	r0, #31
 2542 000a 02D9     		bls	.L215
 2543              		.loc 1 1428 0 is_stmt 0 discriminator 1
 2544 000c 0020     		movs	r0, #0
 2545              	.LVL245:
 2546 000e FFF7FEFF 		bl	CyHalt
 2547              	.LVL246:
 2548              	.L215:
1429:Generated_Source\PSoC4/CyDMA.c ****     CYASSERT((descriptor >= 0) && (descriptor < CYDMA_DESCR_NR));
 2549              		.loc 1 1429 0 is_stmt 1
 2550 0012 012C     		cmp	r4, #1
 2551 0014 02D9     		bls	.L216
 2552              		.loc 1 1429 0 is_stmt 0 discriminator 1
 2553 0016 0020     		movs	r0, #0
 2554 0018 FFF7FEFF 		bl	CyHalt
 2555              	.LVL247:
 2556              	.L216:
1430:Generated_Source\PSoC4/CyDMA.c ****     CYASSERT(0u == (actions & (uint32)~CYDMA_POST_COMPLETE_ACTIONS));
 2557              		.loc 1 1430 0 is_stmt 1
 2558 001c 084B     		ldr	r3, .L218
ARM GAS  C:\Users\TERENC~1\AppData\Local\Temp\ccD9jUuk.s 			page 72


 2559 001e 1E42     		tst	r6, r3
 2560 0020 02D0     		beq	.L217
 2561              		.loc 1 1430 0 is_stmt 0 discriminator 1
 2562 0022 0020     		movs	r0, #0
 2563 0024 FFF7FEFF 		bl	CyHalt
 2564              	.LVL248:
 2565              	.L217:
1431:Generated_Source\PSoC4/CyDMA.c **** 
1432:Generated_Source\PSoC4/CyDMA.c ****     regValue = CYDMA_DESCR_BASE.descriptor[channel][descriptor].ctl & (uint32)~CYDMA_POST_COMPLETE_
 2566              		.loc 1 1432 0 is_stmt 1
 2567 0028 6D00     		lsls	r5, r5, #1
 2568              	.LVL249:
 2569 002a 2C19     		adds	r4, r5, r4
 2570              	.LVL250:
 2571 002c 2401     		lsls	r4, r4, #4
 2572 002e 054B     		ldr	r3, .L218+4
 2573 0030 9C46     		mov	ip, r3
 2574 0032 6444     		add	r4, r4, ip
 2575 0034 A268     		ldr	r2, [r4, #8]
 2576 0036 024B     		ldr	r3, .L218
 2577 0038 1A40     		ands	r2, r3
 2578              	.LVL251:
1433:Generated_Source\PSoC4/CyDMA.c ****     CYDMA_DESCR_BASE.descriptor[channel][descriptor].ctl = regValue | actions;
 2579              		.loc 1 1433 0
 2580 003a 3243     		orrs	r2, r6
 2581              	.LVL252:
 2582 003c A260     		str	r2, [r4, #8]
1434:Generated_Source\PSoC4/CyDMA.c **** }
 2583              		.loc 1 1434 0
 2584              		@ sp needed
 2585              	.LVL253:
 2586 003e 70BD     		pop	{r4, r5, r6, pc}
 2587              	.L219:
 2588              		.align	2
 2589              	.L218:
 2590 0040 FFFFFFD3 		.word	-738197505
 2591 0044 00181040 		.word	1074796544
 2592              		.cfi_endproc
 2593              	.LFE47:
 2594              		.size	CyDmaSetPostCompletionActions, .-CyDmaSetPostCompletionActions
 2595              		.section	.text.CyDmaGetPostCompletionActions,"ax",%progbits
 2596              		.align	2
 2597              		.global	CyDmaGetPostCompletionActions
 2598              		.code	16
 2599              		.thumb_func
 2600              		.type	CyDmaGetPostCompletionActions, %function
 2601              	CyDmaGetPostCompletionActions:
 2602              	.LFB48:
1435:Generated_Source\PSoC4/CyDMA.c **** 
1436:Generated_Source\PSoC4/CyDMA.c **** 
1437:Generated_Source\PSoC4/CyDMA.c **** /*******************************************************************************
1438:Generated_Source\PSoC4/CyDMA.c **** * Function Name: CyDmaGetPostCompletionActions
1439:Generated_Source\PSoC4/CyDMA.c **** ********************************************************************************
1440:Generated_Source\PSoC4/CyDMA.c **** *
1441:Generated_Source\PSoC4/CyDMA.c **** * Summary:
1442:Generated_Source\PSoC4/CyDMA.c **** *  Returns the post descriptor action settings as set by 
1443:Generated_Source\PSoC4/CyDMA.c **** *  CyDmaSetPostCompletionActions() or CyDmaSetConfiguration().
ARM GAS  C:\Users\TERENC~1\AppData\Local\Temp\ccD9jUuk.s 			page 73


1444:Generated_Source\PSoC4/CyDMA.c **** *
1445:Generated_Source\PSoC4/CyDMA.c **** * Parameters:
1446:Generated_Source\PSoC4/CyDMA.c **** *  channel:    Channel used by this function.
1447:Generated_Source\PSoC4/CyDMA.c **** *  descriptor: Descriptor (0 or 1) modified by this function.
1448:Generated_Source\PSoC4/CyDMA.c **** *                   
1449:Generated_Source\PSoC4/CyDMA.c **** * Return:
1450:Generated_Source\PSoC4/CyDMA.c **** *  Post descriptor actions. Refer to the API bit field definitions in
1451:Generated_Source\PSoC4/CyDMA.c **** *  CyDMA_P4.h or the API description in the DMA channel datasheet for more
1452:Generated_Source\PSoC4/CyDMA.c **** *  information.
1453:Generated_Source\PSoC4/CyDMA.c **** *
1454:Generated_Source\PSoC4/CyDMA.c **** *******************************************************************************/
1455:Generated_Source\PSoC4/CyDMA.c **** uint32 CyDmaGetPostCompletionActions(int32 channel, int32 descriptor)
1456:Generated_Source\PSoC4/CyDMA.c **** {
 2603              		.loc 1 1456 0
 2604              		.cfi_startproc
 2605              		@ args = 0, pretend = 0, frame = 0
 2606              		@ frame_needed = 0, uses_anonymous_args = 0
 2607              	.LVL254:
 2608 0000 70B5     		push	{r4, r5, r6, lr}
 2609              		.cfi_def_cfa_offset 16
 2610              		.cfi_offset 4, -16
 2611              		.cfi_offset 5, -12
 2612              		.cfi_offset 6, -8
 2613              		.cfi_offset 14, -4
 2614 0002 0500     		movs	r5, r0
 2615 0004 0C00     		movs	r4, r1
1457:Generated_Source\PSoC4/CyDMA.c ****     CYASSERT((channel    >= 0) && (channel    < CYDMA_CH_NR));
 2616              		.loc 1 1457 0
 2617 0006 1F28     		cmp	r0, #31
 2618 0008 02D9     		bls	.L221
 2619              		.loc 1 1457 0 is_stmt 0 discriminator 1
 2620 000a 0020     		movs	r0, #0
 2621              	.LVL255:
 2622 000c FFF7FEFF 		bl	CyHalt
 2623              	.LVL256:
 2624              	.L221:
1458:Generated_Source\PSoC4/CyDMA.c ****     CYASSERT((descriptor >= 0) && (descriptor < CYDMA_DESCR_NR));
 2625              		.loc 1 1458 0 is_stmt 1
 2626 0010 012C     		cmp	r4, #1
 2627 0012 02D9     		bls	.L222
 2628              		.loc 1 1458 0 is_stmt 0 discriminator 1
 2629 0014 0020     		movs	r0, #0
 2630 0016 FFF7FEFF 		bl	CyHalt
 2631              	.LVL257:
 2632              	.L222:
1459:Generated_Source\PSoC4/CyDMA.c **** 
1460:Generated_Source\PSoC4/CyDMA.c ****     return (CYDMA_DESCR_BASE.descriptor[channel][descriptor].ctl & CYDMA_POST_COMPLETE_ACTIONS);
 2633              		.loc 1 1460 0 is_stmt 1
 2634 001a 6D00     		lsls	r5, r5, #1
 2635              	.LVL258:
 2636 001c 2C19     		adds	r4, r5, r4
 2637              	.LVL259:
 2638 001e 2401     		lsls	r4, r4, #4
 2639 0020 034B     		ldr	r3, .L223
 2640 0022 9C46     		mov	ip, r3
 2641 0024 6444     		add	r4, r4, ip
 2642 0026 A068     		ldr	r0, [r4, #8]
ARM GAS  C:\Users\TERENC~1\AppData\Local\Temp\ccD9jUuk.s 			page 74


 2643 0028 B023     		movs	r3, #176
 2644 002a 9B05     		lsls	r3, r3, #22
 2645 002c 1840     		ands	r0, r3
1461:Generated_Source\PSoC4/CyDMA.c **** }
 2646              		.loc 1 1461 0
 2647              		@ sp needed
 2648 002e 70BD     		pop	{r4, r5, r6, pc}
 2649              	.L224:
 2650              		.align	2
 2651              	.L223:
 2652 0030 00181040 		.word	1074796544
 2653              		.cfi_endproc
 2654              	.LFE48:
 2655              		.size	CyDmaGetPostCompletionActions, .-CyDmaGetPostCompletionActions
 2656              		.section	.rodata
 2657              		.align	2
 2658              		.set	.LANCHOR3,. + 0
 2659              		.type	trCtlLut.5141, %object
 2660              		.size	trCtlLut.5141, 16
 2661              	trCtlLut.5141:
 2662 0000 000002C0 		.word	-1073610752
 2663 0004 000102C0 		.word	-1073610496
 2664 0008 000202C0 		.word	-1073610240
 2665 000c 080202C0 		.word	-1073610232
 2666              		.data
 2667              		.align	2
 2668              		.set	.LANCHOR0,. + 0
 2669              		.set	.LANCHOR2,. + 128
 2670              		.type	CyDmaInterruptCallback, %object
 2671              		.size	CyDmaInterruptCallback, 128
 2672              	CyDmaInterruptCallback:
 2673 0000 00000000 		.word	CyDmaDefaultInterruptCallback
 2674 0004 00000000 		.word	CyDmaDefaultInterruptCallback
 2675 0008 00000000 		.word	CyDmaDefaultInterruptCallback
 2676 000c 00000000 		.word	CyDmaDefaultInterruptCallback
 2677 0010 00000000 		.word	CyDmaDefaultInterruptCallback
 2678 0014 00000000 		.word	CyDmaDefaultInterruptCallback
 2679 0018 00000000 		.word	CyDmaDefaultInterruptCallback
 2680 001c 00000000 		.word	CyDmaDefaultInterruptCallback
 2681 0020 00000000 		.word	CyDmaDefaultInterruptCallback
 2682 0024 00000000 		.word	CyDmaDefaultInterruptCallback
 2683 0028 00000000 		.word	CyDmaDefaultInterruptCallback
 2684 002c 00000000 		.word	CyDmaDefaultInterruptCallback
 2685 0030 00000000 		.word	CyDmaDefaultInterruptCallback
 2686 0034 00000000 		.word	CyDmaDefaultInterruptCallback
 2687 0038 00000000 		.word	CyDmaDefaultInterruptCallback
 2688 003c 00000000 		.word	CyDmaDefaultInterruptCallback
 2689 0040 00000000 		.word	CyDmaDefaultInterruptCallback
 2690 0044 00000000 		.word	CyDmaDefaultInterruptCallback
 2691 0048 00000000 		.word	CyDmaDefaultInterruptCallback
 2692 004c 00000000 		.word	CyDmaDefaultInterruptCallback
 2693 0050 00000000 		.word	CyDmaDefaultInterruptCallback
 2694 0054 00000000 		.word	CyDmaDefaultInterruptCallback
 2695 0058 00000000 		.word	CyDmaDefaultInterruptCallback
 2696 005c 00000000 		.word	CyDmaDefaultInterruptCallback
 2697 0060 00000000 		.word	CyDmaDefaultInterruptCallback
 2698 0064 00000000 		.word	CyDmaDefaultInterruptCallback
ARM GAS  C:\Users\TERENC~1\AppData\Local\Temp\ccD9jUuk.s 			page 75


 2699 0068 00000000 		.word	CyDmaDefaultInterruptCallback
 2700 006c 00000000 		.word	CyDmaDefaultInterruptCallback
 2701 0070 00000000 		.word	CyDmaDefaultInterruptCallback
 2702 0074 00000000 		.word	CyDmaDefaultInterruptCallback
 2703 0078 00000000 		.word	CyDmaDefaultInterruptCallback
 2704 007c 00000000 		.word	CyDmaDefaultInterruptCallback
 2705              		.type	CyDmaChannelUsedMask, %object
 2706              		.size	CyDmaChannelUsedMask, 4
 2707              	CyDmaChannelUsedMask:
 2708 0080 0F1F0000 		.word	7951
 2709              		.bss
 2710              		.set	.LANCHOR1,. + 0
 2711              		.type	initIntrVector.5066, %object
 2712              		.size	initIntrVector.5066, 1
 2713              	initIntrVector.5066:
 2714 0000 00       		.space	1
 2715              		.text
 2716              	.Letext0:
 2717              		.file 2 "Generated_Source\\PSoC4\\cytypes.h"
 2718              		.file 3 "Generated_Source\\PSoC4\\CyDMA.h"
 2719              		.file 4 "Generated_Source\\PSoC4\\CyLib.h"