ARM GAS  C:\Users\TERENC~1\AppData\Local\Temp\ccl2ugxZ.s 			page 1


   1              		.syntax unified
   2              		.cpu cortex-m0
   3              		.fpu softvfp
   4              		.eabi_attribute 20, 1
   5              		.eabi_attribute 21, 1
   6              		.eabi_attribute 23, 3
   7              		.eabi_attribute 24, 1
   8              		.eabi_attribute 25, 1
   9              		.eabi_attribute 26, 1
  10              		.eabi_attribute 30, 1
  11              		.eabi_attribute 34, 0
  12              		.eabi_attribute 18, 4
  13              		.thumb
  14              		.syntax unified
  15              		.file	"cyfitter_cfg.c"
  16              		.text
  17              	.Ltext0:
  18              		.cfi_sections	.debug_frame
  19              		.section	.text.cfg_write_bytes32,"ax",%progbits
  20              		.align	2
  21              		.code	16
  22              		.thumb_func
  23              		.type	cfg_write_bytes32, %function
  24              	cfg_write_bytes32:
  25              	.LFB4:
  26              		.file 1 "Generated_Source\\PSoC4\\cyfitter_cfg.c"
   1:Generated_Source\PSoC4/cyfitter_cfg.c **** 
   2:Generated_Source\PSoC4/cyfitter_cfg.c **** /*******************************************************************************
   3:Generated_Source\PSoC4/cyfitter_cfg.c **** * File Name: cyfitter_cfg.c
   4:Generated_Source\PSoC4/cyfitter_cfg.c **** * 
   5:Generated_Source\PSoC4/cyfitter_cfg.c **** * PSoC Creator  4.2
   6:Generated_Source\PSoC4/cyfitter_cfg.c **** *
   7:Generated_Source\PSoC4/cyfitter_cfg.c **** * Description:
   8:Generated_Source\PSoC4/cyfitter_cfg.c **** * This file contains device initialization code.
   9:Generated_Source\PSoC4/cyfitter_cfg.c **** * Except for the user defined sections in CyClockStartupError(), this file should not be modified.
  10:Generated_Source\PSoC4/cyfitter_cfg.c **** * This file is automatically generated by PSoC Creator.
  11:Generated_Source\PSoC4/cyfitter_cfg.c **** *
  12:Generated_Source\PSoC4/cyfitter_cfg.c **** ********************************************************************************
  13:Generated_Source\PSoC4/cyfitter_cfg.c **** * Copyright (c) 2007-2018 Cypress Semiconductor.  All rights reserved.
  14:Generated_Source\PSoC4/cyfitter_cfg.c **** * You may use this file only in accordance with the license, terms, conditions, 
  15:Generated_Source\PSoC4/cyfitter_cfg.c **** * disclaimers, and limitations in the end user license agreement accompanying 
  16:Generated_Source\PSoC4/cyfitter_cfg.c **** * the software package with which this file was provided.
  17:Generated_Source\PSoC4/cyfitter_cfg.c **** ********************************************************************************/
  18:Generated_Source\PSoC4/cyfitter_cfg.c **** 
  19:Generated_Source\PSoC4/cyfitter_cfg.c **** #include <string.h>
  20:Generated_Source\PSoC4/cyfitter_cfg.c **** #include "cytypes.h"
  21:Generated_Source\PSoC4/cyfitter_cfg.c **** #include "cydevice_trm.h"
  22:Generated_Source\PSoC4/cyfitter_cfg.c **** #include "cyfitter.h"
  23:Generated_Source\PSoC4/cyfitter_cfg.c **** #include "CyLib.h"
  24:Generated_Source\PSoC4/cyfitter_cfg.c **** #include "CyLFClk.h"
  25:Generated_Source\PSoC4/cyfitter_cfg.c **** #include "cyfitter_cfg.h"
  26:Generated_Source\PSoC4/cyfitter_cfg.c **** #include "cyapicallbacks.h"
  27:Generated_Source\PSoC4/cyfitter_cfg.c **** 
  28:Generated_Source\PSoC4/cyfitter_cfg.c **** 
  29:Generated_Source\PSoC4/cyfitter_cfg.c **** #if defined(__GNUC__) || defined(__ARMCC_VERSION)
  30:Generated_Source\PSoC4/cyfitter_cfg.c ****     #define CYPACKED 
  31:Generated_Source\PSoC4/cyfitter_cfg.c ****     #define CYPACKED_ATTR __attribute__ ((packed))
ARM GAS  C:\Users\TERENC~1\AppData\Local\Temp\ccl2ugxZ.s 			page 2


  32:Generated_Source\PSoC4/cyfitter_cfg.c ****     #define CYALIGNED __attribute__ ((aligned))
  33:Generated_Source\PSoC4/cyfitter_cfg.c ****     #define CY_CFG_UNUSED __attribute__ ((unused))
  34:Generated_Source\PSoC4/cyfitter_cfg.c ****     #ifndef CY_CFG_SECTION
  35:Generated_Source\PSoC4/cyfitter_cfg.c ****         #define CY_CFG_SECTION __attribute__ ((section(".psocinit")))
  36:Generated_Source\PSoC4/cyfitter_cfg.c ****     #endif
  37:Generated_Source\PSoC4/cyfitter_cfg.c ****     
  38:Generated_Source\PSoC4/cyfitter_cfg.c ****     #if defined(__ARMCC_VERSION)
  39:Generated_Source\PSoC4/cyfitter_cfg.c ****         #define CY_CFG_MEMORY_BARRIER() __memory_changed()
  40:Generated_Source\PSoC4/cyfitter_cfg.c ****     #else
  41:Generated_Source\PSoC4/cyfitter_cfg.c ****         #define CY_CFG_MEMORY_BARRIER() __sync_synchronize()
  42:Generated_Source\PSoC4/cyfitter_cfg.c ****     #endif
  43:Generated_Source\PSoC4/cyfitter_cfg.c ****     
  44:Generated_Source\PSoC4/cyfitter_cfg.c **** #elif defined(__ICCARM__)
  45:Generated_Source\PSoC4/cyfitter_cfg.c ****     #include <intrinsics.h>
  46:Generated_Source\PSoC4/cyfitter_cfg.c **** 
  47:Generated_Source\PSoC4/cyfitter_cfg.c ****     #define CYPACKED __packed
  48:Generated_Source\PSoC4/cyfitter_cfg.c ****     #define CYPACKED_ATTR 
  49:Generated_Source\PSoC4/cyfitter_cfg.c ****     #define CYALIGNED _Pragma("data_alignment=4")
  50:Generated_Source\PSoC4/cyfitter_cfg.c ****     #define CY_CFG_UNUSED _Pragma("diag_suppress=Pe177")
  51:Generated_Source\PSoC4/cyfitter_cfg.c ****     #define CY_CFG_SECTION _Pragma("location=\".psocinit\"")
  52:Generated_Source\PSoC4/cyfitter_cfg.c ****     
  53:Generated_Source\PSoC4/cyfitter_cfg.c ****     #define CY_CFG_MEMORY_BARRIER() __DMB()
  54:Generated_Source\PSoC4/cyfitter_cfg.c ****     
  55:Generated_Source\PSoC4/cyfitter_cfg.c **** #else
  56:Generated_Source\PSoC4/cyfitter_cfg.c ****     #error Unsupported toolchain
  57:Generated_Source\PSoC4/cyfitter_cfg.c **** #endif
  58:Generated_Source\PSoC4/cyfitter_cfg.c **** 
  59:Generated_Source\PSoC4/cyfitter_cfg.c **** #ifndef CYCODE
  60:Generated_Source\PSoC4/cyfitter_cfg.c ****     #define CYCODE
  61:Generated_Source\PSoC4/cyfitter_cfg.c **** #endif
  62:Generated_Source\PSoC4/cyfitter_cfg.c **** #ifndef CYDATA
  63:Generated_Source\PSoC4/cyfitter_cfg.c ****     #define CYDATA
  64:Generated_Source\PSoC4/cyfitter_cfg.c **** #endif
  65:Generated_Source\PSoC4/cyfitter_cfg.c **** #ifndef CYFAR
  66:Generated_Source\PSoC4/cyfitter_cfg.c ****     #define CYFAR
  67:Generated_Source\PSoC4/cyfitter_cfg.c **** #endif
  68:Generated_Source\PSoC4/cyfitter_cfg.c **** #ifndef CYXDATA
  69:Generated_Source\PSoC4/cyfitter_cfg.c ****     #define CYXDATA
  70:Generated_Source\PSoC4/cyfitter_cfg.c **** #endif
  71:Generated_Source\PSoC4/cyfitter_cfg.c **** 
  72:Generated_Source\PSoC4/cyfitter_cfg.c **** 
  73:Generated_Source\PSoC4/cyfitter_cfg.c **** CY_CFG_UNUSED
  74:Generated_Source\PSoC4/cyfitter_cfg.c **** static void CYMEMZERO(void *s, size_t n);
  75:Generated_Source\PSoC4/cyfitter_cfg.c **** CY_CFG_UNUSED
  76:Generated_Source\PSoC4/cyfitter_cfg.c **** static void CYMEMZERO(void *s, size_t n)
  77:Generated_Source\PSoC4/cyfitter_cfg.c **** {
  78:Generated_Source\PSoC4/cyfitter_cfg.c **** 	(void)memset(s, 0, n);
  79:Generated_Source\PSoC4/cyfitter_cfg.c **** }
  80:Generated_Source\PSoC4/cyfitter_cfg.c **** CY_CFG_UNUSED
  81:Generated_Source\PSoC4/cyfitter_cfg.c **** static void CYCONFIGCPY(void *dest, const void *src, size_t n);
  82:Generated_Source\PSoC4/cyfitter_cfg.c **** CY_CFG_UNUSED
  83:Generated_Source\PSoC4/cyfitter_cfg.c **** static void CYCONFIGCPY(void *dest, const void *src, size_t n)
  84:Generated_Source\PSoC4/cyfitter_cfg.c **** {
  85:Generated_Source\PSoC4/cyfitter_cfg.c **** 	(void)memcpy(dest, src, n);
  86:Generated_Source\PSoC4/cyfitter_cfg.c **** }
  87:Generated_Source\PSoC4/cyfitter_cfg.c **** CY_CFG_UNUSED
  88:Generated_Source\PSoC4/cyfitter_cfg.c **** static void CYCONFIGCPYCODE(void *dest, const void *src, size_t n);
ARM GAS  C:\Users\TERENC~1\AppData\Local\Temp\ccl2ugxZ.s 			page 3


  89:Generated_Source\PSoC4/cyfitter_cfg.c **** CY_CFG_UNUSED
  90:Generated_Source\PSoC4/cyfitter_cfg.c **** static void CYCONFIGCPYCODE(void *dest, const void *src, size_t n)
  91:Generated_Source\PSoC4/cyfitter_cfg.c **** {
  92:Generated_Source\PSoC4/cyfitter_cfg.c **** 	(void)memcpy(dest, src, n);
  93:Generated_Source\PSoC4/cyfitter_cfg.c **** }
  94:Generated_Source\PSoC4/cyfitter_cfg.c **** 
  95:Generated_Source\PSoC4/cyfitter_cfg.c **** 
  96:Generated_Source\PSoC4/cyfitter_cfg.c **** 
  97:Generated_Source\PSoC4/cyfitter_cfg.c **** 
  98:Generated_Source\PSoC4/cyfitter_cfg.c **** /* Clock startup error codes                                                   */
  99:Generated_Source\PSoC4/cyfitter_cfg.c **** #define CYCLOCKSTART_NO_ERROR    0u
 100:Generated_Source\PSoC4/cyfitter_cfg.c **** #define CYCLOCKSTART_XTAL_ERROR  1u
 101:Generated_Source\PSoC4/cyfitter_cfg.c **** #define CYCLOCKSTART_32KHZ_ERROR 2u
 102:Generated_Source\PSoC4/cyfitter_cfg.c **** #define CYCLOCKSTART_PLL_ERROR   3u
 103:Generated_Source\PSoC4/cyfitter_cfg.c **** #define CYCLOCKSTART_FLL_ERROR   4u
 104:Generated_Source\PSoC4/cyfitter_cfg.c **** #define CYCLOCKSTART_WCO_ERROR   5u
 105:Generated_Source\PSoC4/cyfitter_cfg.c **** 
 106:Generated_Source\PSoC4/cyfitter_cfg.c **** 
 107:Generated_Source\PSoC4/cyfitter_cfg.c **** #ifdef CY_NEED_CYCLOCKSTARTUPERROR
 108:Generated_Source\PSoC4/cyfitter_cfg.c **** /*******************************************************************************
 109:Generated_Source\PSoC4/cyfitter_cfg.c **** * Function Name: CyClockStartupError
 110:Generated_Source\PSoC4/cyfitter_cfg.c **** ********************************************************************************
 111:Generated_Source\PSoC4/cyfitter_cfg.c **** * Summary:
 112:Generated_Source\PSoC4/cyfitter_cfg.c **** *  If an error is encountered during clock configuration (crystal startup error,
 113:Generated_Source\PSoC4/cyfitter_cfg.c **** *  PLL lock error, etc.), the system will end up here.  Unless reimplemented by
 114:Generated_Source\PSoC4/cyfitter_cfg.c **** *  the customer, this function will stop in an infinite loop.
 115:Generated_Source\PSoC4/cyfitter_cfg.c **** *
 116:Generated_Source\PSoC4/cyfitter_cfg.c **** * Parameters:
 117:Generated_Source\PSoC4/cyfitter_cfg.c **** *   void
 118:Generated_Source\PSoC4/cyfitter_cfg.c **** *
 119:Generated_Source\PSoC4/cyfitter_cfg.c **** * Return:
 120:Generated_Source\PSoC4/cyfitter_cfg.c **** *   void
 121:Generated_Source\PSoC4/cyfitter_cfg.c **** *
 122:Generated_Source\PSoC4/cyfitter_cfg.c **** *******************************************************************************/
 123:Generated_Source\PSoC4/cyfitter_cfg.c **** CY_CFG_UNUSED
 124:Generated_Source\PSoC4/cyfitter_cfg.c **** static void CyClockStartupError(uint8 errorCode);
 125:Generated_Source\PSoC4/cyfitter_cfg.c **** CY_CFG_UNUSED
 126:Generated_Source\PSoC4/cyfitter_cfg.c **** static void CyClockStartupError(uint8 errorCode)
 127:Generated_Source\PSoC4/cyfitter_cfg.c **** {
 128:Generated_Source\PSoC4/cyfitter_cfg.c ****     /* To remove the compiler warning if errorCode not used.                */
 129:Generated_Source\PSoC4/cyfitter_cfg.c ****     errorCode = errorCode;
 130:Generated_Source\PSoC4/cyfitter_cfg.c **** 
 131:Generated_Source\PSoC4/cyfitter_cfg.c ****     /* If we have a clock startup error (bad MHz crystal, PLL lock, etc.),  */
 132:Generated_Source\PSoC4/cyfitter_cfg.c ****     /* we will end up here to allow the customer to implement something to  */
 133:Generated_Source\PSoC4/cyfitter_cfg.c ****     /* deal with the clock condition.                                       */
 134:Generated_Source\PSoC4/cyfitter_cfg.c **** 
 135:Generated_Source\PSoC4/cyfitter_cfg.c **** #ifdef CY_CFG_CLOCK_STARTUP_ERROR_CALLBACK
 136:Generated_Source\PSoC4/cyfitter_cfg.c ****     CY_CFG_Clock_Startup_ErrorCallback();
 137:Generated_Source\PSoC4/cyfitter_cfg.c **** #else
 138:Generated_Source\PSoC4/cyfitter_cfg.c ****     /*  If not using CY_CFG_CLOCK_STARTUP_ERROR_CALLBACK, place your clock startup code here. */
 139:Generated_Source\PSoC4/cyfitter_cfg.c ****     /* `#START CyClockStartupError` */
 140:Generated_Source\PSoC4/cyfitter_cfg.c **** 
 141:Generated_Source\PSoC4/cyfitter_cfg.c **** 
 142:Generated_Source\PSoC4/cyfitter_cfg.c **** 
 143:Generated_Source\PSoC4/cyfitter_cfg.c ****     /* `#END` */
 144:Generated_Source\PSoC4/cyfitter_cfg.c **** 
 145:Generated_Source\PSoC4/cyfitter_cfg.c ****     while(1) {}
ARM GAS  C:\Users\TERENC~1\AppData\Local\Temp\ccl2ugxZ.s 			page 4


 146:Generated_Source\PSoC4/cyfitter_cfg.c **** #endif /* CY_CFG_CLOCK_STARTUP_ERROR_CALLBACK */
 147:Generated_Source\PSoC4/cyfitter_cfg.c **** }
 148:Generated_Source\PSoC4/cyfitter_cfg.c **** #endif
 149:Generated_Source\PSoC4/cyfitter_cfg.c **** 
 150:Generated_Source\PSoC4/cyfitter_cfg.c **** #define CY_CFG_BASE_ADDR_COUNT 18u
 151:Generated_Source\PSoC4/cyfitter_cfg.c **** CYPACKED typedef struct
 152:Generated_Source\PSoC4/cyfitter_cfg.c **** {
 153:Generated_Source\PSoC4/cyfitter_cfg.c **** 	uint8 offset;
 154:Generated_Source\PSoC4/cyfitter_cfg.c **** 	uint8 value;
 155:Generated_Source\PSoC4/cyfitter_cfg.c **** } CYPACKED_ATTR cy_cfg_addrvalue_t;
 156:Generated_Source\PSoC4/cyfitter_cfg.c **** 
 157:Generated_Source\PSoC4/cyfitter_cfg.c **** 
 158:Generated_Source\PSoC4/cyfitter_cfg.c **** 
 159:Generated_Source\PSoC4/cyfitter_cfg.c **** /*******************************************************************************
 160:Generated_Source\PSoC4/cyfitter_cfg.c **** * Function Name: cfg_write_bytes32
 161:Generated_Source\PSoC4/cyfitter_cfg.c **** ********************************************************************************
 162:Generated_Source\PSoC4/cyfitter_cfg.c **** * Summary:
 163:Generated_Source\PSoC4/cyfitter_cfg.c **** *  This function is used for setting up the chip configuration areas that
 164:Generated_Source\PSoC4/cyfitter_cfg.c **** *  contain relatively sparse data.
 165:Generated_Source\PSoC4/cyfitter_cfg.c **** *
 166:Generated_Source\PSoC4/cyfitter_cfg.c **** * Parameters:
 167:Generated_Source\PSoC4/cyfitter_cfg.c **** *   void
 168:Generated_Source\PSoC4/cyfitter_cfg.c **** *
 169:Generated_Source\PSoC4/cyfitter_cfg.c **** * Return:
 170:Generated_Source\PSoC4/cyfitter_cfg.c **** *   void
 171:Generated_Source\PSoC4/cyfitter_cfg.c **** *
 172:Generated_Source\PSoC4/cyfitter_cfg.c **** *******************************************************************************/
 173:Generated_Source\PSoC4/cyfitter_cfg.c **** static void cfg_write_bytes32(const uint32 addr_table[], const cy_cfg_addrvalue_t data_table[]);
 174:Generated_Source\PSoC4/cyfitter_cfg.c **** static void cfg_write_bytes32(const uint32 addr_table[], const cy_cfg_addrvalue_t data_table[])
 175:Generated_Source\PSoC4/cyfitter_cfg.c **** {
  27              		.loc 1 175 0
  28              		.cfi_startproc
  29              		@ args = 0, pretend = 0, frame = 0
  30              		@ frame_needed = 0, uses_anonymous_args = 0
  31              	.LVL0:
  32 0000 F0B5     		push	{r4, r5, r6, r7, lr}
  33              		.cfi_def_cfa_offset 20
  34              		.cfi_offset 4, -20
  35              		.cfi_offset 5, -16
  36              		.cfi_offset 6, -12
  37              		.cfi_offset 7, -8
  38              		.cfi_offset 14, -4
  39              	.LVL1:
 176:Generated_Source\PSoC4/cyfitter_cfg.c **** 	/* For 32-bit little-endian architectures */
 177:Generated_Source\PSoC4/cyfitter_cfg.c **** 	uint32 i, j = 0u;
  40              		.loc 1 177 0
  41 0002 0025     		movs	r5, #0
 178:Generated_Source\PSoC4/cyfitter_cfg.c **** 	for (i = 0u; i < CY_CFG_BASE_ADDR_COUNT; i++)
  42              		.loc 1 178 0
  43 0004 0027     		movs	r7, #0
  44 0006 11E0     		b	.L2
  45              	.LVL2:
  46              	.L5:
  47              	.LBB2:
 179:Generated_Source\PSoC4/cyfitter_cfg.c **** 	{
 180:Generated_Source\PSoC4/cyfitter_cfg.c **** 		uint32 baseAddr = addr_table[i];
  48              		.loc 1 180 0
ARM GAS  C:\Users\TERENC~1\AppData\Local\Temp\ccl2ugxZ.s 			page 5


  49 0008 BB00     		lsls	r3, r7, #2
  50 000a C658     		ldr	r6, [r0, r3]
  51              	.LVL3:
 181:Generated_Source\PSoC4/cyfitter_cfg.c **** 		uint8 count = (uint8)baseAddr;
  52              		.loc 1 181 0
  53 000c F3B2     		uxtb	r3, r6
  54              	.LVL4:
 182:Generated_Source\PSoC4/cyfitter_cfg.c **** 		baseAddr &= 0xFFFFFF00u;
  55              		.loc 1 182 0
  56 000e FF22     		movs	r2, #255
  57 0010 9643     		bics	r6, r2
  58              	.LVL5:
 183:Generated_Source\PSoC4/cyfitter_cfg.c **** 		while (count != 0u)
  59              		.loc 1 183 0
  60 0012 08E0     		b	.L3
  61              	.L4:
 184:Generated_Source\PSoC4/cyfitter_cfg.c **** 		{
 185:Generated_Source\PSoC4/cyfitter_cfg.c **** 			CY_SET_REG8((void *)(baseAddr + data_table[j].offset), data_table[j].value);
  62              		.loc 1 185 0
  63 0014 6A00     		lsls	r2, r5, #1
  64 0016 8A18     		adds	r2, r1, r2
  65 0018 1478     		ldrb	r4, [r2]
  66 001a A419     		adds	r4, r4, r6
  67 001c 5278     		ldrb	r2, [r2, #1]
  68 001e 2270     		strb	r2, [r4]
 186:Generated_Source\PSoC4/cyfitter_cfg.c **** 			j++;
  69              		.loc 1 186 0
  70 0020 0135     		adds	r5, r5, #1
  71              	.LVL6:
 187:Generated_Source\PSoC4/cyfitter_cfg.c **** 			count--;
  72              		.loc 1 187 0
  73 0022 013B     		subs	r3, r3, #1
  74              	.LVL7:
  75 0024 DBB2     		uxtb	r3, r3
  76              	.LVL8:
  77              	.L3:
 183:Generated_Source\PSoC4/cyfitter_cfg.c **** 		{
  78              		.loc 1 183 0
  79 0026 002B     		cmp	r3, #0
  80 0028 F4D1     		bne	.L4
  81              	.LBE2:
 178:Generated_Source\PSoC4/cyfitter_cfg.c **** 	{
  82              		.loc 1 178 0 discriminator 2
  83 002a 0137     		adds	r7, r7, #1
  84              	.LVL9:
  85              	.L2:
 178:Generated_Source\PSoC4/cyfitter_cfg.c **** 	{
  86              		.loc 1 178 0 is_stmt 0 discriminator 1
  87 002c 112F     		cmp	r7, #17
  88 002e EBD9     		bls	.L5
 188:Generated_Source\PSoC4/cyfitter_cfg.c **** 		}
 189:Generated_Source\PSoC4/cyfitter_cfg.c **** 	}
 190:Generated_Source\PSoC4/cyfitter_cfg.c **** }
  89              		.loc 1 190 0 is_stmt 1
  90              		@ sp needed
  91              	.LVL10:
  92              	.LVL11:
ARM GAS  C:\Users\TERENC~1\AppData\Local\Temp\ccl2ugxZ.s 			page 6


  93 0030 F0BD     		pop	{r4, r5, r6, r7, pc}
  94              		.cfi_endproc
  95              	.LFE4:
  96              		.size	cfg_write_bytes32, .-cfg_write_bytes32
  97 0032 C046     		.section	.text.AnalogSetDefault,"ax",%progbits
  98              		.align	2
  99              		.code	16
 100              		.thumb_func
 101              		.type	AnalogSetDefault, %function
 102              	AnalogSetDefault:
 103              	.LFB6:
 191:Generated_Source\PSoC4/cyfitter_cfg.c **** 
 192:Generated_Source\PSoC4/cyfitter_cfg.c **** 
 193:Generated_Source\PSoC4/cyfitter_cfg.c **** /*******************************************************************************
 194:Generated_Source\PSoC4/cyfitter_cfg.c **** * Function Name: ClockSetup
 195:Generated_Source\PSoC4/cyfitter_cfg.c **** ********************************************************************************
 196:Generated_Source\PSoC4/cyfitter_cfg.c **** *
 197:Generated_Source\PSoC4/cyfitter_cfg.c **** * Summary:
 198:Generated_Source\PSoC4/cyfitter_cfg.c **** *   Performs the initialization of all of the clocks in the device based on the
 199:Generated_Source\PSoC4/cyfitter_cfg.c **** *   settings in the Clock tab of the DWR.  This includes enabling the requested
 200:Generated_Source\PSoC4/cyfitter_cfg.c **** *   clocks and setting the necessary dividers to produce the desired frequency. 
 201:Generated_Source\PSoC4/cyfitter_cfg.c **** *
 202:Generated_Source\PSoC4/cyfitter_cfg.c **** * Parameters:
 203:Generated_Source\PSoC4/cyfitter_cfg.c **** *   void
 204:Generated_Source\PSoC4/cyfitter_cfg.c **** *
 205:Generated_Source\PSoC4/cyfitter_cfg.c **** * Return:
 206:Generated_Source\PSoC4/cyfitter_cfg.c **** *   void
 207:Generated_Source\PSoC4/cyfitter_cfg.c **** *
 208:Generated_Source\PSoC4/cyfitter_cfg.c **** *******************************************************************************/
 209:Generated_Source\PSoC4/cyfitter_cfg.c **** static void ClockSetup(void);
 210:Generated_Source\PSoC4/cyfitter_cfg.c **** CY_CFG_SECTION
 211:Generated_Source\PSoC4/cyfitter_cfg.c **** static void ClockSetup(void)
 212:Generated_Source\PSoC4/cyfitter_cfg.c **** {
 213:Generated_Source\PSoC4/cyfitter_cfg.c **** 	uint8 pllTimeout;
 214:Generated_Source\PSoC4/cyfitter_cfg.c **** 
 215:Generated_Source\PSoC4/cyfitter_cfg.c **** 	/* Set Flash Cycles based on max possible frequency in case a glitch occurs during ClockSetup(). *
 216:Generated_Source\PSoC4/cyfitter_cfg.c **** 	CY_SET_REG32((void CYXDATA *)(CYREG_CPUSS_FLASH_CTL), (0x0012u));
 217:Generated_Source\PSoC4/cyfitter_cfg.c **** 
 218:Generated_Source\PSoC4/cyfitter_cfg.c **** 	/* Start the WCO */
 219:Generated_Source\PSoC4/cyfitter_cfg.c **** 	CySysClkWcoStart();
 220:Generated_Source\PSoC4/cyfitter_cfg.c **** 	CyDelayCycles(12000000u); /* WCO may take up to 500ms to start */
 221:Generated_Source\PSoC4/cyfitter_cfg.c **** 
 222:Generated_Source\PSoC4/cyfitter_cfg.c **** 	CySysClkImoEnableUsbLock();
 223:Generated_Source\PSoC4/cyfitter_cfg.c **** 	/* Setup and trim IMO based on desired frequency. */
 224:Generated_Source\PSoC4/cyfitter_cfg.c **** 	CySysClkWriteImoFreq(48u);
 225:Generated_Source\PSoC4/cyfitter_cfg.c **** 	/* CYDEV_CLK_ILO_CONFIG Starting address: CYDEV_CLK_ILO_CONFIG */
 226:Generated_Source\PSoC4/cyfitter_cfg.c **** 	CY_SET_REG32((void *)(CYREG_CLK_ILO_CONFIG), 0x80000006u);
 227:Generated_Source\PSoC4/cyfitter_cfg.c **** 
 228:Generated_Source\PSoC4/cyfitter_cfg.c **** 	/* CYDEV_WDT_CONFIG Starting address: CYDEV_WDT_CONFIG */
 229:Generated_Source\PSoC4/cyfitter_cfg.c **** 	CY_SET_REG32((void *)(CYREG_WDT_CONFIG), 0x40000000u);
 230:Generated_Source\PSoC4/cyfitter_cfg.c **** 
 231:Generated_Source\PSoC4/cyfitter_cfg.c **** 
 232:Generated_Source\PSoC4/cyfitter_cfg.c **** 	/* Configure ECO trim */
 233:Generated_Source\PSoC4/cyfitter_cfg.c **** 	CY_SET_REG32((void CYXDATA *)(CYREG_CLK_ECO_CONFIG), (0x00000000u));
 234:Generated_Source\PSoC4/cyfitter_cfg.c **** 	CY_SET_REG32((void CYXDATA *)(CYREG_CLK_ECO_TRIM0), (0x0000001Fu));
 235:Generated_Source\PSoC4/cyfitter_cfg.c **** 	CY_SET_REG32((void CYXDATA *)(CYREG_CLK_ECO_TRIM1), (0x0000001Au));
 236:Generated_Source\PSoC4/cyfitter_cfg.c **** 	/* Start the ECO and do not check status since it is not needed for HFCLK */
ARM GAS  C:\Users\TERENC~1\AppData\Local\Temp\ccl2ugxZ.s 			page 7


 237:Generated_Source\PSoC4/cyfitter_cfg.c **** 	(void)CySysClkEcoStart(2000u);
 238:Generated_Source\PSoC4/cyfitter_cfg.c **** 	CyDelayUs(1500u); /* Wait to stabilize */
 239:Generated_Source\PSoC4/cyfitter_cfg.c **** 	CY_SET_REG32(CYREG_CLK_SELECT, ((CY_GET_REG32(CYREG_CLK_SELECT) & 0xFFFFFE07u) | 0x00000090u));
 240:Generated_Source\PSoC4/cyfitter_cfg.c **** 	CY_SET_REG32(CYREG_CLK_PLL0_CONFIG, 0x8002060Au);
 241:Generated_Source\PSoC4/cyfitter_cfg.c **** 	CY_SET_REG32(CYREG_CLK_PLL1_CONFIG, 0x80020F15u);
 242:Generated_Source\PSoC4/cyfitter_cfg.c **** 	CyDelayCycles(240u);
 243:Generated_Source\PSoC4/cyfitter_cfg.c **** 	CY_SET_REG32(CYREG_CLK_PLL0_CONFIG, 0xC002060Au);
 244:Generated_Source\PSoC4/cyfitter_cfg.c **** 	CY_SET_REG32(CYREG_CLK_PLL1_CONFIG, 0xC0020F15u);
 245:Generated_Source\PSoC4/cyfitter_cfg.c **** 	for (pllTimeout = 0u; (pllTimeout < 25u) && ((CY_GET_REG32(CYREG_CLK_PLL0_STATUS) == 0u) || (CY_GE
 246:Generated_Source\PSoC4/cyfitter_cfg.c **** 	{
 247:Generated_Source\PSoC4/cyfitter_cfg.c **** 		CyDelayCycles(480u);
 248:Generated_Source\PSoC4/cyfitter_cfg.c **** 	}
 249:Generated_Source\PSoC4/cyfitter_cfg.c **** 
 250:Generated_Source\PSoC4/cyfitter_cfg.c **** 	/* Setup phase aligned clocks */
 251:Generated_Source\PSoC4/cyfitter_cfg.c **** 	CY_SET_REG32((void *)CYREG_PERI_DIV_16_CTL0, 0x00000000u);
 252:Generated_Source\PSoC4/cyfitter_cfg.c **** 	CY_SET_REG32((void *)CYREG_PERI_DIV_CMD, 0x8000FF40u);
 253:Generated_Source\PSoC4/cyfitter_cfg.c **** 	CY_SET_REG32((void *)CYREG_PERI_DIV_16_CTL1, 0x00000500u);
 254:Generated_Source\PSoC4/cyfitter_cfg.c **** 	CY_SET_REG32((void *)CYREG_PERI_DIV_CMD, 0x8000FF41u);
 255:Generated_Source\PSoC4/cyfitter_cfg.c **** 	CY_SET_REG32((void *)CYREG_PERI_DIV_16_CTL2, 0x00002200u);
 256:Generated_Source\PSoC4/cyfitter_cfg.c **** 	CY_SET_REG32((void *)CYREG_PERI_DIV_CMD, 0x8000FF42u);
 257:Generated_Source\PSoC4/cyfitter_cfg.c **** 
 258:Generated_Source\PSoC4/cyfitter_cfg.c **** 	/* CYDEV_CLK_IMO_CONFIG Starting address: CYDEV_CLK_IMO_CONFIG */
 259:Generated_Source\PSoC4/cyfitter_cfg.c **** 	CY_SET_REG32((void *)(CYREG_CLK_IMO_CONFIG), 0x80000000u);
 260:Generated_Source\PSoC4/cyfitter_cfg.c **** 
 261:Generated_Source\PSoC4/cyfitter_cfg.c **** 	/* CYDEV_CLK_SELECT Starting address: CYDEV_CLK_SELECT */
 262:Generated_Source\PSoC4/cyfitter_cfg.c **** 	CY_SET_REG32((void *)(CYREG_CLK_SELECT), 0x00040090u);
 263:Generated_Source\PSoC4/cyfitter_cfg.c **** 
 264:Generated_Source\PSoC4/cyfitter_cfg.c **** 	/* CYDEV_PERI_PCLK_CTL12 Starting address: CYDEV_PERI_PCLK_CTL12 */
 265:Generated_Source\PSoC4/cyfitter_cfg.c **** 	CY_SET_REG32((void *)(CYREG_PERI_PCLK_CTL12), 0x00000040u);
 266:Generated_Source\PSoC4/cyfitter_cfg.c **** 
 267:Generated_Source\PSoC4/cyfitter_cfg.c **** 	/* CYDEV_PERI_PCLK_CTL11 Starting address: CYDEV_PERI_PCLK_CTL11 */
 268:Generated_Source\PSoC4/cyfitter_cfg.c **** 	CY_SET_REG32((void *)(CYREG_PERI_PCLK_CTL11), 0x00000040u);
 269:Generated_Source\PSoC4/cyfitter_cfg.c **** 
 270:Generated_Source\PSoC4/cyfitter_cfg.c **** 	/* CYDEV_PERI_PCLK_CTL3 Starting address: CYDEV_PERI_PCLK_CTL3 */
 271:Generated_Source\PSoC4/cyfitter_cfg.c **** 	CY_SET_REG32((void *)(CYREG_PERI_PCLK_CTL3), 0x00000041u);
 272:Generated_Source\PSoC4/cyfitter_cfg.c **** 
 273:Generated_Source\PSoC4/cyfitter_cfg.c **** 	/* CYDEV_PERI_PCLK_CTL2 Starting address: CYDEV_PERI_PCLK_CTL2 */
 274:Generated_Source\PSoC4/cyfitter_cfg.c **** 	CY_SET_REG32((void *)(CYREG_PERI_PCLK_CTL2), 0x00000042u);
 275:Generated_Source\PSoC4/cyfitter_cfg.c **** 
 276:Generated_Source\PSoC4/cyfitter_cfg.c **** 	(void)CyIntSetVector(8u, &CySysWdtIsr);
 277:Generated_Source\PSoC4/cyfitter_cfg.c **** 	CyIntEnable(8u);
 278:Generated_Source\PSoC4/cyfitter_cfg.c **** 	CY_SET_REG32((void *)(CYREG_WDT_MATCH), 0x001F0000u);
 279:Generated_Source\PSoC4/cyfitter_cfg.c **** 	CY_SET_REG32((void *)(CYREG_WDT_CONFIG), 0x40000000u);
 280:Generated_Source\PSoC4/cyfitter_cfg.c **** 	CY_SET_REG32((void *)(CYREG_WDT_CONTROL), 0x00000800u);
 281:Generated_Source\PSoC4/cyfitter_cfg.c **** 	while ((CY_GET_XTND_REG32((void CYFAR *)(CYREG_WDT_CONTROL)) & 0x00000800u) != 0u) { }
 282:Generated_Source\PSoC4/cyfitter_cfg.c **** 	CY_SET_REG32((void *)(CYREG_WDT_CONTROL), 0x00000100u);
 283:Generated_Source\PSoC4/cyfitter_cfg.c **** }
 284:Generated_Source\PSoC4/cyfitter_cfg.c **** 
 285:Generated_Source\PSoC4/cyfitter_cfg.c **** 
 286:Generated_Source\PSoC4/cyfitter_cfg.c **** /* Analog API Functions */
 287:Generated_Source\PSoC4/cyfitter_cfg.c **** 
 288:Generated_Source\PSoC4/cyfitter_cfg.c **** 
 289:Generated_Source\PSoC4/cyfitter_cfg.c **** /*******************************************************************************
 290:Generated_Source\PSoC4/cyfitter_cfg.c **** * Function Name: AnalogSetDefault
 291:Generated_Source\PSoC4/cyfitter_cfg.c **** ********************************************************************************
 292:Generated_Source\PSoC4/cyfitter_cfg.c **** *
 293:Generated_Source\PSoC4/cyfitter_cfg.c **** * Summary:
ARM GAS  C:\Users\TERENC~1\AppData\Local\Temp\ccl2ugxZ.s 			page 8


 294:Generated_Source\PSoC4/cyfitter_cfg.c **** *  Sets up the analog portions of the chip to default values based on chip
 295:Generated_Source\PSoC4/cyfitter_cfg.c **** *  configuration options from the project.
 296:Generated_Source\PSoC4/cyfitter_cfg.c **** *
 297:Generated_Source\PSoC4/cyfitter_cfg.c **** * Parameters:
 298:Generated_Source\PSoC4/cyfitter_cfg.c **** *  void
 299:Generated_Source\PSoC4/cyfitter_cfg.c **** *
 300:Generated_Source\PSoC4/cyfitter_cfg.c **** * Return:
 301:Generated_Source\PSoC4/cyfitter_cfg.c **** *  void
 302:Generated_Source\PSoC4/cyfitter_cfg.c **** *
 303:Generated_Source\PSoC4/cyfitter_cfg.c **** *******************************************************************************/
 304:Generated_Source\PSoC4/cyfitter_cfg.c **** static void AnalogSetDefault(void);
 305:Generated_Source\PSoC4/cyfitter_cfg.c **** static void AnalogSetDefault(void)
 306:Generated_Source\PSoC4/cyfitter_cfg.c **** {
 104              		.loc 1 306 0
 105              		.cfi_startproc
 106              		@ args = 0, pretend = 0, frame = 0
 107              		@ frame_needed = 0, uses_anonymous_args = 0
 108              		@ link register save eliminated.
 307:Generated_Source\PSoC4/cyfitter_cfg.c **** 	CY_SET_XTND_REG32((void CYFAR *)CYREG_CTBM0_DFT_CTRL, 0x00000003u);
 109              		.loc 1 307 0
 110 0000 0323     		movs	r3, #3
 111 0002 044A     		ldr	r2, .L7
 112 0004 1360     		str	r3, [r2]
 308:Generated_Source\PSoC4/cyfitter_cfg.c **** 	CY_SET_XTND_REG32((void CYFAR *)CYREG_CTBM1_DFT_CTRL, 0x00000003u);
 113              		.loc 1 308 0
 114 0006 044A     		ldr	r2, .L7+4
 115 0008 1360     		str	r3, [r2]
 309:Generated_Source\PSoC4/cyfitter_cfg.c **** 	CY_SET_XTND_REG32((void CYFAR *)CYREG_PASS_DSAB_DSAB_CTRL, 0x00000000u);
 116              		.loc 1 309 0
 117 000a 0022     		movs	r2, #0
 118 000c 034B     		ldr	r3, .L7+8
 119 000e 1A60     		str	r2, [r3]
 310:Generated_Source\PSoC4/cyfitter_cfg.c **** }
 120              		.loc 1 310 0
 121              		@ sp needed
 122 0010 7047     		bx	lr
 123              	.L8:
 124 0012 C046     		.align	2
 125              	.L7:
 126 0014 30003040 		.word	1076887600
 127 0018 30003140 		.word	1076953136
 128 001c 000E3F40 		.word	1077874176
 129              		.cfi_endproc
 130              	.LFE6:
 131              		.size	AnalogSetDefault, .-AnalogSetDefault
 132              		.section	.text.CYMEMZERO,"ax",%progbits
 133              		.align	2
 134              		.code	16
 135              		.thumb_func
 136              		.type	CYMEMZERO, %function
 137              	CYMEMZERO:
 138              	.LFB1:
  77:Generated_Source\PSoC4/cyfitter_cfg.c **** 	(void)memset(s, 0, n);
 139              		.loc 1 77 0
 140              		.cfi_startproc
 141              		@ args = 0, pretend = 0, frame = 0
 142              		@ frame_needed = 0, uses_anonymous_args = 0
ARM GAS  C:\Users\TERENC~1\AppData\Local\Temp\ccl2ugxZ.s 			page 9


 143              	.LVL12:
 144 0000 10B5     		push	{r4, lr}
 145              		.cfi_def_cfa_offset 8
 146              		.cfi_offset 4, -8
 147              		.cfi_offset 14, -4
 148 0002 0A00     		movs	r2, r1
  78:Generated_Source\PSoC4/cyfitter_cfg.c **** }
 149              		.loc 1 78 0
 150 0004 0021     		movs	r1, #0
 151              	.LVL13:
 152 0006 FFF7FEFF 		bl	memset
 153              	.LVL14:
  79:Generated_Source\PSoC4/cyfitter_cfg.c **** CY_CFG_UNUSED
 154              		.loc 1 79 0
 155              		@ sp needed
 156 000a 10BD     		pop	{r4, pc}
 157              		.cfi_endproc
 158              	.LFE1:
 159              		.size	CYMEMZERO, .-CYMEMZERO
 160              		.section	.text.CYCONFIGCPYCODE,"ax",%progbits
 161              		.align	2
 162              		.code	16
 163              		.thumb_func
 164              		.type	CYCONFIGCPYCODE, %function
 165              	CYCONFIGCPYCODE:
 166              	.LFB3:
  91:Generated_Source\PSoC4/cyfitter_cfg.c **** 	(void)memcpy(dest, src, n);
 167              		.loc 1 91 0
 168              		.cfi_startproc
 169              		@ args = 0, pretend = 0, frame = 0
 170              		@ frame_needed = 0, uses_anonymous_args = 0
 171              	.LVL15:
 172 0000 10B5     		push	{r4, lr}
 173              		.cfi_def_cfa_offset 8
 174              		.cfi_offset 4, -8
 175              		.cfi_offset 14, -4
  92:Generated_Source\PSoC4/cyfitter_cfg.c **** }
 176              		.loc 1 92 0
 177 0002 FFF7FEFF 		bl	memcpy
 178              	.LVL16:
  93:Generated_Source\PSoC4/cyfitter_cfg.c **** 
 179              		.loc 1 93 0
 180              		@ sp needed
 181 0006 10BD     		pop	{r4, pc}
 182              		.cfi_endproc
 183              	.LFE3:
 184              		.size	CYCONFIGCPYCODE, .-CYCONFIGCPYCODE
 185              		.section	.psocinit,"ax",%progbits
 186              		.align	2
 187              		.code	16
 188              		.thumb_func
 189              		.type	ClockSetup, %function
 190              	ClockSetup:
 191              	.LFB5:
 212:Generated_Source\PSoC4/cyfitter_cfg.c **** 	uint8 pllTimeout;
 192              		.loc 1 212 0
 193              		.cfi_startproc
ARM GAS  C:\Users\TERENC~1\AppData\Local\Temp\ccl2ugxZ.s 			page 10


 194              		@ args = 0, pretend = 0, frame = 0
 195              		@ frame_needed = 0, uses_anonymous_args = 0
 196 0000 70B5     		push	{r4, r5, r6, lr}
 197              		.cfi_def_cfa_offset 16
 198              		.cfi_offset 4, -16
 199              		.cfi_offset 5, -12
 200              		.cfi_offset 6, -8
 201              		.cfi_offset 14, -4
 216:Generated_Source\PSoC4/cyfitter_cfg.c **** 
 202              		.loc 1 216 0
 203 0002 1222     		movs	r2, #18
 204 0004 444B     		ldr	r3, .L16
 205 0006 1A60     		str	r2, [r3]
 219:Generated_Source\PSoC4/cyfitter_cfg.c **** 	CyDelayCycles(12000000u); /* WCO may take up to 500ms to start */
 206              		.loc 1 219 0
 207 0008 FFF7FEFF 		bl	CySysClkWcoStart
 208              	.LVL17:
 220:Generated_Source\PSoC4/cyfitter_cfg.c **** 
 209              		.loc 1 220 0
 210 000c 4348     		ldr	r0, .L16+4
 211 000e FFF7FEFF 		bl	CyDelayCycles
 212              	.LVL18:
 222:Generated_Source\PSoC4/cyfitter_cfg.c **** 	/* Setup and trim IMO based on desired frequency. */
 213              		.loc 1 222 0
 214 0012 FFF7FEFF 		bl	CySysClkImoEnableUsbLock
 215              	.LVL19:
 224:Generated_Source\PSoC4/cyfitter_cfg.c **** 	/* CYDEV_CLK_ILO_CONFIG Starting address: CYDEV_CLK_ILO_CONFIG */
 216              		.loc 1 224 0
 217 0016 3020     		movs	r0, #48
 218 0018 FFF7FEFF 		bl	CySysClkWriteImoFreq
 219              	.LVL20:
 226:Generated_Source\PSoC4/cyfitter_cfg.c **** 
 220              		.loc 1 226 0
 221 001c 404A     		ldr	r2, .L16+8
 222 001e 414B     		ldr	r3, .L16+12
 223 0020 1A60     		str	r2, [r3]
 229:Generated_Source\PSoC4/cyfitter_cfg.c **** 
 224              		.loc 1 229 0
 225 0022 8022     		movs	r2, #128
 226 0024 D205     		lsls	r2, r2, #23
 227 0026 404B     		ldr	r3, .L16+16
 228 0028 1A60     		str	r2, [r3]
 233:Generated_Source\PSoC4/cyfitter_cfg.c **** 	CY_SET_REG32((void CYXDATA *)(CYREG_CLK_ECO_TRIM0), (0x0000001Fu));
 229              		.loc 1 233 0
 230 002a 0022     		movs	r2, #0
 231 002c 3F4B     		ldr	r3, .L16+20
 232 002e 1A60     		str	r2, [r3]
 234:Generated_Source\PSoC4/cyfitter_cfg.c **** 	CY_SET_REG32((void CYXDATA *)(CYREG_CLK_ECO_TRIM1), (0x0000001Au));
 233              		.loc 1 234 0
 234 0030 1F32     		adds	r2, r2, #31
 235 0032 3F4B     		ldr	r3, .L16+24
 236 0034 1A60     		str	r2, [r3]
 235:Generated_Source\PSoC4/cyfitter_cfg.c **** 	/* Start the ECO and do not check status since it is not needed for HFCLK */
 237              		.loc 1 235 0
 238 0036 053A     		subs	r2, r2, #5
 239 0038 3E4B     		ldr	r3, .L16+28
 240 003a 1A60     		str	r2, [r3]
ARM GAS  C:\Users\TERENC~1\AppData\Local\Temp\ccl2ugxZ.s 			page 11


 237:Generated_Source\PSoC4/cyfitter_cfg.c **** 	CyDelayUs(1500u); /* Wait to stabilize */
 241              		.loc 1 237 0
 242 003c FA20     		movs	r0, #250
 243 003e C000     		lsls	r0, r0, #3
 244 0040 FFF7FEFF 		bl	CySysClkEcoStart
 245              	.LVL21:
 238:Generated_Source\PSoC4/cyfitter_cfg.c **** 	CY_SET_REG32(CYREG_CLK_SELECT, ((CY_GET_REG32(CYREG_CLK_SELECT) & 0xFFFFFE07u) | 0x00000090u));
 246              		.loc 1 238 0
 247 0044 3C48     		ldr	r0, .L16+32
 248 0046 FFF7FEFF 		bl	CyDelayUs
 249              	.LVL22:
 239:Generated_Source\PSoC4/cyfitter_cfg.c **** 	CY_SET_REG32(CYREG_CLK_PLL0_CONFIG, 0x8002060Au);
 250              		.loc 1 239 0
 251 004a 3C49     		ldr	r1, .L16+36
 252 004c 0A68     		ldr	r2, [r1]
 253 004e 3C4B     		ldr	r3, .L16+40
 254 0050 1340     		ands	r3, r2
 255 0052 9022     		movs	r2, #144
 256 0054 1343     		orrs	r3, r2
 257 0056 0B60     		str	r3, [r1]
 240:Generated_Source\PSoC4/cyfitter_cfg.c **** 	CY_SET_REG32(CYREG_CLK_PLL1_CONFIG, 0x80020F15u);
 258              		.loc 1 240 0
 259 0058 3A4D     		ldr	r5, .L16+44
 260 005a 3B4B     		ldr	r3, .L16+48
 261 005c 2B60     		str	r3, [r5]
 241:Generated_Source\PSoC4/cyfitter_cfg.c **** 	CyDelayCycles(240u);
 262              		.loc 1 241 0
 263 005e 3B4C     		ldr	r4, .L16+52
 264 0060 3B4B     		ldr	r3, .L16+56
 265 0062 2360     		str	r3, [r4]
 242:Generated_Source\PSoC4/cyfitter_cfg.c **** 	CY_SET_REG32(CYREG_CLK_PLL0_CONFIG, 0xC002060Au);
 266              		.loc 1 242 0
 267 0064 F020     		movs	r0, #240
 268 0066 FFF7FEFF 		bl	CyDelayCycles
 269              	.LVL23:
 243:Generated_Source\PSoC4/cyfitter_cfg.c **** 	CY_SET_REG32(CYREG_CLK_PLL1_CONFIG, 0xC0020F15u);
 270              		.loc 1 243 0
 271 006a 3A4B     		ldr	r3, .L16+60
 272 006c 2B60     		str	r3, [r5]
 244:Generated_Source\PSoC4/cyfitter_cfg.c **** 	for (pllTimeout = 0u; (pllTimeout < 25u) && ((CY_GET_REG32(CYREG_CLK_PLL0_STATUS) == 0u) || (CY_GE
 273              		.loc 1 244 0
 274 006e 3A4B     		ldr	r3, .L16+64
 275 0070 2360     		str	r3, [r4]
 276              	.LVL24:
 245:Generated_Source\PSoC4/cyfitter_cfg.c **** 	{
 277              		.loc 1 245 0
 278 0072 0024     		movs	r4, #0
 279 0074 05E0     		b	.L12
 280              	.LVL25:
 281              	.L14:
 247:Generated_Source\PSoC4/cyfitter_cfg.c **** 	}
 282              		.loc 1 247 0 discriminator 6
 283 0076 F020     		movs	r0, #240
 284 0078 4000     		lsls	r0, r0, #1
 285 007a FFF7FEFF 		bl	CyDelayCycles
 286              	.LVL26:
 245:Generated_Source\PSoC4/cyfitter_cfg.c **** 	{
ARM GAS  C:\Users\TERENC~1\AppData\Local\Temp\ccl2ugxZ.s 			page 12


 287              		.loc 1 245 0 discriminator 6
 288 007e 0134     		adds	r4, r4, #1
 289              	.LVL27:
 290 0080 E4B2     		uxtb	r4, r4
 291              	.LVL28:
 292              	.L12:
 245:Generated_Source\PSoC4/cyfitter_cfg.c **** 	{
 293              		.loc 1 245 0 is_stmt 0 discriminator 1
 294 0082 182C     		cmp	r4, #24
 295 0084 07D8     		bhi	.L13
 245:Generated_Source\PSoC4/cyfitter_cfg.c **** 	{
 296              		.loc 1 245 0 discriminator 3
 297 0086 354B     		ldr	r3, .L16+68
 298 0088 1B68     		ldr	r3, [r3]
 299 008a 002B     		cmp	r3, #0
 300 008c F3D0     		beq	.L14
 245:Generated_Source\PSoC4/cyfitter_cfg.c **** 	{
 301              		.loc 1 245 0 discriminator 5
 302 008e 344B     		ldr	r3, .L16+72
 303 0090 1B68     		ldr	r3, [r3]
 304 0092 002B     		cmp	r3, #0
 305 0094 EFD0     		beq	.L14
 306              	.L13:
 251:Generated_Source\PSoC4/cyfitter_cfg.c **** 	CY_SET_REG32((void *)CYREG_PERI_DIV_CMD, 0x8000FF40u);
 307              		.loc 1 251 0 is_stmt 1
 308 0096 0022     		movs	r2, #0
 309 0098 324B     		ldr	r3, .L16+76
 310 009a 1A60     		str	r2, [r3]
 252:Generated_Source\PSoC4/cyfitter_cfg.c **** 	CY_SET_REG32((void *)CYREG_PERI_DIV_16_CTL1, 0x00000500u);
 311              		.loc 1 252 0
 312 009c 324B     		ldr	r3, .L16+80
 313 009e 334A     		ldr	r2, .L16+84
 314 00a0 1A60     		str	r2, [r3]
 253:Generated_Source\PSoC4/cyfitter_cfg.c **** 	CY_SET_REG32((void *)CYREG_PERI_DIV_CMD, 0x8000FF41u);
 315              		.loc 1 253 0
 316 00a2 A021     		movs	r1, #160
 317 00a4 C900     		lsls	r1, r1, #3
 318 00a6 324A     		ldr	r2, .L16+88
 319 00a8 1160     		str	r1, [r2]
 254:Generated_Source\PSoC4/cyfitter_cfg.c **** 	CY_SET_REG32((void *)CYREG_PERI_DIV_16_CTL2, 0x00002200u);
 320              		.loc 1 254 0
 321 00aa 324A     		ldr	r2, .L16+92
 322 00ac 1A60     		str	r2, [r3]
 255:Generated_Source\PSoC4/cyfitter_cfg.c **** 	CY_SET_REG32((void *)CYREG_PERI_DIV_CMD, 0x8000FF42u);
 323              		.loc 1 255 0
 324 00ae 8821     		movs	r1, #136
 325 00b0 8901     		lsls	r1, r1, #6
 326 00b2 314A     		ldr	r2, .L16+96
 327 00b4 1160     		str	r1, [r2]
 256:Generated_Source\PSoC4/cyfitter_cfg.c **** 
 328              		.loc 1 256 0
 329 00b6 314A     		ldr	r2, .L16+100
 330 00b8 1A60     		str	r2, [r3]
 259:Generated_Source\PSoC4/cyfitter_cfg.c **** 
 331              		.loc 1 259 0
 332 00ba 8022     		movs	r2, #128
 333 00bc 1206     		lsls	r2, r2, #24
ARM GAS  C:\Users\TERENC~1\AppData\Local\Temp\ccl2ugxZ.s 			page 13


 334 00be 304B     		ldr	r3, .L16+104
 335 00c0 1A60     		str	r2, [r3]
 262:Generated_Source\PSoC4/cyfitter_cfg.c **** 
 336              		.loc 1 262 0
 337 00c2 304A     		ldr	r2, .L16+108
 338 00c4 1D4B     		ldr	r3, .L16+36
 339 00c6 1A60     		str	r2, [r3]
 265:Generated_Source\PSoC4/cyfitter_cfg.c **** 
 340              		.loc 1 265 0
 341 00c8 4023     		movs	r3, #64
 342 00ca 2F4A     		ldr	r2, .L16+112
 343 00cc 1360     		str	r3, [r2]
 268:Generated_Source\PSoC4/cyfitter_cfg.c **** 
 344              		.loc 1 268 0
 345 00ce 2F4A     		ldr	r2, .L16+116
 346 00d0 1360     		str	r3, [r2]
 271:Generated_Source\PSoC4/cyfitter_cfg.c **** 
 347              		.loc 1 271 0
 348 00d2 4122     		movs	r2, #65
 349 00d4 2E4B     		ldr	r3, .L16+120
 350 00d6 1A60     		str	r2, [r3]
 274:Generated_Source\PSoC4/cyfitter_cfg.c **** 
 351              		.loc 1 274 0
 352 00d8 0132     		adds	r2, r2, #1
 353 00da 2E4B     		ldr	r3, .L16+124
 354 00dc 1A60     		str	r2, [r3]
 276:Generated_Source\PSoC4/cyfitter_cfg.c **** 	CyIntEnable(8u);
 355              		.loc 1 276 0
 356 00de 2E49     		ldr	r1, .L16+128
 357 00e0 0820     		movs	r0, #8
 358 00e2 FFF7FEFF 		bl	CyIntSetVector
 359              	.LVL29:
 277:Generated_Source\PSoC4/cyfitter_cfg.c **** 	CY_SET_REG32((void *)(CYREG_WDT_MATCH), 0x001F0000u);
 360              		.loc 1 277 0
 361 00e6 0820     		movs	r0, #8
 362 00e8 FFF7FEFF 		bl	CyIntEnable
 363              	.LVL30:
 278:Generated_Source\PSoC4/cyfitter_cfg.c **** 	CY_SET_REG32((void *)(CYREG_WDT_CONFIG), 0x40000000u);
 364              		.loc 1 278 0
 365 00ec F822     		movs	r2, #248
 366 00ee 5203     		lsls	r2, r2, #13
 367 00f0 2A4B     		ldr	r3, .L16+132
 368 00f2 1A60     		str	r2, [r3]
 279:Generated_Source\PSoC4/cyfitter_cfg.c **** 	CY_SET_REG32((void *)(CYREG_WDT_CONTROL), 0x00000800u);
 369              		.loc 1 279 0
 370 00f4 8022     		movs	r2, #128
 371 00f6 D205     		lsls	r2, r2, #23
 372 00f8 0B4B     		ldr	r3, .L16+16
 373 00fa 1A60     		str	r2, [r3]
 280:Generated_Source\PSoC4/cyfitter_cfg.c **** 	while ((CY_GET_XTND_REG32((void CYFAR *)(CYREG_WDT_CONTROL)) & 0x00000800u) != 0u) { }
 374              		.loc 1 280 0
 375 00fc 8022     		movs	r2, #128
 376 00fe 1201     		lsls	r2, r2, #4
 377 0100 274B     		ldr	r3, .L16+136
 378 0102 1A60     		str	r2, [r3]
 379              	.L15:
 281:Generated_Source\PSoC4/cyfitter_cfg.c **** 	CY_SET_REG32((void *)(CYREG_WDT_CONTROL), 0x00000100u);
ARM GAS  C:\Users\TERENC~1\AppData\Local\Temp\ccl2ugxZ.s 			page 14


 380              		.loc 1 281 0 discriminator 1
 381 0104 264B     		ldr	r3, .L16+136
 382 0106 1B68     		ldr	r3, [r3]
 383 0108 1B05     		lsls	r3, r3, #20
 384 010a FBD4     		bmi	.L15
 282:Generated_Source\PSoC4/cyfitter_cfg.c **** }
 385              		.loc 1 282 0
 386 010c 8022     		movs	r2, #128
 387 010e 5200     		lsls	r2, r2, #1
 388 0110 234B     		ldr	r3, .L16+136
 389 0112 1A60     		str	r2, [r3]
 283:Generated_Source\PSoC4/cyfitter_cfg.c **** 
 390              		.loc 1 283 0
 391              		@ sp needed
 392              	.LVL31:
 393 0114 70BD     		pop	{r4, r5, r6, pc}
 394              	.L17:
 395 0116 C046     		.align	2
 396              	.L16:
 397 0118 30001040 		.word	1074790448
 398 011c 001BB700 		.word	12000000
 399 0120 06000080 		.word	-2147483642
 400 0124 04010B40 		.word	1074462980
 401 0128 0C020B40 		.word	1074463244
 402 012c 08000C40 		.word	1074528264
 403 0130 0CFF0C40 		.word	1074593548
 404 0134 10FF0C40 		.word	1074593552
 405 0138 DC050000 		.word	1500
 406 013c 00010B40 		.word	1074462976
 407 0140 07FEFFFF 		.word	-505
 408 0144 14000C40 		.word	1074528276
 409 0148 0A060280 		.word	-2147351030
 410 014c 20000C40 		.word	1074528288
 411 0150 150F0280 		.word	-2147348715
 412 0154 0A0602C0 		.word	-1073609206
 413 0158 150F02C0 		.word	-1073606891
 414 015c 18000C40 		.word	1074528280
 415 0160 24000C40 		.word	1074528292
 416 0164 00030140 		.word	1073808128
 417 0168 00000140 		.word	1073807360
 418 016c 40FF0080 		.word	-2147418304
 419 0170 04030140 		.word	1073808132
 420 0174 41FF0080 		.word	-2147418303
 421 0178 08030140 		.word	1073808136
 422 017c 42FF0080 		.word	-2147418302
 423 0180 08010B40 		.word	1074462984
 424 0184 90000400 		.word	262288
 425 0188 30010140 		.word	1073807664
 426 018c 2C010140 		.word	1073807660
 427 0190 0C010140 		.word	1073807628
 428 0194 08010140 		.word	1073807624
 429 0198 00000000 		.word	CySysWdtIsr
 430 019c 08020B40 		.word	1074463240
 431 01a0 10020B40 		.word	1074463248
 432              		.cfi_endproc
 433              	.LFE5:
 434              		.size	ClockSetup, .-ClockSetup
ARM GAS  C:\Users\TERENC~1\AppData\Local\Temp\ccl2ugxZ.s 			page 15


 435              		.align	2
 436              		.global	cyfitter_cfg
 437              		.code	16
 438              		.thumb_func
 439              		.type	cyfitter_cfg, %function
 440              	cyfitter_cfg:
 441              	.LFB7:
 311:Generated_Source\PSoC4/cyfitter_cfg.c **** 
 312:Generated_Source\PSoC4/cyfitter_cfg.c **** 
 313:Generated_Source\PSoC4/cyfitter_cfg.c **** 
 314:Generated_Source\PSoC4/cyfitter_cfg.c **** 
 315:Generated_Source\PSoC4/cyfitter_cfg.c **** /*******************************************************************************
 316:Generated_Source\PSoC4/cyfitter_cfg.c **** * Function Name: cyfitter_cfg
 317:Generated_Source\PSoC4/cyfitter_cfg.c **** ********************************************************************************
 318:Generated_Source\PSoC4/cyfitter_cfg.c **** * Summary:
 319:Generated_Source\PSoC4/cyfitter_cfg.c **** *  This function is called by the start-up code for the selected device. It
 320:Generated_Source\PSoC4/cyfitter_cfg.c **** *  performs all of the necessary device configuration based on the design
 321:Generated_Source\PSoC4/cyfitter_cfg.c **** *  settings.  This includes settings from the Design Wide Resources (DWR) such
 322:Generated_Source\PSoC4/cyfitter_cfg.c **** *  as Clocks and Pins as well as any component configuration that is necessary.
 323:Generated_Source\PSoC4/cyfitter_cfg.c **** *
 324:Generated_Source\PSoC4/cyfitter_cfg.c **** * Parameters:
 325:Generated_Source\PSoC4/cyfitter_cfg.c **** *   void
 326:Generated_Source\PSoC4/cyfitter_cfg.c **** *
 327:Generated_Source\PSoC4/cyfitter_cfg.c **** * Return:
 328:Generated_Source\PSoC4/cyfitter_cfg.c **** *   void
 329:Generated_Source\PSoC4/cyfitter_cfg.c **** *
 330:Generated_Source\PSoC4/cyfitter_cfg.c **** *******************************************************************************/
 331:Generated_Source\PSoC4/cyfitter_cfg.c **** CY_CFG_SECTION
 332:Generated_Source\PSoC4/cyfitter_cfg.c **** void cyfitter_cfg(void)
 333:Generated_Source\PSoC4/cyfitter_cfg.c **** {
 442              		.loc 1 333 0
 443              		.cfi_startproc
 444              		@ args = 0, pretend = 0, frame = 0
 445              		@ frame_needed = 0, uses_anonymous_args = 0
 446 01a4 70B5     		push	{r4, r5, r6, lr}
 447              		.cfi_def_cfa_offset 16
 448              		.cfi_offset 4, -16
 449              		.cfi_offset 5, -12
 450              		.cfi_offset 6, -8
 451              		.cfi_offset 14, -4
 334:Generated_Source\PSoC4/cyfitter_cfg.c **** 	/* Disable interrupts by default. Let user enable if/when they want. */
 335:Generated_Source\PSoC4/cyfitter_cfg.c **** 	CyGlobalIntDisable;
 452              		.loc 1 335 0
 453              		.syntax divided
 454              	@ 335 "Generated_Source\PSoC4\cyfitter_cfg.c" 1
 455 01a6 72B6     		CPSID   i
 456              	@ 0 "" 2
 336:Generated_Source\PSoC4/cyfitter_cfg.c **** 
 337:Generated_Source\PSoC4/cyfitter_cfg.c **** 	/* Enable the clock in the interrupt controller for the routed interrupts */
 338:Generated_Source\PSoC4/cyfitter_cfg.c **** 	CY_SET_REG8((void *)CYREG_UDB_UDB_INT_CLK_CTL, 0x01u);
 457              		.loc 1 338 0
 458              		.thumb
 459              		.syntax unified
 460 01a8 0122     		movs	r2, #1
 461 01aa 534B     		ldr	r3, .L23
 462 01ac 1A70     		strb	r2, [r3]
 463              	.LVL32:
ARM GAS  C:\Users\TERENC~1\AppData\Local\Temp\ccl2ugxZ.s 			page 16


 464              	.LBB3:
 339:Generated_Source\PSoC4/cyfitter_cfg.c **** 	{
 340:Generated_Source\PSoC4/cyfitter_cfg.c **** 		static const uint32 CYCODE cy_cfg_addr_table[] = {
 341:Generated_Source\PSoC4/cyfitter_cfg.c **** 			0x400F0002u, /* Base address: 0x400F0000 Count: 2 */
 342:Generated_Source\PSoC4/cyfitter_cfg.c **** 			0x400F300Eu, /* Base address: 0x400F3000 Count: 14 */
 343:Generated_Source\PSoC4/cyfitter_cfg.c **** 			0x400F3135u, /* Base address: 0x400F3100 Count: 53 */
 344:Generated_Source\PSoC4/cyfitter_cfg.c **** 			0x400F3215u, /* Base address: 0x400F3200 Count: 21 */
 345:Generated_Source\PSoC4/cyfitter_cfg.c **** 			0x400F333Eu, /* Base address: 0x400F3300 Count: 62 */
 346:Generated_Source\PSoC4/cyfitter_cfg.c **** 			0x400F3407u, /* Base address: 0x400F3400 Count: 7 */
 347:Generated_Source\PSoC4/cyfitter_cfg.c **** 			0x400F354Au, /* Base address: 0x400F3500 Count: 74 */
 348:Generated_Source\PSoC4/cyfitter_cfg.c **** 			0x400F364Cu, /* Base address: 0x400F3600 Count: 76 */
 349:Generated_Source\PSoC4/cyfitter_cfg.c **** 			0x400F374Au, /* Base address: 0x400F3700 Count: 74 */
 350:Generated_Source\PSoC4/cyfitter_cfg.c **** 			0x400F4005u, /* Base address: 0x400F4000 Count: 5 */
 351:Generated_Source\PSoC4/cyfitter_cfg.c **** 			0x400F410Bu, /* Base address: 0x400F4100 Count: 11 */
 352:Generated_Source\PSoC4/cyfitter_cfg.c **** 			0x400F4205u, /* Base address: 0x400F4200 Count: 5 */
 353:Generated_Source\PSoC4/cyfitter_cfg.c **** 			0x400F4306u, /* Base address: 0x400F4300 Count: 6 */
 354:Generated_Source\PSoC4/cyfitter_cfg.c **** 			0x400F4405u, /* Base address: 0x400F4400 Count: 5 */
 355:Generated_Source\PSoC4/cyfitter_cfg.c **** 			0x400F4508u, /* Base address: 0x400F4500 Count: 8 */
 356:Generated_Source\PSoC4/cyfitter_cfg.c **** 			0x400F4602u, /* Base address: 0x400F4600 Count: 2 */
 357:Generated_Source\PSoC4/cyfitter_cfg.c **** 			0x400F4718u, /* Base address: 0x400F4700 Count: 24 */
 358:Generated_Source\PSoC4/cyfitter_cfg.c **** 			0x400F6003u, /* Base address: 0x400F6000 Count: 3 */
 359:Generated_Source\PSoC4/cyfitter_cfg.c **** 		};
 360:Generated_Source\PSoC4/cyfitter_cfg.c **** 
 361:Generated_Source\PSoC4/cyfitter_cfg.c **** 		static const cy_cfg_addrvalue_t CYCODE cy_cfg_data_table[] = {
 362:Generated_Source\PSoC4/cyfitter_cfg.c **** 			{0x80u, 0x0Du},
 363:Generated_Source\PSoC4/cyfitter_cfg.c **** 			{0x84u, 0x7Fu},
 364:Generated_Source\PSoC4/cyfitter_cfg.c **** 			{0x8Bu, 0x01u},
 365:Generated_Source\PSoC4/cyfitter_cfg.c **** 			{0x91u, 0x01u},
 366:Generated_Source\PSoC4/cyfitter_cfg.c **** 			{0x93u, 0x02u},
 367:Generated_Source\PSoC4/cyfitter_cfg.c **** 			{0x97u, 0x02u},
 368:Generated_Source\PSoC4/cyfitter_cfg.c **** 			{0xB5u, 0x03u},
 369:Generated_Source\PSoC4/cyfitter_cfg.c **** 			{0xBAu, 0xC0u},
 370:Generated_Source\PSoC4/cyfitter_cfg.c **** 			{0xBFu, 0x10u},
 371:Generated_Source\PSoC4/cyfitter_cfg.c **** 			{0xD2u, 0x80u},
 372:Generated_Source\PSoC4/cyfitter_cfg.c **** 			{0xD8u, 0x04u},
 373:Generated_Source\PSoC4/cyfitter_cfg.c **** 			{0xD9u, 0x04u},
 374:Generated_Source\PSoC4/cyfitter_cfg.c **** 			{0xDBu, 0x08u},
 375:Generated_Source\PSoC4/cyfitter_cfg.c **** 			{0xDCu, 0x08u},
 376:Generated_Source\PSoC4/cyfitter_cfg.c **** 			{0xDDu, 0x90u},
 377:Generated_Source\PSoC4/cyfitter_cfg.c **** 			{0xDFu, 0x21u},
 378:Generated_Source\PSoC4/cyfitter_cfg.c **** 			{0x00u, 0x48u},
 379:Generated_Source\PSoC4/cyfitter_cfg.c **** 			{0x01u, 0x01u},
 380:Generated_Source\PSoC4/cyfitter_cfg.c **** 			{0x02u, 0x80u},
 381:Generated_Source\PSoC4/cyfitter_cfg.c **** 			{0x03u, 0x04u},
 382:Generated_Source\PSoC4/cyfitter_cfg.c **** 			{0x09u, 0x02u},
 383:Generated_Source\PSoC4/cyfitter_cfg.c **** 			{0x0Au, 0x25u},
 384:Generated_Source\PSoC4/cyfitter_cfg.c **** 			{0x11u, 0x44u},
 385:Generated_Source\PSoC4/cyfitter_cfg.c **** 			{0x12u, 0x50u},
 386:Generated_Source\PSoC4/cyfitter_cfg.c **** 			{0x18u, 0x40u},
 387:Generated_Source\PSoC4/cyfitter_cfg.c **** 			{0x19u, 0x26u},
 388:Generated_Source\PSoC4/cyfitter_cfg.c **** 			{0x1Au, 0x41u},
 389:Generated_Source\PSoC4/cyfitter_cfg.c **** 			{0x1Fu, 0x40u},
 390:Generated_Source\PSoC4/cyfitter_cfg.c **** 			{0x20u, 0x20u},
 391:Generated_Source\PSoC4/cyfitter_cfg.c **** 			{0x21u, 0x10u},
 392:Generated_Source\PSoC4/cyfitter_cfg.c **** 			{0x22u, 0x10u},
 393:Generated_Source\PSoC4/cyfitter_cfg.c **** 			{0x23u, 0x80u},
 394:Generated_Source\PSoC4/cyfitter_cfg.c **** 			{0x26u, 0x20u},
ARM GAS  C:\Users\TERENC~1\AppData\Local\Temp\ccl2ugxZ.s 			page 17


 395:Generated_Source\PSoC4/cyfitter_cfg.c **** 			{0x29u, 0x42u},
 396:Generated_Source\PSoC4/cyfitter_cfg.c **** 			{0x2Au, 0x50u},
 397:Generated_Source\PSoC4/cyfitter_cfg.c **** 			{0x31u, 0x02u},
 398:Generated_Source\PSoC4/cyfitter_cfg.c **** 			{0x32u, 0x80u},
 399:Generated_Source\PSoC4/cyfitter_cfg.c **** 			{0x33u, 0x04u},
 400:Generated_Source\PSoC4/cyfitter_cfg.c **** 			{0x37u, 0x0Au},
 401:Generated_Source\PSoC4/cyfitter_cfg.c **** 			{0x38u, 0x02u},
 402:Generated_Source\PSoC4/cyfitter_cfg.c **** 			{0x39u, 0x28u},
 403:Generated_Source\PSoC4/cyfitter_cfg.c **** 			{0x3Au, 0x80u},
 404:Generated_Source\PSoC4/cyfitter_cfg.c **** 			{0x3Eu, 0x10u},
 405:Generated_Source\PSoC4/cyfitter_cfg.c **** 			{0x42u, 0x80u},
 406:Generated_Source\PSoC4/cyfitter_cfg.c **** 			{0x48u, 0x02u},
 407:Generated_Source\PSoC4/cyfitter_cfg.c **** 			{0x49u, 0x09u},
 408:Generated_Source\PSoC4/cyfitter_cfg.c **** 			{0x50u, 0x03u},
 409:Generated_Source\PSoC4/cyfitter_cfg.c **** 			{0x59u, 0x09u},
 410:Generated_Source\PSoC4/cyfitter_cfg.c **** 			{0x5Bu, 0x80u},
 411:Generated_Source\PSoC4/cyfitter_cfg.c **** 			{0x6Bu, 0x02u},
 412:Generated_Source\PSoC4/cyfitter_cfg.c **** 			{0x76u, 0x80u},
 413:Generated_Source\PSoC4/cyfitter_cfg.c **** 			{0x78u, 0x01u},
 414:Generated_Source\PSoC4/cyfitter_cfg.c **** 			{0x7Au, 0x01u},
 415:Generated_Source\PSoC4/cyfitter_cfg.c **** 			{0x7Eu, 0x20u},
 416:Generated_Source\PSoC4/cyfitter_cfg.c **** 			{0x7Fu, 0x01u},
 417:Generated_Source\PSoC4/cyfitter_cfg.c **** 			{0x82u, 0x10u},
 418:Generated_Source\PSoC4/cyfitter_cfg.c **** 			{0x89u, 0x04u},
 419:Generated_Source\PSoC4/cyfitter_cfg.c **** 			{0x8Au, 0x01u},
 420:Generated_Source\PSoC4/cyfitter_cfg.c **** 			{0xC0u, 0x0Fu},
 421:Generated_Source\PSoC4/cyfitter_cfg.c **** 			{0xC2u, 0x0Fu},
 422:Generated_Source\PSoC4/cyfitter_cfg.c **** 			{0xC4u, 0x0Du},
 423:Generated_Source\PSoC4/cyfitter_cfg.c **** 			{0xCAu, 0x0Du},
 424:Generated_Source\PSoC4/cyfitter_cfg.c **** 			{0xCCu, 0xCBu},
 425:Generated_Source\PSoC4/cyfitter_cfg.c **** 			{0xCEu, 0x2Fu},
 426:Generated_Source\PSoC4/cyfitter_cfg.c **** 			{0xD0u, 0x01u},
 427:Generated_Source\PSoC4/cyfitter_cfg.c **** 			{0xD2u, 0x08u},
 428:Generated_Source\PSoC4/cyfitter_cfg.c **** 			{0xD6u, 0x0Bu},
 429:Generated_Source\PSoC4/cyfitter_cfg.c **** 			{0xDEu, 0x59u},
 430:Generated_Source\PSoC4/cyfitter_cfg.c **** 			{0xE2u, 0x01u},
 431:Generated_Source\PSoC4/cyfitter_cfg.c **** 			{0x00u, 0x1Fu},
 432:Generated_Source\PSoC4/cyfitter_cfg.c **** 			{0x02u, 0x20u},
 433:Generated_Source\PSoC4/cyfitter_cfg.c **** 			{0x04u, 0x08u},
 434:Generated_Source\PSoC4/cyfitter_cfg.c **** 			{0x06u, 0x01u},
 435:Generated_Source\PSoC4/cyfitter_cfg.c **** 			{0x16u, 0x20u},
 436:Generated_Source\PSoC4/cyfitter_cfg.c **** 			{0x18u, 0x01u},
 437:Generated_Source\PSoC4/cyfitter_cfg.c **** 			{0x1Au, 0x02u},
 438:Generated_Source\PSoC4/cyfitter_cfg.c **** 			{0x1Eu, 0x1Fu},
 439:Generated_Source\PSoC4/cyfitter_cfg.c **** 			{0x20u, 0x02u},
 440:Generated_Source\PSoC4/cyfitter_cfg.c **** 			{0x22u, 0x1Cu},
 441:Generated_Source\PSoC4/cyfitter_cfg.c **** 			{0x24u, 0x10u},
 442:Generated_Source\PSoC4/cyfitter_cfg.c **** 			{0x26u, 0x01u},
 443:Generated_Source\PSoC4/cyfitter_cfg.c **** 			{0x2Cu, 0x04u},
 444:Generated_Source\PSoC4/cyfitter_cfg.c **** 			{0x2Eu, 0x01u},
 445:Generated_Source\PSoC4/cyfitter_cfg.c **** 			{0x32u, 0x3Fu},
 446:Generated_Source\PSoC4/cyfitter_cfg.c **** 			{0x56u, 0x08u},
 447:Generated_Source\PSoC4/cyfitter_cfg.c **** 			{0x58u, 0x04u},
 448:Generated_Source\PSoC4/cyfitter_cfg.c **** 			{0x5Bu, 0x04u},
 449:Generated_Source\PSoC4/cyfitter_cfg.c **** 			{0x5Cu, 0x08u},
 450:Generated_Source\PSoC4/cyfitter_cfg.c **** 			{0x5Du, 0x90u},
 451:Generated_Source\PSoC4/cyfitter_cfg.c **** 			{0x5Fu, 0x01u},
ARM GAS  C:\Users\TERENC~1\AppData\Local\Temp\ccl2ugxZ.s 			page 18


 452:Generated_Source\PSoC4/cyfitter_cfg.c **** 			{0x00u, 0x04u},
 453:Generated_Source\PSoC4/cyfitter_cfg.c **** 			{0x06u, 0x90u},
 454:Generated_Source\PSoC4/cyfitter_cfg.c **** 			{0x0Au, 0x10u},
 455:Generated_Source\PSoC4/cyfitter_cfg.c **** 			{0x0Du, 0x40u},
 456:Generated_Source\PSoC4/cyfitter_cfg.c **** 			{0x0Eu, 0x24u},
 457:Generated_Source\PSoC4/cyfitter_cfg.c **** 			{0x12u, 0x09u},
 458:Generated_Source\PSoC4/cyfitter_cfg.c **** 			{0x16u, 0x40u},
 459:Generated_Source\PSoC4/cyfitter_cfg.c **** 			{0x17u, 0x44u},
 460:Generated_Source\PSoC4/cyfitter_cfg.c **** 			{0x18u, 0x20u},
 461:Generated_Source\PSoC4/cyfitter_cfg.c **** 			{0x1Au, 0x90u},
 462:Generated_Source\PSoC4/cyfitter_cfg.c **** 			{0x1Du, 0x08u},
 463:Generated_Source\PSoC4/cyfitter_cfg.c **** 			{0x1Eu, 0x20u},
 464:Generated_Source\PSoC4/cyfitter_cfg.c **** 			{0x22u, 0x09u},
 465:Generated_Source\PSoC4/cyfitter_cfg.c **** 			{0x29u, 0x01u},
 466:Generated_Source\PSoC4/cyfitter_cfg.c **** 			{0x2Au, 0x90u},
 467:Generated_Source\PSoC4/cyfitter_cfg.c **** 			{0x32u, 0x81u},
 468:Generated_Source\PSoC4/cyfitter_cfg.c **** 			{0x33u, 0x54u},
 469:Generated_Source\PSoC4/cyfitter_cfg.c **** 			{0x39u, 0x20u},
 470:Generated_Source\PSoC4/cyfitter_cfg.c **** 			{0x3Au, 0x4Au},
 471:Generated_Source\PSoC4/cyfitter_cfg.c **** 			{0x41u, 0x18u},
 472:Generated_Source\PSoC4/cyfitter_cfg.c **** 			{0x42u, 0x43u},
 473:Generated_Source\PSoC4/cyfitter_cfg.c **** 			{0x49u, 0x80u},
 474:Generated_Source\PSoC4/cyfitter_cfg.c **** 			{0x4Au, 0x28u},
 475:Generated_Source\PSoC4/cyfitter_cfg.c **** 			{0x52u, 0x01u},
 476:Generated_Source\PSoC4/cyfitter_cfg.c **** 			{0x5Au, 0xA0u},
 477:Generated_Source\PSoC4/cyfitter_cfg.c **** 			{0x5Cu, 0x40u},
 478:Generated_Source\PSoC4/cyfitter_cfg.c **** 			{0x64u, 0x01u},
 479:Generated_Source\PSoC4/cyfitter_cfg.c **** 			{0x68u, 0x04u},
 480:Generated_Source\PSoC4/cyfitter_cfg.c **** 			{0x69u, 0x48u},
 481:Generated_Source\PSoC4/cyfitter_cfg.c **** 			{0x7Au, 0x03u},
 482:Generated_Source\PSoC4/cyfitter_cfg.c **** 			{0x7Eu, 0x32u},
 483:Generated_Source\PSoC4/cyfitter_cfg.c **** 			{0x91u, 0x20u},
 484:Generated_Source\PSoC4/cyfitter_cfg.c **** 			{0x92u, 0x41u},
 485:Generated_Source\PSoC4/cyfitter_cfg.c **** 			{0x93u, 0x80u},
 486:Generated_Source\PSoC4/cyfitter_cfg.c **** 			{0x95u, 0x45u},
 487:Generated_Source\PSoC4/cyfitter_cfg.c **** 			{0x96u, 0x04u},
 488:Generated_Source\PSoC4/cyfitter_cfg.c **** 			{0x97u, 0x02u},
 489:Generated_Source\PSoC4/cyfitter_cfg.c **** 			{0x99u, 0x24u},
 490:Generated_Source\PSoC4/cyfitter_cfg.c **** 			{0x9Au, 0x50u},
 491:Generated_Source\PSoC4/cyfitter_cfg.c **** 			{0x9Cu, 0x01u},
 492:Generated_Source\PSoC4/cyfitter_cfg.c **** 			{0x9Du, 0x40u},
 493:Generated_Source\PSoC4/cyfitter_cfg.c **** 			{0x9Fu, 0x04u},
 494:Generated_Source\PSoC4/cyfitter_cfg.c **** 			{0xA0u, 0x10u},
 495:Generated_Source\PSoC4/cyfitter_cfg.c **** 			{0xA2u, 0x80u},
 496:Generated_Source\PSoC4/cyfitter_cfg.c **** 			{0xA4u, 0x04u},
 497:Generated_Source\PSoC4/cyfitter_cfg.c **** 			{0xA5u, 0x02u},
 498:Generated_Source\PSoC4/cyfitter_cfg.c **** 			{0xA6u, 0x01u},
 499:Generated_Source\PSoC4/cyfitter_cfg.c **** 			{0xABu, 0x08u},
 500:Generated_Source\PSoC4/cyfitter_cfg.c **** 			{0xAFu, 0x40u},
 501:Generated_Source\PSoC4/cyfitter_cfg.c **** 			{0xC0u, 0x34u},
 502:Generated_Source\PSoC4/cyfitter_cfg.c **** 			{0xC2u, 0xE4u},
 503:Generated_Source\PSoC4/cyfitter_cfg.c **** 			{0xC4u, 0xB3u},
 504:Generated_Source\PSoC4/cyfitter_cfg.c **** 			{0xCAu, 0x0Du},
 505:Generated_Source\PSoC4/cyfitter_cfg.c **** 			{0xCCu, 0x0Fu},
 506:Generated_Source\PSoC4/cyfitter_cfg.c **** 			{0xCEu, 0x0Fu},
 507:Generated_Source\PSoC4/cyfitter_cfg.c **** 			{0xD0u, 0x0Fu},
 508:Generated_Source\PSoC4/cyfitter_cfg.c **** 			{0xD2u, 0x0Cu},
ARM GAS  C:\Users\TERENC~1\AppData\Local\Temp\ccl2ugxZ.s 			page 19


 509:Generated_Source\PSoC4/cyfitter_cfg.c **** 			{0xD6u, 0x1Cu},
 510:Generated_Source\PSoC4/cyfitter_cfg.c **** 			{0xD8u, 0x10u},
 511:Generated_Source\PSoC4/cyfitter_cfg.c **** 			{0xDEu, 0x18u},
 512:Generated_Source\PSoC4/cyfitter_cfg.c **** 			{0xE4u, 0x84u},
 513:Generated_Source\PSoC4/cyfitter_cfg.c **** 			{0xEAu, 0x04u},
 514:Generated_Source\PSoC4/cyfitter_cfg.c **** 			{0xBAu, 0xC0u},
 515:Generated_Source\PSoC4/cyfitter_cfg.c **** 			{0xD6u, 0x08u},
 516:Generated_Source\PSoC4/cyfitter_cfg.c **** 			{0xD8u, 0x04u},
 517:Generated_Source\PSoC4/cyfitter_cfg.c **** 			{0xDBu, 0x04u},
 518:Generated_Source\PSoC4/cyfitter_cfg.c **** 			{0xDCu, 0x08u},
 519:Generated_Source\PSoC4/cyfitter_cfg.c **** 			{0xDDu, 0x90u},
 520:Generated_Source\PSoC4/cyfitter_cfg.c **** 			{0xDFu, 0x31u},
 521:Generated_Source\PSoC4/cyfitter_cfg.c **** 			{0x00u, 0x18u},
 522:Generated_Source\PSoC4/cyfitter_cfg.c **** 			{0x03u, 0x03u},
 523:Generated_Source\PSoC4/cyfitter_cfg.c **** 			{0x08u, 0x20u},
 524:Generated_Source\PSoC4/cyfitter_cfg.c **** 			{0x0Au, 0x02u},
 525:Generated_Source\PSoC4/cyfitter_cfg.c **** 			{0x0Bu, 0x10u},
 526:Generated_Source\PSoC4/cyfitter_cfg.c **** 			{0x10u, 0x10u},
 527:Generated_Source\PSoC4/cyfitter_cfg.c **** 			{0x12u, 0x40u},
 528:Generated_Source\PSoC4/cyfitter_cfg.c **** 			{0x13u, 0x20u},
 529:Generated_Source\PSoC4/cyfitter_cfg.c **** 			{0x18u, 0x10u},
 530:Generated_Source\PSoC4/cyfitter_cfg.c **** 			{0x19u, 0x80u},
 531:Generated_Source\PSoC4/cyfitter_cfg.c **** 			{0x1Au, 0x40u},
 532:Generated_Source\PSoC4/cyfitter_cfg.c **** 			{0x1Bu, 0x30u},
 533:Generated_Source\PSoC4/cyfitter_cfg.c **** 			{0x1Eu, 0x02u},
 534:Generated_Source\PSoC4/cyfitter_cfg.c **** 			{0x21u, 0x02u},
 535:Generated_Source\PSoC4/cyfitter_cfg.c **** 			{0x28u, 0x0Au},
 536:Generated_Source\PSoC4/cyfitter_cfg.c **** 			{0x2Au, 0x08u},
 537:Generated_Source\PSoC4/cyfitter_cfg.c **** 			{0x2Cu, 0x10u},
 538:Generated_Source\PSoC4/cyfitter_cfg.c **** 			{0x2Fu, 0x20u},
 539:Generated_Source\PSoC4/cyfitter_cfg.c **** 			{0x31u, 0x42u},
 540:Generated_Source\PSoC4/cyfitter_cfg.c **** 			{0x32u, 0x14u},
 541:Generated_Source\PSoC4/cyfitter_cfg.c **** 			{0x38u, 0x28u},
 542:Generated_Source\PSoC4/cyfitter_cfg.c **** 			{0x39u, 0x41u},
 543:Generated_Source\PSoC4/cyfitter_cfg.c **** 			{0x3Au, 0x80u},
 544:Generated_Source\PSoC4/cyfitter_cfg.c **** 			{0x40u, 0x20u},
 545:Generated_Source\PSoC4/cyfitter_cfg.c **** 			{0x41u, 0x08u},
 546:Generated_Source\PSoC4/cyfitter_cfg.c **** 			{0x43u, 0x10u},
 547:Generated_Source\PSoC4/cyfitter_cfg.c **** 			{0x48u, 0x04u},
 548:Generated_Source\PSoC4/cyfitter_cfg.c **** 			{0x49u, 0x81u},
 549:Generated_Source\PSoC4/cyfitter_cfg.c **** 			{0x4Au, 0x10u},
 550:Generated_Source\PSoC4/cyfitter_cfg.c **** 			{0x52u, 0x40u},
 551:Generated_Source\PSoC4/cyfitter_cfg.c **** 			{0x5Cu, 0x40u},
 552:Generated_Source\PSoC4/cyfitter_cfg.c **** 			{0x60u, 0x02u},
 553:Generated_Source\PSoC4/cyfitter_cfg.c **** 			{0x67u, 0x02u},
 554:Generated_Source\PSoC4/cyfitter_cfg.c **** 			{0x68u, 0x10u},
 555:Generated_Source\PSoC4/cyfitter_cfg.c **** 			{0x69u, 0x45u},
 556:Generated_Source\PSoC4/cyfitter_cfg.c **** 			{0x6Au, 0x28u},
 557:Generated_Source\PSoC4/cyfitter_cfg.c **** 			{0x6Bu, 0x0Cu},
 558:Generated_Source\PSoC4/cyfitter_cfg.c **** 			{0x70u, 0x04u},
 559:Generated_Source\PSoC4/cyfitter_cfg.c **** 			{0x71u, 0x40u},
 560:Generated_Source\PSoC4/cyfitter_cfg.c **** 			{0x72u, 0x0Cu},
 561:Generated_Source\PSoC4/cyfitter_cfg.c **** 			{0x73u, 0x21u},
 562:Generated_Source\PSoC4/cyfitter_cfg.c **** 			{0x7Au, 0x01u},
 563:Generated_Source\PSoC4/cyfitter_cfg.c **** 			{0x7Fu, 0x40u},
 564:Generated_Source\PSoC4/cyfitter_cfg.c **** 			{0x90u, 0x20u},
 565:Generated_Source\PSoC4/cyfitter_cfg.c **** 			{0x91u, 0x08u},
ARM GAS  C:\Users\TERENC~1\AppData\Local\Temp\ccl2ugxZ.s 			page 20


 566:Generated_Source\PSoC4/cyfitter_cfg.c **** 			{0x93u, 0x80u},
 567:Generated_Source\PSoC4/cyfitter_cfg.c **** 			{0x94u, 0x44u},
 568:Generated_Source\PSoC4/cyfitter_cfg.c **** 			{0x95u, 0x85u},
 569:Generated_Source\PSoC4/cyfitter_cfg.c **** 			{0x96u, 0x04u},
 570:Generated_Source\PSoC4/cyfitter_cfg.c **** 			{0x97u, 0x02u},
 571:Generated_Source\PSoC4/cyfitter_cfg.c **** 			{0x99u, 0x24u},
 572:Generated_Source\PSoC4/cyfitter_cfg.c **** 			{0x9Du, 0x41u},
 573:Generated_Source\PSoC4/cyfitter_cfg.c **** 			{0x9Eu, 0x88u},
 574:Generated_Source\PSoC4/cyfitter_cfg.c **** 			{0x9Fu, 0x04u},
 575:Generated_Source\PSoC4/cyfitter_cfg.c **** 			{0xA2u, 0x20u},
 576:Generated_Source\PSoC4/cyfitter_cfg.c **** 			{0xA5u, 0x02u},
 577:Generated_Source\PSoC4/cyfitter_cfg.c **** 			{0xA6u, 0x01u},
 578:Generated_Source\PSoC4/cyfitter_cfg.c **** 			{0xAAu, 0x40u},
 579:Generated_Source\PSoC4/cyfitter_cfg.c **** 			{0xABu, 0x10u},
 580:Generated_Source\PSoC4/cyfitter_cfg.c **** 			{0xAEu, 0x01u},
 581:Generated_Source\PSoC4/cyfitter_cfg.c **** 			{0xB0u, 0x10u},
 582:Generated_Source\PSoC4/cyfitter_cfg.c **** 			{0xB1u, 0x80u},
 583:Generated_Source\PSoC4/cyfitter_cfg.c **** 			{0xC0u, 0x07u},
 584:Generated_Source\PSoC4/cyfitter_cfg.c **** 			{0xC2u, 0x07u},
 585:Generated_Source\PSoC4/cyfitter_cfg.c **** 			{0xC4u, 0x0Eu},
 586:Generated_Source\PSoC4/cyfitter_cfg.c **** 			{0xCAu, 0x0Eu},
 587:Generated_Source\PSoC4/cyfitter_cfg.c **** 			{0xCCu, 0x0Fu},
 588:Generated_Source\PSoC4/cyfitter_cfg.c **** 			{0xCEu, 0x0Fu},
 589:Generated_Source\PSoC4/cyfitter_cfg.c **** 			{0xD0u, 0x06u},
 590:Generated_Source\PSoC4/cyfitter_cfg.c **** 			{0xD2u, 0x0Cu},
 591:Generated_Source\PSoC4/cyfitter_cfg.c **** 			{0xD6u, 0x10u},
 592:Generated_Source\PSoC4/cyfitter_cfg.c **** 			{0xD8u, 0x18u},
 593:Generated_Source\PSoC4/cyfitter_cfg.c **** 			{0xDEu, 0x88u},
 594:Generated_Source\PSoC4/cyfitter_cfg.c **** 			{0xECu, 0x02u},
 595:Generated_Source\PSoC4/cyfitter_cfg.c **** 			{0x00u, 0xEFu},
 596:Generated_Source\PSoC4/cyfitter_cfg.c **** 			{0x01u, 0x03u},
 597:Generated_Source\PSoC4/cyfitter_cfg.c **** 			{0x03u, 0x04u},
 598:Generated_Source\PSoC4/cyfitter_cfg.c **** 			{0x04u, 0xEFu},
 599:Generated_Source\PSoC4/cyfitter_cfg.c **** 			{0x05u, 0x1Fu},
 600:Generated_Source\PSoC4/cyfitter_cfg.c **** 			{0x07u, 0x60u},
 601:Generated_Source\PSoC4/cyfitter_cfg.c **** 			{0x0Bu, 0x06u},
 602:Generated_Source\PSoC4/cyfitter_cfg.c **** 			{0x0Cu, 0xEFu},
 603:Generated_Source\PSoC4/cyfitter_cfg.c **** 			{0x0Fu, 0x7Fu},
 604:Generated_Source\PSoC4/cyfitter_cfg.c **** 			{0x10u, 0x10u},
 605:Generated_Source\PSoC4/cyfitter_cfg.c **** 			{0x11u, 0x20u},
 606:Generated_Source\PSoC4/cyfitter_cfg.c **** 			{0x13u, 0x08u},
 607:Generated_Source\PSoC4/cyfitter_cfg.c **** 			{0x16u, 0xCEu},
 608:Generated_Source\PSoC4/cyfitter_cfg.c **** 			{0x17u, 0x07u},
 609:Generated_Source\PSoC4/cyfitter_cfg.c **** 			{0x18u, 0xE3u},
 610:Generated_Source\PSoC4/cyfitter_cfg.c **** 			{0x19u, 0x80u},
 611:Generated_Source\PSoC4/cyfitter_cfg.c **** 			{0x1Au, 0x04u},
 612:Generated_Source\PSoC4/cyfitter_cfg.c **** 			{0x1Cu, 0x63u},
 613:Generated_Source\PSoC4/cyfitter_cfg.c **** 			{0x1Du, 0x40u},
 614:Generated_Source\PSoC4/cyfitter_cfg.c **** 			{0x1Eu, 0x88u},
 615:Generated_Source\PSoC4/cyfitter_cfg.c **** 			{0x1Fu, 0x10u},
 616:Generated_Source\PSoC4/cyfitter_cfg.c **** 			{0x20u, 0x63u},
 617:Generated_Source\PSoC4/cyfitter_cfg.c **** 			{0x21u, 0x03u},
 618:Generated_Source\PSoC4/cyfitter_cfg.c **** 			{0x22u, 0x8Cu},
 619:Generated_Source\PSoC4/cyfitter_cfg.c **** 			{0x23u, 0x04u},
 620:Generated_Source\PSoC4/cyfitter_cfg.c **** 			{0x24u, 0x60u},
 621:Generated_Source\PSoC4/cyfitter_cfg.c **** 			{0x25u, 0x03u},
 622:Generated_Source\PSoC4/cyfitter_cfg.c **** 			{0x26u, 0x8Fu},
ARM GAS  C:\Users\TERENC~1\AppData\Local\Temp\ccl2ugxZ.s 			page 21


 623:Generated_Source\PSoC4/cyfitter_cfg.c **** 			{0x28u, 0x21u},
 624:Generated_Source\PSoC4/cyfitter_cfg.c **** 			{0x29u, 0x81u},
 625:Generated_Source\PSoC4/cyfitter_cfg.c **** 			{0x2Cu, 0x63u},
 626:Generated_Source\PSoC4/cyfitter_cfg.c **** 			{0x2Du, 0x03u},
 627:Generated_Source\PSoC4/cyfitter_cfg.c **** 			{0x2Eu, 0x8Cu},
 628:Generated_Source\PSoC4/cyfitter_cfg.c **** 			{0x2Fu, 0x04u},
 629:Generated_Source\PSoC4/cyfitter_cfg.c **** 			{0x32u, 0x1Fu},
 630:Generated_Source\PSoC4/cyfitter_cfg.c **** 			{0x33u, 0x7Fu},
 631:Generated_Source\PSoC4/cyfitter_cfg.c **** 			{0x34u, 0xF0u},
 632:Generated_Source\PSoC4/cyfitter_cfg.c **** 			{0x37u, 0x80u},
 633:Generated_Source\PSoC4/cyfitter_cfg.c **** 			{0x39u, 0x08u},
 634:Generated_Source\PSoC4/cyfitter_cfg.c **** 			{0x54u, 0x01u},
 635:Generated_Source\PSoC4/cyfitter_cfg.c **** 			{0x58u, 0x04u},
 636:Generated_Source\PSoC4/cyfitter_cfg.c **** 			{0x59u, 0x04u},
 637:Generated_Source\PSoC4/cyfitter_cfg.c **** 			{0x5Bu, 0x04u},
 638:Generated_Source\PSoC4/cyfitter_cfg.c **** 			{0x5Cu, 0x88u},
 639:Generated_Source\PSoC4/cyfitter_cfg.c **** 			{0x5Du, 0x80u},
 640:Generated_Source\PSoC4/cyfitter_cfg.c **** 			{0x5Fu, 0x01u},
 641:Generated_Source\PSoC4/cyfitter_cfg.c **** 			{0x80u, 0x80u},
 642:Generated_Source\PSoC4/cyfitter_cfg.c **** 			{0x82u, 0x08u},
 643:Generated_Source\PSoC4/cyfitter_cfg.c **** 			{0x87u, 0x01u},
 644:Generated_Source\PSoC4/cyfitter_cfg.c **** 			{0x88u, 0xFFu},
 645:Generated_Source\PSoC4/cyfitter_cfg.c **** 			{0x8Cu, 0x80u},
 646:Generated_Source\PSoC4/cyfitter_cfg.c **** 			{0x8Eu, 0x40u},
 647:Generated_Source\PSoC4/cyfitter_cfg.c **** 			{0x92u, 0x7Fu},
 648:Generated_Source\PSoC4/cyfitter_cfg.c **** 			{0x94u, 0x80u},
 649:Generated_Source\PSoC4/cyfitter_cfg.c **** 			{0x96u, 0x01u},
 650:Generated_Source\PSoC4/cyfitter_cfg.c **** 			{0x98u, 0x80u},
 651:Generated_Source\PSoC4/cyfitter_cfg.c **** 			{0x9Au, 0x02u},
 652:Generated_Source\PSoC4/cyfitter_cfg.c **** 			{0x9Eu, 0x7Fu},
 653:Generated_Source\PSoC4/cyfitter_cfg.c **** 			{0xA0u, 0x80u},
 654:Generated_Source\PSoC4/cyfitter_cfg.c **** 			{0xA2u, 0x04u},
 655:Generated_Source\PSoC4/cyfitter_cfg.c **** 			{0xA4u, 0x80u},
 656:Generated_Source\PSoC4/cyfitter_cfg.c **** 			{0xA6u, 0x20u},
 657:Generated_Source\PSoC4/cyfitter_cfg.c **** 			{0xAAu, 0x80u},
 658:Generated_Source\PSoC4/cyfitter_cfg.c **** 			{0xACu, 0x80u},
 659:Generated_Source\PSoC4/cyfitter_cfg.c **** 			{0xADu, 0x02u},
 660:Generated_Source\PSoC4/cyfitter_cfg.c **** 			{0xAEu, 0x10u},
 661:Generated_Source\PSoC4/cyfitter_cfg.c **** 			{0xB5u, 0x02u},
 662:Generated_Source\PSoC4/cyfitter_cfg.c **** 			{0xB6u, 0xFFu},
 663:Generated_Source\PSoC4/cyfitter_cfg.c **** 			{0xB7u, 0x01u},
 664:Generated_Source\PSoC4/cyfitter_cfg.c **** 			{0xD6u, 0x08u},
 665:Generated_Source\PSoC4/cyfitter_cfg.c **** 			{0xD8u, 0x04u},
 666:Generated_Source\PSoC4/cyfitter_cfg.c **** 			{0xD9u, 0x04u},
 667:Generated_Source\PSoC4/cyfitter_cfg.c **** 			{0xDBu, 0x04u},
 668:Generated_Source\PSoC4/cyfitter_cfg.c **** 			{0xDCu, 0x88u},
 669:Generated_Source\PSoC4/cyfitter_cfg.c **** 			{0xDDu, 0x80u},
 670:Generated_Source\PSoC4/cyfitter_cfg.c **** 			{0xDFu, 0x01u},
 671:Generated_Source\PSoC4/cyfitter_cfg.c **** 			{0x00u, 0x10u},
 672:Generated_Source\PSoC4/cyfitter_cfg.c **** 			{0x01u, 0x41u},
 673:Generated_Source\PSoC4/cyfitter_cfg.c **** 			{0x07u, 0x92u},
 674:Generated_Source\PSoC4/cyfitter_cfg.c **** 			{0x08u, 0x06u},
 675:Generated_Source\PSoC4/cyfitter_cfg.c **** 			{0x0Au, 0x06u},
 676:Generated_Source\PSoC4/cyfitter_cfg.c **** 			{0x0Eu, 0x04u},
 677:Generated_Source\PSoC4/cyfitter_cfg.c **** 			{0x0Fu, 0xA1u},
 678:Generated_Source\PSoC4/cyfitter_cfg.c **** 			{0x10u, 0x02u},
 679:Generated_Source\PSoC4/cyfitter_cfg.c **** 			{0x13u, 0x19u},
ARM GAS  C:\Users\TERENC~1\AppData\Local\Temp\ccl2ugxZ.s 			page 22


 680:Generated_Source\PSoC4/cyfitter_cfg.c **** 			{0x14u, 0x05u},
 681:Generated_Source\PSoC4/cyfitter_cfg.c **** 			{0x15u, 0x01u},
 682:Generated_Source\PSoC4/cyfitter_cfg.c **** 			{0x17u, 0x28u},
 683:Generated_Source\PSoC4/cyfitter_cfg.c **** 			{0x1Au, 0x02u},
 684:Generated_Source\PSoC4/cyfitter_cfg.c **** 			{0x1Bu, 0x40u},
 685:Generated_Source\PSoC4/cyfitter_cfg.c **** 			{0x1Cu, 0x08u},
 686:Generated_Source\PSoC4/cyfitter_cfg.c **** 			{0x1Du, 0x08u},
 687:Generated_Source\PSoC4/cyfitter_cfg.c **** 			{0x22u, 0x60u},
 688:Generated_Source\PSoC4/cyfitter_cfg.c **** 			{0x26u, 0x80u},
 689:Generated_Source\PSoC4/cyfitter_cfg.c **** 			{0x27u, 0x10u},
 690:Generated_Source\PSoC4/cyfitter_cfg.c **** 			{0x28u, 0x02u},
 691:Generated_Source\PSoC4/cyfitter_cfg.c **** 			{0x2Cu, 0x07u},
 692:Generated_Source\PSoC4/cyfitter_cfg.c **** 			{0x2Du, 0x01u},
 693:Generated_Source\PSoC4/cyfitter_cfg.c **** 			{0x2Eu, 0x04u},
 694:Generated_Source\PSoC4/cyfitter_cfg.c **** 			{0x36u, 0x20u},
 695:Generated_Source\PSoC4/cyfitter_cfg.c **** 			{0x37u, 0x89u},
 696:Generated_Source\PSoC4/cyfitter_cfg.c **** 			{0x39u, 0x08u},
 697:Generated_Source\PSoC4/cyfitter_cfg.c **** 			{0x3Cu, 0x08u},
 698:Generated_Source\PSoC4/cyfitter_cfg.c **** 			{0x3Fu, 0xA1u},
 699:Generated_Source\PSoC4/cyfitter_cfg.c **** 			{0x59u, 0x24u},
 700:Generated_Source\PSoC4/cyfitter_cfg.c **** 			{0x5Au, 0x80u},
 701:Generated_Source\PSoC4/cyfitter_cfg.c **** 			{0x5Eu, 0x60u},
 702:Generated_Source\PSoC4/cyfitter_cfg.c **** 			{0x60u, 0x0Eu},
 703:Generated_Source\PSoC4/cyfitter_cfg.c **** 			{0x63u, 0x10u},
 704:Generated_Source\PSoC4/cyfitter_cfg.c **** 			{0x7Au, 0x03u},
 705:Generated_Source\PSoC4/cyfitter_cfg.c **** 			{0x7Eu, 0x02u},
 706:Generated_Source\PSoC4/cyfitter_cfg.c **** 			{0x81u, 0x40u},
 707:Generated_Source\PSoC4/cyfitter_cfg.c **** 			{0x84u, 0x16u},
 708:Generated_Source\PSoC4/cyfitter_cfg.c **** 			{0x86u, 0x10u},
 709:Generated_Source\PSoC4/cyfitter_cfg.c **** 			{0x87u, 0x02u},
 710:Generated_Source\PSoC4/cyfitter_cfg.c **** 			{0x89u, 0x08u},
 711:Generated_Source\PSoC4/cyfitter_cfg.c **** 			{0x8Bu, 0x80u},
 712:Generated_Source\PSoC4/cyfitter_cfg.c **** 			{0x8Cu, 0x40u},
 713:Generated_Source\PSoC4/cyfitter_cfg.c **** 			{0x8Du, 0x40u},
 714:Generated_Source\PSoC4/cyfitter_cfg.c **** 			{0x8Eu, 0x80u},
 715:Generated_Source\PSoC4/cyfitter_cfg.c **** 			{0x90u, 0x10u},
 716:Generated_Source\PSoC4/cyfitter_cfg.c **** 			{0x91u, 0x49u},
 717:Generated_Source\PSoC4/cyfitter_cfg.c **** 			{0x92u, 0x44u},
 718:Generated_Source\PSoC4/cyfitter_cfg.c **** 			{0x93u, 0x01u},
 719:Generated_Source\PSoC4/cyfitter_cfg.c **** 			{0x94u, 0x44u},
 720:Generated_Source\PSoC4/cyfitter_cfg.c **** 			{0x95u, 0x80u},
 721:Generated_Source\PSoC4/cyfitter_cfg.c **** 			{0x96u, 0x02u},
 722:Generated_Source\PSoC4/cyfitter_cfg.c **** 			{0x97u, 0x10u},
 723:Generated_Source\PSoC4/cyfitter_cfg.c **** 			{0x99u, 0x24u},
 724:Generated_Source\PSoC4/cyfitter_cfg.c **** 			{0x9Bu, 0x29u},
 725:Generated_Source\PSoC4/cyfitter_cfg.c **** 			{0x9Cu, 0x0Au},
 726:Generated_Source\PSoC4/cyfitter_cfg.c **** 			{0x9Fu, 0x10u},
 727:Generated_Source\PSoC4/cyfitter_cfg.c **** 			{0xA0u, 0x10u},
 728:Generated_Source\PSoC4/cyfitter_cfg.c **** 			{0xA2u, 0x11u},
 729:Generated_Source\PSoC4/cyfitter_cfg.c **** 			{0xA3u, 0x10u},
 730:Generated_Source\PSoC4/cyfitter_cfg.c **** 			{0xA4u, 0x04u},
 731:Generated_Source\PSoC4/cyfitter_cfg.c **** 			{0xA5u, 0x08u},
 732:Generated_Source\PSoC4/cyfitter_cfg.c **** 			{0xB6u, 0x20u},
 733:Generated_Source\PSoC4/cyfitter_cfg.c **** 			{0xB7u, 0x12u},
 734:Generated_Source\PSoC4/cyfitter_cfg.c **** 			{0xC0u, 0xBBu},
 735:Generated_Source\PSoC4/cyfitter_cfg.c **** 			{0xC2u, 0xFFu},
 736:Generated_Source\PSoC4/cyfitter_cfg.c **** 			{0xC4u, 0xFFu},
ARM GAS  C:\Users\TERENC~1\AppData\Local\Temp\ccl2ugxZ.s 			page 23


 737:Generated_Source\PSoC4/cyfitter_cfg.c **** 			{0xCAu, 0xF8u},
 738:Generated_Source\PSoC4/cyfitter_cfg.c **** 			{0xCCu, 0xF0u},
 739:Generated_Source\PSoC4/cyfitter_cfg.c **** 			{0xCEu, 0xF2u},
 740:Generated_Source\PSoC4/cyfitter_cfg.c **** 			{0xD6u, 0x3Eu},
 741:Generated_Source\PSoC4/cyfitter_cfg.c **** 			{0xD8u, 0x0Eu},
 742:Generated_Source\PSoC4/cyfitter_cfg.c **** 			{0xDEu, 0x18u},
 743:Generated_Source\PSoC4/cyfitter_cfg.c **** 			{0xE2u, 0x80u},
 744:Generated_Source\PSoC4/cyfitter_cfg.c **** 			{0xE4u, 0x0Cu},
 745:Generated_Source\PSoC4/cyfitter_cfg.c **** 			{0x68u, 0x01u},
 746:Generated_Source\PSoC4/cyfitter_cfg.c **** 			{0x6Fu, 0x04u},
 747:Generated_Source\PSoC4/cyfitter_cfg.c **** 			{0x73u, 0x08u},
 748:Generated_Source\PSoC4/cyfitter_cfg.c **** 			{0xDAu, 0xC0u},
 749:Generated_Source\PSoC4/cyfitter_cfg.c **** 			{0xDCu, 0x20u},
 750:Generated_Source\PSoC4/cyfitter_cfg.c **** 			{0x2Bu, 0x20u},
 751:Generated_Source\PSoC4/cyfitter_cfg.c **** 			{0x2Eu, 0x01u},
 752:Generated_Source\PSoC4/cyfitter_cfg.c **** 			{0x83u, 0x20u},
 753:Generated_Source\PSoC4/cyfitter_cfg.c **** 			{0x8Au, 0x01u},
 754:Generated_Source\PSoC4/cyfitter_cfg.c **** 			{0x9Au, 0x40u},
 755:Generated_Source\PSoC4/cyfitter_cfg.c **** 			{0x9Fu, 0x0Cu},
 756:Generated_Source\PSoC4/cyfitter_cfg.c **** 			{0xA4u, 0x01u},
 757:Generated_Source\PSoC4/cyfitter_cfg.c **** 			{0xAEu, 0x40u},
 758:Generated_Source\PSoC4/cyfitter_cfg.c **** 			{0xCAu, 0xC0u},
 759:Generated_Source\PSoC4/cyfitter_cfg.c **** 			{0xE4u, 0x20u},
 760:Generated_Source\PSoC4/cyfitter_cfg.c **** 			{0xEAu, 0x10u},
 761:Generated_Source\PSoC4/cyfitter_cfg.c **** 			{0x66u, 0x40u},
 762:Generated_Source\PSoC4/cyfitter_cfg.c **** 			{0x9Au, 0x40u},
 763:Generated_Source\PSoC4/cyfitter_cfg.c **** 			{0x9Fu, 0x0Cu},
 764:Generated_Source\PSoC4/cyfitter_cfg.c **** 			{0xA4u, 0x01u},
 765:Generated_Source\PSoC4/cyfitter_cfg.c **** 			{0xD6u, 0x80u},
 766:Generated_Source\PSoC4/cyfitter_cfg.c **** 			{0x13u, 0x08u},
 767:Generated_Source\PSoC4/cyfitter_cfg.c **** 			{0x17u, 0x04u},
 768:Generated_Source\PSoC4/cyfitter_cfg.c **** 			{0x88u, 0x01u},
 769:Generated_Source\PSoC4/cyfitter_cfg.c **** 			{0x9Fu, 0x0Cu},
 770:Generated_Source\PSoC4/cyfitter_cfg.c **** 			{0xA4u, 0x01u},
 771:Generated_Source\PSoC4/cyfitter_cfg.c **** 			{0xC4u, 0x30u},
 772:Generated_Source\PSoC4/cyfitter_cfg.c **** 			{0x26u, 0x08u},
 773:Generated_Source\PSoC4/cyfitter_cfg.c **** 			{0x2Au, 0x80u},
 774:Generated_Source\PSoC4/cyfitter_cfg.c **** 			{0x82u, 0x80u},
 775:Generated_Source\PSoC4/cyfitter_cfg.c **** 			{0xC8u, 0x01u},
 776:Generated_Source\PSoC4/cyfitter_cfg.c **** 			{0xCAu, 0x08u},
 777:Generated_Source\PSoC4/cyfitter_cfg.c **** 			{0x42u, 0x20u},
 778:Generated_Source\PSoC4/cyfitter_cfg.c **** 			{0x49u, 0x10u},
 779:Generated_Source\PSoC4/cyfitter_cfg.c **** 			{0x81u, 0x10u},
 780:Generated_Source\PSoC4/cyfitter_cfg.c **** 			{0x8Au, 0x20u},
 781:Generated_Source\PSoC4/cyfitter_cfg.c **** 			{0xAAu, 0x08u},
 782:Generated_Source\PSoC4/cyfitter_cfg.c **** 			{0xD0u, 0x02u},
 783:Generated_Source\PSoC4/cyfitter_cfg.c **** 			{0xD2u, 0x08u},
 784:Generated_Source\PSoC4/cyfitter_cfg.c **** 			{0xE4u, 0x01u},
 785:Generated_Source\PSoC4/cyfitter_cfg.c **** 			{0x9Bu, 0x02u},
 786:Generated_Source\PSoC4/cyfitter_cfg.c **** 			{0xAFu, 0x02u},
 787:Generated_Source\PSoC4/cyfitter_cfg.c **** 			{0x0Fu, 0x01u},
 788:Generated_Source\PSoC4/cyfitter_cfg.c **** 			{0x2Du, 0x08u},
 789:Generated_Source\PSoC4/cyfitter_cfg.c **** 			{0x3Fu, 0x02u},
 790:Generated_Source\PSoC4/cyfitter_cfg.c **** 			{0x44u, 0x80u},
 791:Generated_Source\PSoC4/cyfitter_cfg.c **** 			{0x5Bu, 0x02u},
 792:Generated_Source\PSoC4/cyfitter_cfg.c **** 			{0x63u, 0x08u},
 793:Generated_Source\PSoC4/cyfitter_cfg.c **** 			{0x67u, 0x02u},
ARM GAS  C:\Users\TERENC~1\AppData\Local\Temp\ccl2ugxZ.s 			page 24


 794:Generated_Source\PSoC4/cyfitter_cfg.c **** 			{0x83u, 0x01u},
 795:Generated_Source\PSoC4/cyfitter_cfg.c **** 			{0x87u, 0x01u},
 796:Generated_Source\PSoC4/cyfitter_cfg.c **** 			{0x89u, 0x08u},
 797:Generated_Source\PSoC4/cyfitter_cfg.c **** 			{0x8Fu, 0x05u},
 798:Generated_Source\PSoC4/cyfitter_cfg.c **** 			{0x98u, 0x80u},
 799:Generated_Source\PSoC4/cyfitter_cfg.c **** 			{0x9Bu, 0x02u},
 800:Generated_Source\PSoC4/cyfitter_cfg.c **** 			{0xB4u, 0x80u},
 801:Generated_Source\PSoC4/cyfitter_cfg.c **** 			{0xC2u, 0x01u},
 802:Generated_Source\PSoC4/cyfitter_cfg.c **** 			{0xCAu, 0x01u},
 803:Generated_Source\PSoC4/cyfitter_cfg.c **** 			{0xCEu, 0x01u},
 804:Generated_Source\PSoC4/cyfitter_cfg.c **** 			{0xD0u, 0x01u},
 805:Generated_Source\PSoC4/cyfitter_cfg.c **** 			{0xD6u, 0x03u},
 806:Generated_Source\PSoC4/cyfitter_cfg.c **** 			{0xD8u, 0x02u},
 807:Generated_Source\PSoC4/cyfitter_cfg.c **** 			{0xE0u, 0x02u},
 808:Generated_Source\PSoC4/cyfitter_cfg.c **** 			{0xE2u, 0x01u},
 809:Generated_Source\PSoC4/cyfitter_cfg.c **** 			{0xE6u, 0x08u},
 810:Generated_Source\PSoC4/cyfitter_cfg.c **** 			{0xE8u, 0x08u},
 811:Generated_Source\PSoC4/cyfitter_cfg.c **** 			{0x02u, 0x01u},
 812:Generated_Source\PSoC4/cyfitter_cfg.c **** 			{0x11u, 0x01u},
 813:Generated_Source\PSoC4/cyfitter_cfg.c **** 			{0x13u, 0x01u},
 814:Generated_Source\PSoC4/cyfitter_cfg.c **** 		};
 815:Generated_Source\PSoC4/cyfitter_cfg.c **** 
 816:Generated_Source\PSoC4/cyfitter_cfg.c **** 
 817:Generated_Source\PSoC4/cyfitter_cfg.c **** 
 818:Generated_Source\PSoC4/cyfitter_cfg.c **** 		CYPACKED typedef struct {
 819:Generated_Source\PSoC4/cyfitter_cfg.c **** 			void CYFAR *address;
 820:Generated_Source\PSoC4/cyfitter_cfg.c **** 			uint16 size;
 821:Generated_Source\PSoC4/cyfitter_cfg.c **** 		} CYPACKED_ATTR cfg_memset_t;
 822:Generated_Source\PSoC4/cyfitter_cfg.c **** 
 823:Generated_Source\PSoC4/cyfitter_cfg.c **** 
 824:Generated_Source\PSoC4/cyfitter_cfg.c **** 		CYPACKED typedef struct {
 825:Generated_Source\PSoC4/cyfitter_cfg.c **** 			void CYFAR *dest;
 826:Generated_Source\PSoC4/cyfitter_cfg.c **** 			const void CYCODE *src;
 827:Generated_Source\PSoC4/cyfitter_cfg.c **** 			uint16 size;
 828:Generated_Source\PSoC4/cyfitter_cfg.c **** 		} CYPACKED_ATTR cfg_memcpy_t;
 829:Generated_Source\PSoC4/cyfitter_cfg.c **** 
 830:Generated_Source\PSoC4/cyfitter_cfg.c **** 		static const cfg_memset_t CYCODE cfg_memset_list[] = {
 831:Generated_Source\PSoC4/cyfitter_cfg.c **** 			/* address, size */
 832:Generated_Source\PSoC4/cyfitter_cfg.c **** 			{(void CYFAR *)(CYDEV_UDB_P0_U1_BASE), 512u},
 833:Generated_Source\PSoC4/cyfitter_cfg.c **** 			{(void CYFAR *)(CYDEV_UDB_P1_ROUTE_BASE), 256u},
 834:Generated_Source\PSoC4/cyfitter_cfg.c **** 			{(void CYFAR *)(CYDEV_UDB_P2_U1_BASE), 896u},
 835:Generated_Source\PSoC4/cyfitter_cfg.c **** 			{(void CYFAR *)(CYDEV_UDB_DSI0_BASE), 2048u},
 836:Generated_Source\PSoC4/cyfitter_cfg.c **** 		};
 837:Generated_Source\PSoC4/cyfitter_cfg.c **** 
 838:Generated_Source\PSoC4/cyfitter_cfg.c **** 		/* UDB_0_3_0_CONFIG Address: CYDEV_UDB_P0_U0_BASE Size (bytes): 128 */
 839:Generated_Source\PSoC4/cyfitter_cfg.c **** 		static const uint8 CYCODE BS_UDB_0_3_0_CONFIG_VAL[] = {
 840:Generated_Source\PSoC4/cyfitter_cfg.c **** 			0x00u, 0x00u, 0x0Bu, 0x02u, 0x00u, 0x0Cu, 0x20u, 0x11u, 0x0Au, 0x01u, 0x01u, 0x20u, 0x0Fu, 0x00u
 841:Generated_Source\PSoC4/cyfitter_cfg.c **** 			0x00u, 0x00u, 0x0Fu, 0x3Cu, 0x0Bu, 0x04u, 0x04u, 0x00u, 0x09u, 0x00u, 0x02u, 0x00u, 0x0Bu, 0x00u
 842:Generated_Source\PSoC4/cyfitter_cfg.c **** 			0x03u, 0x11u, 0x00u, 0x08u, 0x01u, 0x00u, 0x0Au, 0x00u, 0x00u, 0x00u, 0x00u, 0x04u, 0x00u, 0x04u
 843:Generated_Source\PSoC4/cyfitter_cfg.c **** 			0x0Cu, 0x02u, 0x10u, 0x01u, 0x20u, 0x3Cu, 0x07u, 0x00u, 0x00u, 0x20u, 0x00u, 0x00u, 0x00u, 0x00u
 844:Generated_Source\PSoC4/cyfitter_cfg.c **** 			0x45u, 0x00u, 0x00u, 0x00u, 0x00u, 0xECu, 0x00u, 0x20u, 0x23u, 0xFFu, 0xFFu, 0xFFu, 0x00u, 0x00u
 845:Generated_Source\PSoC4/cyfitter_cfg.c **** 			0x18u, 0x00u, 0x00u, 0x00u, 0x01u, 0x00u, 0x00u, 0x00u, 0x04u, 0x04u, 0x0Bu, 0x0Bu, 0x88u, 0x99u
 846:Generated_Source\PSoC4/cyfitter_cfg.c **** 			0x40u, 0x00u, 0x40u, 0x00u, 0x40u, 0x40u, 0x80u, 0x00u, 0x80u, 0x00u, 0x80u, 0x00u, 0x80u, 0x00u
 847:Generated_Source\PSoC4/cyfitter_cfg.c **** 			0x00u, 0x00u, 0x00u, 0x00u, 0x00u, 0x00u, 0x00u, 0x00u, 0x00u, 0x00u, 0x00u, 0x00u, 0x00u, 0x00u
 848:Generated_Source\PSoC4/cyfitter_cfg.c **** 
 849:Generated_Source\PSoC4/cyfitter_cfg.c **** 		/* UDB_0_2_0_CONFIG Address: CYDEV_UDB_P1_U1_BASE Size (bytes): 128 */
 850:Generated_Source\PSoC4/cyfitter_cfg.c **** 		static const uint8 CYCODE BS_UDB_0_2_0_CONFIG_VAL[] = {
ARM GAS  C:\Users\TERENC~1\AppData\Local\Temp\ccl2ugxZ.s 			page 25


 851:Generated_Source\PSoC4/cyfitter_cfg.c **** 			0x00u, 0x00u, 0x00u, 0x40u, 0x00u, 0x01u, 0x03u, 0x02u, 0x00u, 0x80u, 0x00u, 0x40u, 0x00u, 0x02u
 852:Generated_Source\PSoC4/cyfitter_cfg.c **** 			0x00u, 0x00u, 0x00u, 0x20u, 0x00u, 0x10u, 0x02u, 0x01u, 0x00u, 0x40u, 0x00u, 0x80u, 0x00u, 0x04u
 853:Generated_Source\PSoC4/cyfitter_cfg.c **** 			0x00u, 0x00u, 0x00u, 0x1Fu, 0x00u, 0x00u, 0x00u, 0x00u, 0x00u, 0x08u, 0x05u, 0x01u, 0x00u, 0x20u
 854:Generated_Source\PSoC4/cyfitter_cfg.c **** 			0x04u, 0x3Fu, 0x03u, 0xC0u, 0x00u, 0x00u, 0x00u, 0x00u, 0x00u, 0x00u, 0x00u, 0x00u, 0x00u, 0x00u
 855:Generated_Source\PSoC4/cyfitter_cfg.c **** 			0x42u, 0x01u, 0x56u, 0x00u, 0x03u, 0x0Eu, 0x00u, 0xC0u, 0x21u, 0xFFu, 0xFFu, 0xFFu, 0x02u, 0x20u
 856:Generated_Source\PSoC4/cyfitter_cfg.c **** 			0x04u, 0x12u, 0x07u, 0x00u, 0x01u, 0x00u, 0x00u, 0x00u, 0x04u, 0x04u, 0x04u, 0x04u, 0x88u, 0x88u
 857:Generated_Source\PSoC4/cyfitter_cfg.c **** 			0x00u, 0x00u, 0x40u, 0x01u, 0x40u, 0x01u, 0x50u, 0x01u, 0x40u, 0x01u, 0x70u, 0x10u, 0x40u, 0x10u
 858:Generated_Source\PSoC4/cyfitter_cfg.c **** 			0x00u, 0x00u, 0x00u, 0x00u, 0x00u, 0x00u, 0x00u, 0x00u, 0x00u, 0x00u, 0x00u, 0x00u, 0x00u, 0x00u
 859:Generated_Source\PSoC4/cyfitter_cfg.c **** 
 860:Generated_Source\PSoC4/cyfitter_cfg.c **** 		/* UDB_0_1_0_CONFIG Address: CYDEV_UDB_P2_U0_BASE Size (bytes): 128 */
 861:Generated_Source\PSoC4/cyfitter_cfg.c **** 		static const uint8 CYCODE BS_UDB_0_1_0_CONFIG_VAL[] = {
 862:Generated_Source\PSoC4/cyfitter_cfg.c **** 			0x00u, 0x08u, 0x00u, 0xC0u, 0x21u, 0x01u, 0x06u, 0xC0u, 0x00u, 0xFFu, 0x10u, 0x00u, 0x21u, 0x40u
 863:Generated_Source\PSoC4/cyfitter_cfg.c **** 			0x00u, 0x00u, 0x00u, 0x7Fu, 0x00u, 0x10u, 0x30u, 0xC0u, 0x06u, 0xC0u, 0x21u, 0x20u, 0x00u, 0x04u
 864:Generated_Source\PSoC4/cyfitter_cfg.c **** 			0x00u, 0x00u, 0x21u, 0x00u, 0x00u, 0x02u, 0x08u, 0xC0u, 0x04u, 0x00u, 0x00u, 0x80u, 0x00u, 0x00u
 865:Generated_Source\PSoC4/cyfitter_cfg.c **** 			0x01u, 0xFFu, 0x30u, 0x00u, 0x0Cu, 0x00u, 0x02u, 0x00u, 0x00u, 0x00u, 0x00u, 0x00u, 0x00u, 0x00u
 866:Generated_Source\PSoC4/cyfitter_cfg.c **** 			0x23u, 0x06u, 0x00u, 0x05u, 0x00u, 0xBEu, 0x0Cu, 0x00u, 0x07u, 0xFFu, 0xFFu, 0xFFu, 0x00u, 0x00u
 867:Generated_Source\PSoC4/cyfitter_cfg.c **** 			0x04u, 0x10u, 0x00u, 0x00u, 0x00u, 0x00u, 0x02u, 0x20u, 0x04u, 0x04u, 0x04u, 0x04u, 0x88u, 0x88u
 868:Generated_Source\PSoC4/cyfitter_cfg.c **** 			0x00u, 0x00u, 0xC0u, 0x00u, 0x40u, 0x01u, 0x80u, 0x00u, 0x30u, 0x00u, 0x40u, 0x10u, 0x10u, 0x00u
 869:Generated_Source\PSoC4/cyfitter_cfg.c **** 			0x00u, 0x00u, 0x00u, 0x00u, 0x00u, 0x00u, 0x00u, 0x00u, 0x00u, 0x00u, 0x00u, 0x00u, 0x00u, 0x00u
 870:Generated_Source\PSoC4/cyfitter_cfg.c **** 
 871:Generated_Source\PSoC4/cyfitter_cfg.c **** 		static const cfg_memcpy_t CYCODE cfg_memcpy_list [] = {
 872:Generated_Source\PSoC4/cyfitter_cfg.c **** 			/* dest, src, size */
 873:Generated_Source\PSoC4/cyfitter_cfg.c **** 			{(void CYFAR *)(CYDEV_UDB_P0_U0_BASE), BS_UDB_0_3_0_CONFIG_VAL, 128u},
 874:Generated_Source\PSoC4/cyfitter_cfg.c **** 			{(void CYFAR *)(CYDEV_UDB_P1_U1_BASE), BS_UDB_0_2_0_CONFIG_VAL, 128u},
 875:Generated_Source\PSoC4/cyfitter_cfg.c **** 			{(void CYFAR *)(CYDEV_UDB_P2_U0_BASE), BS_UDB_0_1_0_CONFIG_VAL, 128u},
 876:Generated_Source\PSoC4/cyfitter_cfg.c **** 		};
 877:Generated_Source\PSoC4/cyfitter_cfg.c **** 
 878:Generated_Source\PSoC4/cyfitter_cfg.c **** 		uint8 CYDATA i;
 879:Generated_Source\PSoC4/cyfitter_cfg.c **** 
 880:Generated_Source\PSoC4/cyfitter_cfg.c **** 		/* Zero out critical memory blocks before beginning configuration */
 881:Generated_Source\PSoC4/cyfitter_cfg.c **** 		for (i = 0u; i < (sizeof(cfg_memset_list)/sizeof(cfg_memset_list[0])); i++)
 465              		.loc 1 881 0
 466 01ae 0024     		movs	r4, #0
 467 01b0 0FE0     		b	.L19
 468              	.LVL33:
 469              	.L20:
 470              	.LBB4:
 882:Generated_Source\PSoC4/cyfitter_cfg.c **** 		{
 883:Generated_Source\PSoC4/cyfitter_cfg.c **** 			const cfg_memset_t CYCODE * CYDATA ms = &cfg_memset_list[i];
 884:Generated_Source\PSoC4/cyfitter_cfg.c **** 			CYMEMZERO(ms->address, (size_t)(uint32)(ms->size));
 471              		.loc 1 884 0 discriminator 3
 472 01b2 5248     		ldr	r0, .L23+4
 473 01b4 6200     		lsls	r2, r4, #1
 474 01b6 1319     		adds	r3, r2, r4
 475 01b8 5900     		lsls	r1, r3, #1
 476 01ba 0B00     		movs	r3, r1
 477 01bc 4118     		adds	r1, r0, r1
 478 01be 8988     		ldrh	r1, [r1, #4]
 479 01c0 1A5A     		ldrh	r2, [r3, r0]
 480 01c2 C318     		adds	r3, r0, r3
 481 01c4 5888     		ldrh	r0, [r3, #2]
 482 01c6 0004     		lsls	r0, r0, #16
 483 01c8 1043     		orrs	r0, r2
 484 01ca FFF7FEFF 		bl	CYMEMZERO
 485              	.LVL34:
 486              	.LBE4:
 881:Generated_Source\PSoC4/cyfitter_cfg.c **** 		{
ARM GAS  C:\Users\TERENC~1\AppData\Local\Temp\ccl2ugxZ.s 			page 26


 487              		.loc 1 881 0 discriminator 3
 488 01ce 0134     		adds	r4, r4, #1
 489              	.LVL35:
 490 01d0 E4B2     		uxtb	r4, r4
 491              	.LVL36:
 492              	.L19:
 881:Generated_Source\PSoC4/cyfitter_cfg.c **** 		{
 493              		.loc 1 881 0 is_stmt 0 discriminator 1
 494 01d2 032C     		cmp	r4, #3
 495 01d4 EDD9     		bls	.L20
 496 01d6 0024     		movs	r4, #0
 497              	.LVL37:
 498 01d8 14E0     		b	.L21
 499              	.LVL38:
 500              	.L22:
 501              	.LBB5:
 885:Generated_Source\PSoC4/cyfitter_cfg.c **** 		}
 886:Generated_Source\PSoC4/cyfitter_cfg.c **** 
 887:Generated_Source\PSoC4/cyfitter_cfg.c **** 		/* Copy device configuration data into registers */
 888:Generated_Source\PSoC4/cyfitter_cfg.c **** 		for (i = 0u; i < (sizeof(cfg_memcpy_list)/sizeof(cfg_memcpy_list[0])); i++)
 889:Generated_Source\PSoC4/cyfitter_cfg.c **** 		{
 890:Generated_Source\PSoC4/cyfitter_cfg.c **** 			const cfg_memcpy_t CYCODE * CYDATA mc = &cfg_memcpy_list[i];
 891:Generated_Source\PSoC4/cyfitter_cfg.c **** 			void * CYDATA destPtr = mc->dest;
 502              		.loc 1 891 0 is_stmt 1 discriminator 3
 503 01da 484E     		ldr	r6, .L23+4
 504 01dc A200     		lsls	r2, r4, #2
 505 01de 1119     		adds	r1, r2, r4
 506 01e0 4B00     		lsls	r3, r1, #1
 507 01e2 F318     		adds	r3, r6, r3
 508 01e4 198B     		ldrh	r1, [r3, #24]
 509 01e6 588B     		ldrh	r0, [r3, #26]
 510 01e8 0004     		lsls	r0, r0, #16
 511 01ea 0843     		orrs	r0, r1
 512              	.LVL39:
 892:Generated_Source\PSoC4/cyfitter_cfg.c **** 			const void CYCODE * CYDATA srcPtr = mc->src;
 513              		.loc 1 892 0 discriminator 3
 514 01ec 9D8B     		ldrh	r5, [r3, #28]
 515 01ee D98B     		ldrh	r1, [r3, #30]
 516 01f0 0904     		lsls	r1, r1, #16
 517 01f2 2943     		orrs	r1, r5
 518              	.LVL40:
 893:Generated_Source\PSoC4/cyfitter_cfg.c **** 			uint16 CYDATA numBytes = mc->size;
 519              		.loc 1 893 0 discriminator 3
 520 01f4 1319     		adds	r3, r2, r4
 521 01f6 5A00     		lsls	r2, r3, #1
 522 01f8 B218     		adds	r2, r6, r2
 523 01fa 128C     		ldrh	r2, [r2, #32]
 524              	.LVL41:
 894:Generated_Source\PSoC4/cyfitter_cfg.c **** 			CYCONFIGCPYCODE(destPtr, srcPtr, numBytes);
 525              		.loc 1 894 0 discriminator 3
 526 01fc FFF7FEFF 		bl	CYCONFIGCPYCODE
 527              	.LVL42:
 528              	.LBE5:
 888:Generated_Source\PSoC4/cyfitter_cfg.c **** 		{
 529              		.loc 1 888 0 discriminator 3
 530 0200 0134     		adds	r4, r4, #1
 531              	.LVL43:
ARM GAS  C:\Users\TERENC~1\AppData\Local\Temp\ccl2ugxZ.s 			page 27


 532 0202 E4B2     		uxtb	r4, r4
 533              	.LVL44:
 534              	.L21:
 888:Generated_Source\PSoC4/cyfitter_cfg.c **** 		{
 535              		.loc 1 888 0 is_stmt 0 discriminator 1
 536 0204 022C     		cmp	r4, #2
 537 0206 E8D9     		bls	.L22
 895:Generated_Source\PSoC4/cyfitter_cfg.c **** 		}
 896:Generated_Source\PSoC4/cyfitter_cfg.c **** 
 897:Generated_Source\PSoC4/cyfitter_cfg.c **** 		cfg_write_bytes32(cy_cfg_addr_table, cy_cfg_data_table);
 538              		.loc 1 897 0 is_stmt 1
 539 0208 3C49     		ldr	r1, .L23+4
 540 020a 3831     		adds	r1, r1, #56
 541 020c 3C48     		ldr	r0, .L23+8
 542 020e 4030     		adds	r0, r0, #64
 543 0210 FFF7FEFF 		bl	cfg_write_bytes32
 544              	.LVL45:
 898:Generated_Source\PSoC4/cyfitter_cfg.c **** 
 899:Generated_Source\PSoC4/cyfitter_cfg.c **** 		/* Perform normal device configuration. Order is not critical for these items. */
 900:Generated_Source\PSoC4/cyfitter_cfg.c **** 		CY_SET_REG8((void *)(CYREG_UDB_UDB_TR_CLK_CTL), 0x01u);
 545              		.loc 1 900 0
 546 0214 0122     		movs	r2, #1
 547 0216 3B4B     		ldr	r3, .L23+12
 548 0218 1A70     		strb	r2, [r3]
 901:Generated_Source\PSoC4/cyfitter_cfg.c **** 
 902:Generated_Source\PSoC4/cyfitter_cfg.c **** 		/* HSIOM Starting address: CYDEV_HSIOM_BASE */
 903:Generated_Source\PSoC4/cyfitter_cfg.c **** 		CY_SET_REG32((void *)(CYREG_HSIOM_PORT_SEL1), 0x00000099u);
 549              		.loc 1 903 0
 550 021a 9921     		movs	r1, #153
 551 021c 3A4B     		ldr	r3, .L23+16
 552 021e 1960     		str	r1, [r3]
 904:Generated_Source\PSoC4/cyfitter_cfg.c **** 		CY_SET_REG32((void *)(CYREG_HSIOM_PORT_SEL2), 0x30000000u);
 553              		.loc 1 904 0
 554 0220 C021     		movs	r1, #192
 555 0222 8905     		lsls	r1, r1, #22
 556 0224 394B     		ldr	r3, .L23+20
 557 0226 1960     		str	r1, [r3]
 905:Generated_Source\PSoC4/cyfitter_cfg.c **** 		CY_SET_REG32((void *)(CYREG_HSIOM_PORT_SEL3), 0x0333EEEEu);
 558              		.loc 1 905 0
 559 0228 3949     		ldr	r1, .L23+24
 560 022a 3A4B     		ldr	r3, .L23+28
 561 022c 1960     		str	r1, [r3]
 906:Generated_Source\PSoC4/cyfitter_cfg.c **** 
 907:Generated_Source\PSoC4/cyfitter_cfg.c **** 		/* UDB_PA_1 Starting address: CYDEV_UDB_PA1_BASE */
 908:Generated_Source\PSoC4/cyfitter_cfg.c **** 		CY_SET_REG32((void *)(CYDEV_UDB_PA1_BASE), 0x00990000u);
 562              		.loc 1 908 0
 563 022e 9923     		movs	r3, #153
 564 0230 1B04     		lsls	r3, r3, #16
 565 0232 3949     		ldr	r1, .L23+32
 566 0234 0B60     		str	r3, [r1]
 909:Generated_Source\PSoC4/cyfitter_cfg.c **** 
 910:Generated_Source\PSoC4/cyfitter_cfg.c **** 		/* UDB_PA_2 Starting address: CYDEV_UDB_PA2_BASE */
 911:Generated_Source\PSoC4/cyfitter_cfg.c **** 		CY_SET_REG32((void *)(CYDEV_UDB_PA2_BASE), 0x00990000u);
 567              		.loc 1 911 0
 568 0236 3949     		ldr	r1, .L23+36
 569 0238 0B60     		str	r3, [r1]
 912:Generated_Source\PSoC4/cyfitter_cfg.c **** 		CY_SET_REG32((void *)(CYREG_UDB_PA2_CFG8), 0x40000000u);
ARM GAS  C:\Users\TERENC~1\AppData\Local\Temp\ccl2ugxZ.s 			page 28


 570              		.loc 1 912 0
 571 023a 8020     		movs	r0, #128
 572 023c C005     		lsls	r0, r0, #23
 573 023e 3849     		ldr	r1, .L23+40
 574 0240 0860     		str	r0, [r1]
 913:Generated_Source\PSoC4/cyfitter_cfg.c **** 
 914:Generated_Source\PSoC4/cyfitter_cfg.c **** 		/* UDB_PA_7 Starting address: CYDEV_UDB_PA7_BASE */
 915:Generated_Source\PSoC4/cyfitter_cfg.c **** 		CY_SET_REG32((void *)(CYDEV_UDB_PA7_BASE), 0x00990000u);
 575              		.loc 1 915 0
 576 0242 3849     		ldr	r1, .L23+44
 577 0244 0B60     		str	r3, [r1]
 916:Generated_Source\PSoC4/cyfitter_cfg.c **** 		CY_SET_REG32((void *)(CYREG_UDB_PA7_CFG8), 0xC9000000u);
 578              		.loc 1 916 0
 579 0246 C921     		movs	r1, #201
 580 0248 0906     		lsls	r1, r1, #24
 581 024a 374B     		ldr	r3, .L23+48
 582 024c 1960     		str	r1, [r3]
 917:Generated_Source\PSoC4/cyfitter_cfg.c **** 
 918:Generated_Source\PSoC4/cyfitter_cfg.c **** 		/* TCPWM_CNT0 Starting address: CYDEV_TCPWM_CNT0_TR_CTRL0 */
 919:Generated_Source\PSoC4/cyfitter_cfg.c **** 		CY_SET_REG32((void *)(CYREG_TCPWM_CNT0_TR_CTRL0), 0x000000D0u);
 583              		.loc 1 919 0
 584 024e D021     		movs	r1, #208
 585 0250 364B     		ldr	r3, .L23+52
 586 0252 1960     		str	r1, [r3]
 920:Generated_Source\PSoC4/cyfitter_cfg.c **** 
 921:Generated_Source\PSoC4/cyfitter_cfg.c **** 		/* TCPWM_CNT1 Starting address: CYDEV_TCPWM_CNT1_TR_CTRL0 */
 922:Generated_Source\PSoC4/cyfitter_cfg.c **** 		CY_SET_REG32((void *)(CYREG_TCPWM_CNT1_TR_CTRL0), 0x000000B0u);
 587              		.loc 1 922 0
 588 0254 2039     		subs	r1, r1, #32
 589 0256 364B     		ldr	r3, .L23+56
 590 0258 1960     		str	r1, [r3]
 923:Generated_Source\PSoC4/cyfitter_cfg.c **** 
 924:Generated_Source\PSoC4/cyfitter_cfg.c **** 		/* INT_SELECT Starting address: CYDEV_CPUSS_INT_SEL */
 925:Generated_Source\PSoC4/cyfitter_cfg.c **** 		CY_SET_REG32((void *)(CYREG_CPUSS_INT_SEL), 0x00000007u);
 591              		.loc 1 925 0
 592 025a A939     		subs	r1, r1, #169
 593 025c 354B     		ldr	r3, .L23+60
 594 025e 1960     		str	r1, [r3]
 926:Generated_Source\PSoC4/cyfitter_cfg.c **** 
 927:Generated_Source\PSoC4/cyfitter_cfg.c **** 		/* TR_GROUP0 Starting address: CYDEV_PERI_TR_GROUP0_TR_OUT_CTL0 */
 928:Generated_Source\PSoC4/cyfitter_cfg.c **** 		CY_SET_REG32((void *)(CYREG_PERI_TR_GROUP0_TR_OUT_CTL0), 0x0000002Fu);
 595              		.loc 1 928 0
 596 0260 2831     		adds	r1, r1, #40
 597 0262 354B     		ldr	r3, .L23+64
 598 0264 1960     		str	r1, [r3]
 929:Generated_Source\PSoC4/cyfitter_cfg.c **** 		CY_SET_REG32((void *)(CYREG_PERI_TR_GROUP0_TR_OUT_CTL1), 0x00000033u);
 599              		.loc 1 929 0
 600 0266 0431     		adds	r1, r1, #4
 601 0268 344B     		ldr	r3, .L23+68
 602 026a 1960     		str	r1, [r3]
 930:Generated_Source\PSoC4/cyfitter_cfg.c **** 
 931:Generated_Source\PSoC4/cyfitter_cfg.c **** 		/* TR_GROUP1 Starting address: CYDEV_PERI_TR_GROUP1_TR_OUT_CTL0 */
 932:Generated_Source\PSoC4/cyfitter_cfg.c **** 		CY_SET_REG32((void *)(CYREG_PERI_TR_GROUP1_TR_OUT_CTL0), 0x00000001u);
 603              		.loc 1 932 0
 604 026c 344B     		ldr	r3, .L23+72
 605 026e 1A60     		str	r2, [r3]
 933:Generated_Source\PSoC4/cyfitter_cfg.c **** 		CY_SET_REG32((void *)(CYREG_PERI_TR_GROUP1_TR_OUT_CTL1), 0x00000002u);
ARM GAS  C:\Users\TERENC~1\AppData\Local\Temp\ccl2ugxZ.s 			page 29


 606              		.loc 1 933 0
 607 0270 0223     		movs	r3, #2
 608 0272 3449     		ldr	r1, .L23+76
 609 0274 0B60     		str	r3, [r1]
 934:Generated_Source\PSoC4/cyfitter_cfg.c **** 		CY_SET_REG32((void *)(CYREG_PERI_TR_GROUP1_TR_OUT_CTL2), 0x00000003u);
 610              		.loc 1 934 0
 611 0276 0320     		movs	r0, #3
 612 0278 3349     		ldr	r1, .L23+80
 613 027a 0860     		str	r0, [r1]
 935:Generated_Source\PSoC4/cyfitter_cfg.c **** 		CY_SET_REG32((void *)(CYREG_PERI_TR_GROUP1_TR_OUT_CTL3), 0x00000004u);
 614              		.loc 1 935 0
 615 027c 0424     		movs	r4, #4
 616              	.LVL46:
 617 027e 3349     		ldr	r1, .L23+84
 618 0280 0C60     		str	r4, [r1]
 936:Generated_Source\PSoC4/cyfitter_cfg.c **** 		CY_SET_REG32((void *)(CYREG_PERI_TR_GROUP1_TR_OUT_CTL4), 0x00000006u);
 619              		.loc 1 936 0
 620 0282 0621     		movs	r1, #6
 621 0284 324D     		ldr	r5, .L23+88
 622 0286 2960     		str	r1, [r5]
 937:Generated_Source\PSoC4/cyfitter_cfg.c **** 
 938:Generated_Source\PSoC4/cyfitter_cfg.c **** 		/* TR_GROUP3 Starting address: CYDEV_PERI_TR_GROUP3_TR_OUT_CTL0 */
 939:Generated_Source\PSoC4/cyfitter_cfg.c **** 		CY_SET_REG32((void *)(CYREG_PERI_TR_GROUP3_TR_OUT_CTL0), 0x00000001u);
 623              		.loc 1 939 0
 624 0288 324D     		ldr	r5, .L23+92
 625 028a 2A60     		str	r2, [r5]
 940:Generated_Source\PSoC4/cyfitter_cfg.c **** 		CY_SET_REG32((void *)(CYREG_PERI_TR_GROUP3_TR_OUT_CTL1), 0x00000002u);
 626              		.loc 1 940 0
 627 028c 324A     		ldr	r2, .L23+96
 628 028e 1360     		str	r3, [r2]
 941:Generated_Source\PSoC4/cyfitter_cfg.c **** 		CY_SET_REG32((void *)(CYREG_PERI_TR_GROUP3_TR_OUT_CTL2), 0x00000003u);
 629              		.loc 1 941 0
 630 0290 324A     		ldr	r2, .L23+100
 631 0292 1060     		str	r0, [r2]
 942:Generated_Source\PSoC4/cyfitter_cfg.c **** 		CY_SET_REG32((void *)(CYREG_PERI_TR_GROUP3_TR_OUT_CTL3), 0x00000004u);
 632              		.loc 1 942 0
 633 0294 324A     		ldr	r2, .L23+104
 634 0296 1460     		str	r4, [r2]
 943:Generated_Source\PSoC4/cyfitter_cfg.c **** 		CY_SET_REG32((void *)(CYREG_PERI_TR_GROUP3_TR_OUT_CTL5), 0x00000005u);
 635              		.loc 1 943 0
 636 0298 0134     		adds	r4, r4, #1
 637 029a 324A     		ldr	r2, .L23+108
 638 029c 1460     		str	r4, [r2]
 944:Generated_Source\PSoC4/cyfitter_cfg.c **** 
 945:Generated_Source\PSoC4/cyfitter_cfg.c **** 		/* INT_CONFIG Starting address: CYDEV_UDB_INT_CFG */
 946:Generated_Source\PSoC4/cyfitter_cfg.c **** 		CY_SET_REG32((void *)(CYREG_UDB_INT_CFG), 0x00000006u);
 639              		.loc 1 946 0
 640 029e 324A     		ldr	r2, .L23+112
 641 02a0 1160     		str	r1, [r2]
 947:Generated_Source\PSoC4/cyfitter_cfg.c **** 
 948:Generated_Source\PSoC4/cyfitter_cfg.c **** 		/* Enable UDB array and digital routing */
 949:Generated_Source\PSoC4/cyfitter_cfg.c **** 		CY_SET_XTND_REG8((void *)CYREG_UDB_UDB_WAIT_CFG, (uint8)((CY_GET_XTND_REG8((void *)CYREG_UDB_UDB_
 642              		.loc 1 949 0
 643 02a2 324C     		ldr	r4, .L23+116
 644 02a4 2278     		ldrb	r2, [r4]
 645 02a6 3631     		adds	r1, r1, #54
 646 02a8 8A43     		bics	r2, r1
ARM GAS  C:\Users\TERENC~1\AppData\Local\Temp\ccl2ugxZ.s 			page 30


 647 02aa 1421     		movs	r1, #20
 648 02ac 0A43     		orrs	r2, r1
 649 02ae D2B2     		uxtb	r2, r2
 650 02b0 2270     		strb	r2, [r4]
 950:Generated_Source\PSoC4/cyfitter_cfg.c **** 		CY_SET_XTND_REG8((void *)CYREG_UDB_UDB_BANK_CTL, (uint8)(CY_GET_XTND_REG8((void *)CYREG_UDB_UDB_B
 651              		.loc 1 950 0
 652 02b2 2F49     		ldr	r1, .L23+120
 653 02b4 0C78     		ldrb	r4, [r1]
 654 02b6 1622     		movs	r2, #22
 655 02b8 2243     		orrs	r2, r4
 656 02ba D2B2     		uxtb	r2, r2
 657 02bc 0A70     		strb	r2, [r1]
 658              	.LBE3:
 951:Generated_Source\PSoC4/cyfitter_cfg.c **** 	}
 952:Generated_Source\PSoC4/cyfitter_cfg.c **** 
 953:Generated_Source\PSoC4/cyfitter_cfg.c **** 	/* Perform second pass device configuration. These items must be configured in specific order afte
 954:Generated_Source\PSoC4/cyfitter_cfg.c **** 	/* IOPINS0_13 Starting address: CYDEV_GPIO_PRT13_BASE */
 955:Generated_Source\PSoC4/cyfitter_cfg.c **** 	CY_SET_REG32((void *)(CYDEV_GPIO_PRT13_BASE), 0x00000003u);
 659              		.loc 1 955 0
 660 02be 2D4A     		ldr	r2, .L23+124
 661 02c0 1060     		str	r0, [r2]
 956:Generated_Source\PSoC4/cyfitter_cfg.c **** 	CY_SET_REG32((void *)(CYREG_GPIO_PRT13_INTR_CFG), 0x00000002u);
 662              		.loc 1 956 0
 663 02c2 2D4A     		ldr	r2, .L23+128
 664 02c4 1360     		str	r3, [r2]
 957:Generated_Source\PSoC4/cyfitter_cfg.c **** 
 958:Generated_Source\PSoC4/cyfitter_cfg.c **** 	/* IOPINS0_1 Starting address: CYDEV_GPIO_PRT1_BASE */
 959:Generated_Source\PSoC4/cyfitter_cfg.c **** 	CY_SET_REG32((void *)(CYDEV_GPIO_PRT1_BASE), 0x00000002u);
 665              		.loc 1 959 0
 666 02c6 2D4A     		ldr	r2, .L23+132
 667 02c8 1360     		str	r3, [r2]
 960:Generated_Source\PSoC4/cyfitter_cfg.c **** 	CY_SET_REG32((void *)(CYREG_GPIO_PRT1_PC), 0x00000031u);
 668              		.loc 1 960 0
 669 02ca 3121     		movs	r1, #49
 670 02cc 2C4A     		ldr	r2, .L23+136
 671 02ce 1160     		str	r1, [r2]
 961:Generated_Source\PSoC4/cyfitter_cfg.c **** 	CY_SET_REG32((void *)(CYREG_GPIO_PRT1_PC2), 0x00000002u);
 672              		.loc 1 961 0
 673 02d0 2C4A     		ldr	r2, .L23+140
 674 02d2 1360     		str	r3, [r2]
 962:Generated_Source\PSoC4/cyfitter_cfg.c **** 
 963:Generated_Source\PSoC4/cyfitter_cfg.c **** 	/* IOPINS0_2 Starting address: CYDEV_GPIO_PRT2_BASE */
 964:Generated_Source\PSoC4/cyfitter_cfg.c **** 	CY_SET_REG32((void *)(CYDEV_GPIO_PRT2_BASE), 0x00000080u);
 675              		.loc 1 964 0
 676 02d4 8022     		movs	r2, #128
 677 02d6 2C4B     		ldr	r3, .L23+144
 678 02d8 1A60     		str	r2, [r3]
 965:Generated_Source\PSoC4/cyfitter_cfg.c **** 	CY_SET_REG32((void *)(CYREG_GPIO_PRT2_PC), 0x00C00000u);
 679              		.loc 1 965 0
 680 02da C022     		movs	r2, #192
 681 02dc 1204     		lsls	r2, r2, #16
 682 02de 2B4B     		ldr	r3, .L23+148
 683 02e0 1A60     		str	r2, [r3]
 966:Generated_Source\PSoC4/cyfitter_cfg.c **** 
 967:Generated_Source\PSoC4/cyfitter_cfg.c **** 	/* IOPINS0_3 Starting address: CYDEV_GPIO_PRT3_BASE */
 968:Generated_Source\PSoC4/cyfitter_cfg.c **** 	CY_SET_REG32((void *)(CYDEV_GPIO_PRT3_BASE), 0x00000073u);
 684              		.loc 1 968 0
ARM GAS  C:\Users\TERENC~1\AppData\Local\Temp\ccl2ugxZ.s 			page 31


 685 02e2 7322     		movs	r2, #115
 686 02e4 2A4B     		ldr	r3, .L23+152
 687 02e6 1A60     		str	r2, [r3]
 969:Generated_Source\PSoC4/cyfitter_cfg.c **** 	CY_SET_REG32((void *)(CYREG_GPIO_PRT3_PC), 0x003B6DA4u);
 688              		.loc 1 969 0
 689 02e8 2A4A     		ldr	r2, .L23+156
 690 02ea 2B4B     		ldr	r3, .L23+160
 691 02ec 1A60     		str	r2, [r3]
 970:Generated_Source\PSoC4/cyfitter_cfg.c **** 
 971:Generated_Source\PSoC4/cyfitter_cfg.c **** 
 972:Generated_Source\PSoC4/cyfitter_cfg.c **** 	/* Setup clocks based on selections from Clock DWR */
 973:Generated_Source\PSoC4/cyfitter_cfg.c **** 	ClockSetup();
 692              		.loc 1 973 0
 693 02ee FFF787FE 		bl	ClockSetup
 694              	.LVL47:
 974:Generated_Source\PSoC4/cyfitter_cfg.c **** 
 975:Generated_Source\PSoC4/cyfitter_cfg.c **** 	/* Perform basic analog initialization to defaults */
 976:Generated_Source\PSoC4/cyfitter_cfg.c **** 	AnalogSetDefault();
 695              		.loc 1 976 0
 696 02f2 FFF7FEFF 		bl	AnalogSetDefault
 697              	.LVL48:
 977:Generated_Source\PSoC4/cyfitter_cfg.c **** 
 978:Generated_Source\PSoC4/cyfitter_cfg.c **** }
 698              		.loc 1 978 0
 699              		@ sp needed
 700 02f6 70BD     		pop	{r4, r5, r6, pc}
 701              	.L24:
 702              		.align	2
 703              	.L23:
 704 02f8 1C700F40 		.word	1074753564
 705 02fc 00000000 		.word	.LANCHOR0
 706 0300 80030000 		.word	.LANCHOR1
 707 0304 20700F40 		.word	1074753568
 708 0308 00010240 		.word	1073873152
 709 030c 00020240 		.word	1073873408
 710 0310 EEEE3303 		.word	53735150
 711 0314 00030240 		.word	1073873664
 712 0318 10500F40 		.word	1074745360
 713 031c 20500F40 		.word	1074745376
 714 0320 28500F40 		.word	1074745384
 715 0324 70500F40 		.word	1074745456
 716 0328 78500F40 		.word	1074745464
 717 032c 20012040 		.word	1075839264
 718 0330 60012040 		.word	1075839328
 719 0334 20001040 		.word	1074790432
 720 0338 00200140 		.word	1073815552
 721 033c 04200140 		.word	1073815556
 722 0340 00220140 		.word	1073816064
 723 0344 04220140 		.word	1073816068
 724 0348 08220140 		.word	1073816072
 725 034c 0C220140 		.word	1073816076
 726 0350 10220140 		.word	1073816080
 727 0354 00260140 		.word	1073817088
 728 0358 04260140 		.word	1073817092
 729 035c 08260140 		.word	1073817096
 730 0360 0C260140 		.word	1073817100
 731 0364 14260140 		.word	1073817108
ARM GAS  C:\Users\TERENC~1\AppData\Local\Temp\ccl2ugxZ.s 			page 32


 732 0368 00800F40 		.word	1074757632
 733 036c 01700F40 		.word	1074753537
 734 0370 00700F40 		.word	1074753536
 735 0374 000D0440 		.word	1074007296
 736 0378 0C0D0440 		.word	1074007308
 737 037c 00010440 		.word	1074004224
 738 0380 08010440 		.word	1074004232
 739 0384 18010440 		.word	1074004248
 740 0388 00020440 		.word	1074004480
 741 038c 08020440 		.word	1074004488
 742 0390 00030440 		.word	1074004736
 743 0394 A46D3B00 		.word	3894692
 744 0398 08030440 		.word	1074004744
 745              		.cfi_endproc
 746              	.LFE7:
 747              		.size	cyfitter_cfg, .-cyfitter_cfg
 748              		.section	.rodata
 749              		.align	2
 750              		.set	.LANCHOR0,. + 0
 751              		.set	.LANCHOR1,. + 896
 752              		.type	cfg_memset_list.4991, %object
 753              		.size	cfg_memset_list.4991, 24
 754              	cfg_memset_list.4991:
 755 0000 80300F40 		.word	1074737280
 756 0004 0002     		.short	512
 757 0006 00330F40 		.4byte	1074737920
 758 000a 0001     		.short	256
 759 000c 80340F40 		.word	1074738304
 760 0010 8003     		.short	896
 761 0012 00400F40 		.4byte	1074741248
 762 0016 0008     		.short	2048
 763              		.type	cfg_memcpy_list.4995, %object
 764              		.size	cfg_memcpy_list.4995, 30
 765              	cfg_memcpy_list.4995:
 766 0018 00300F40 		.word	1074737152
 767 001c 08040000 		.word	BS_UDB_0_3_0_CONFIG_VAL.4992
 768 0020 8000     		.short	128
 769 0022 80320F40 		.4byte	1074737792
 770 0026 88040000 		.4byte	BS_UDB_0_2_0_CONFIG_VAL.4993
 771 002a 8000     		.short	128
 772 002c 00340F40 		.word	1074738176
 773 0030 08050000 		.word	BS_UDB_0_1_0_CONFIG_VAL.4994
 774 0034 8000     		.short	128
 775 0036 0000     		.space	2
 776              		.type	cy_cfg_data_table.4981, %object
 777              		.size	cy_cfg_data_table.4981, 904
 778              	cy_cfg_data_table.4981:
 779 0038 80       		.byte	-128
 780 0039 0D       		.byte	13
 781 003a 84       		.byte	-124
 782 003b 7F       		.byte	127
 783 003c 8B       		.byte	-117
 784 003d 01       		.byte	1
 785 003e 91       		.byte	-111
 786 003f 01       		.byte	1
 787 0040 93       		.byte	-109
 788 0041 02       		.byte	2
ARM GAS  C:\Users\TERENC~1\AppData\Local\Temp\ccl2ugxZ.s 			page 33


 789 0042 97       		.byte	-105
 790 0043 02       		.byte	2
 791 0044 B5       		.byte	-75
 792 0045 03       		.byte	3
 793 0046 BA       		.byte	-70
 794 0047 C0       		.byte	-64
 795 0048 BF       		.byte	-65
 796 0049 10       		.byte	16
 797 004a D2       		.byte	-46
 798 004b 80       		.byte	-128
 799 004c D8       		.byte	-40
 800 004d 04       		.byte	4
 801 004e D9       		.byte	-39
 802 004f 04       		.byte	4
 803 0050 DB       		.byte	-37
 804 0051 08       		.byte	8
 805 0052 DC       		.byte	-36
 806 0053 08       		.byte	8
 807 0054 DD       		.byte	-35
 808 0055 90       		.byte	-112
 809 0056 DF       		.byte	-33
 810 0057 21       		.byte	33
 811 0058 00       		.byte	0
 812 0059 48       		.byte	72
 813 005a 01       		.byte	1
 814 005b 01       		.byte	1
 815 005c 02       		.byte	2
 816 005d 80       		.byte	-128
 817 005e 03       		.byte	3
 818 005f 04       		.byte	4
 819 0060 09       		.byte	9
 820 0061 02       		.byte	2
 821 0062 0A       		.byte	10
 822 0063 25       		.byte	37
 823 0064 11       		.byte	17
 824 0065 44       		.byte	68
 825 0066 12       		.byte	18
 826 0067 50       		.byte	80
 827 0068 18       		.byte	24
 828 0069 40       		.byte	64
 829 006a 19       		.byte	25
 830 006b 26       		.byte	38
 831 006c 1A       		.byte	26
 832 006d 41       		.byte	65
 833 006e 1F       		.byte	31
 834 006f 40       		.byte	64
 835 0070 20       		.byte	32
 836 0071 20       		.byte	32
 837 0072 21       		.byte	33
 838 0073 10       		.byte	16
 839 0074 22       		.byte	34
 840 0075 10       		.byte	16
 841 0076 23       		.byte	35
 842 0077 80       		.byte	-128
 843 0078 26       		.byte	38
 844 0079 20       		.byte	32
 845 007a 29       		.byte	41
ARM GAS  C:\Users\TERENC~1\AppData\Local\Temp\ccl2ugxZ.s 			page 34


 846 007b 42       		.byte	66
 847 007c 2A       		.byte	42
 848 007d 50       		.byte	80
 849 007e 31       		.byte	49
 850 007f 02       		.byte	2
 851 0080 32       		.byte	50
 852 0081 80       		.byte	-128
 853 0082 33       		.byte	51
 854 0083 04       		.byte	4
 855 0084 37       		.byte	55
 856 0085 0A       		.byte	10
 857 0086 38       		.byte	56
 858 0087 02       		.byte	2
 859 0088 39       		.byte	57
 860 0089 28       		.byte	40
 861 008a 3A       		.byte	58
 862 008b 80       		.byte	-128
 863 008c 3E       		.byte	62
 864 008d 10       		.byte	16
 865 008e 42       		.byte	66
 866 008f 80       		.byte	-128
 867 0090 48       		.byte	72
 868 0091 02       		.byte	2
 869 0092 49       		.byte	73
 870 0093 09       		.byte	9
 871 0094 50       		.byte	80
 872 0095 03       		.byte	3
 873 0096 59       		.byte	89
 874 0097 09       		.byte	9
 875 0098 5B       		.byte	91
 876 0099 80       		.byte	-128
 877 009a 6B       		.byte	107
 878 009b 02       		.byte	2
 879 009c 76       		.byte	118
 880 009d 80       		.byte	-128
 881 009e 78       		.byte	120
 882 009f 01       		.byte	1
 883 00a0 7A       		.byte	122
 884 00a1 01       		.byte	1
 885 00a2 7E       		.byte	126
 886 00a3 20       		.byte	32
 887 00a4 7F       		.byte	127
 888 00a5 01       		.byte	1
 889 00a6 82       		.byte	-126
 890 00a7 10       		.byte	16
 891 00a8 89       		.byte	-119
 892 00a9 04       		.byte	4
 893 00aa 8A       		.byte	-118
 894 00ab 01       		.byte	1
 895 00ac C0       		.byte	-64
 896 00ad 0F       		.byte	15
 897 00ae C2       		.byte	-62
 898 00af 0F       		.byte	15
 899 00b0 C4       		.byte	-60
 900 00b1 0D       		.byte	13
 901 00b2 CA       		.byte	-54
 902 00b3 0D       		.byte	13
ARM GAS  C:\Users\TERENC~1\AppData\Local\Temp\ccl2ugxZ.s 			page 35


 903 00b4 CC       		.byte	-52
 904 00b5 CB       		.byte	-53
 905 00b6 CE       		.byte	-50
 906 00b7 2F       		.byte	47
 907 00b8 D0       		.byte	-48
 908 00b9 01       		.byte	1
 909 00ba D2       		.byte	-46
 910 00bb 08       		.byte	8
 911 00bc D6       		.byte	-42
 912 00bd 0B       		.byte	11
 913 00be DE       		.byte	-34
 914 00bf 59       		.byte	89
 915 00c0 E2       		.byte	-30
 916 00c1 01       		.byte	1
 917 00c2 00       		.byte	0
 918 00c3 1F       		.byte	31
 919 00c4 02       		.byte	2
 920 00c5 20       		.byte	32
 921 00c6 04       		.byte	4
 922 00c7 08       		.byte	8
 923 00c8 06       		.byte	6
 924 00c9 01       		.byte	1
 925 00ca 16       		.byte	22
 926 00cb 20       		.byte	32
 927 00cc 18       		.byte	24
 928 00cd 01       		.byte	1
 929 00ce 1A       		.byte	26
 930 00cf 02       		.byte	2
 931 00d0 1E       		.byte	30
 932 00d1 1F       		.byte	31
 933 00d2 20       		.byte	32
 934 00d3 02       		.byte	2
 935 00d4 22       		.byte	34
 936 00d5 1C       		.byte	28
 937 00d6 24       		.byte	36
 938 00d7 10       		.byte	16
 939 00d8 26       		.byte	38
 940 00d9 01       		.byte	1
 941 00da 2C       		.byte	44
 942 00db 04       		.byte	4
 943 00dc 2E       		.byte	46
 944 00dd 01       		.byte	1
 945 00de 32       		.byte	50
 946 00df 3F       		.byte	63
 947 00e0 56       		.byte	86
 948 00e1 08       		.byte	8
 949 00e2 58       		.byte	88
 950 00e3 04       		.byte	4
 951 00e4 5B       		.byte	91
 952 00e5 04       		.byte	4
 953 00e6 5C       		.byte	92
 954 00e7 08       		.byte	8
 955 00e8 5D       		.byte	93
 956 00e9 90       		.byte	-112
 957 00ea 5F       		.byte	95
 958 00eb 01       		.byte	1
 959 00ec 00       		.byte	0
ARM GAS  C:\Users\TERENC~1\AppData\Local\Temp\ccl2ugxZ.s 			page 36


 960 00ed 04       		.byte	4
 961 00ee 06       		.byte	6
 962 00ef 90       		.byte	-112
 963 00f0 0A       		.byte	10
 964 00f1 10       		.byte	16
 965 00f2 0D       		.byte	13
 966 00f3 40       		.byte	64
 967 00f4 0E       		.byte	14
 968 00f5 24       		.byte	36
 969 00f6 12       		.byte	18
 970 00f7 09       		.byte	9
 971 00f8 16       		.byte	22
 972 00f9 40       		.byte	64
 973 00fa 17       		.byte	23
 974 00fb 44       		.byte	68
 975 00fc 18       		.byte	24
 976 00fd 20       		.byte	32
 977 00fe 1A       		.byte	26
 978 00ff 90       		.byte	-112
 979 0100 1D       		.byte	29
 980 0101 08       		.byte	8
 981 0102 1E       		.byte	30
 982 0103 20       		.byte	32
 983 0104 22       		.byte	34
 984 0105 09       		.byte	9
 985 0106 29       		.byte	41
 986 0107 01       		.byte	1
 987 0108 2A       		.byte	42
 988 0109 90       		.byte	-112
 989 010a 32       		.byte	50
 990 010b 81       		.byte	-127
 991 010c 33       		.byte	51
 992 010d 54       		.byte	84
 993 010e 39       		.byte	57
 994 010f 20       		.byte	32
 995 0110 3A       		.byte	58
 996 0111 4A       		.byte	74
 997 0112 41       		.byte	65
 998 0113 18       		.byte	24
 999 0114 42       		.byte	66
 1000 0115 43       		.byte	67
 1001 0116 49       		.byte	73
 1002 0117 80       		.byte	-128
 1003 0118 4A       		.byte	74
 1004 0119 28       		.byte	40
 1005 011a 52       		.byte	82
 1006 011b 01       		.byte	1
 1007 011c 5A       		.byte	90
 1008 011d A0       		.byte	-96
 1009 011e 5C       		.byte	92
 1010 011f 40       		.byte	64
 1011 0120 64       		.byte	100
 1012 0121 01       		.byte	1
 1013 0122 68       		.byte	104
 1014 0123 04       		.byte	4
 1015 0124 69       		.byte	105
 1016 0125 48       		.byte	72
ARM GAS  C:\Users\TERENC~1\AppData\Local\Temp\ccl2ugxZ.s 			page 37


 1017 0126 7A       		.byte	122
 1018 0127 03       		.byte	3
 1019 0128 7E       		.byte	126
 1020 0129 32       		.byte	50
 1021 012a 91       		.byte	-111
 1022 012b 20       		.byte	32
 1023 012c 92       		.byte	-110
 1024 012d 41       		.byte	65
 1025 012e 93       		.byte	-109
 1026 012f 80       		.byte	-128
 1027 0130 95       		.byte	-107
 1028 0131 45       		.byte	69
 1029 0132 96       		.byte	-106
 1030 0133 04       		.byte	4
 1031 0134 97       		.byte	-105
 1032 0135 02       		.byte	2
 1033 0136 99       		.byte	-103
 1034 0137 24       		.byte	36
 1035 0138 9A       		.byte	-102
 1036 0139 50       		.byte	80
 1037 013a 9C       		.byte	-100
 1038 013b 01       		.byte	1
 1039 013c 9D       		.byte	-99
 1040 013d 40       		.byte	64
 1041 013e 9F       		.byte	-97
 1042 013f 04       		.byte	4
 1043 0140 A0       		.byte	-96
 1044 0141 10       		.byte	16
 1045 0142 A2       		.byte	-94
 1046 0143 80       		.byte	-128
 1047 0144 A4       		.byte	-92
 1048 0145 04       		.byte	4
 1049 0146 A5       		.byte	-91
 1050 0147 02       		.byte	2
 1051 0148 A6       		.byte	-90
 1052 0149 01       		.byte	1
 1053 014a AB       		.byte	-85
 1054 014b 08       		.byte	8
 1055 014c AF       		.byte	-81
 1056 014d 40       		.byte	64
 1057 014e C0       		.byte	-64
 1058 014f 34       		.byte	52
 1059 0150 C2       		.byte	-62
 1060 0151 E4       		.byte	-28
 1061 0152 C4       		.byte	-60
 1062 0153 B3       		.byte	-77
 1063 0154 CA       		.byte	-54
 1064 0155 0D       		.byte	13
 1065 0156 CC       		.byte	-52
 1066 0157 0F       		.byte	15
 1067 0158 CE       		.byte	-50
 1068 0159 0F       		.byte	15
 1069 015a D0       		.byte	-48
 1070 015b 0F       		.byte	15
 1071 015c D2       		.byte	-46
 1072 015d 0C       		.byte	12
 1073 015e D6       		.byte	-42
ARM GAS  C:\Users\TERENC~1\AppData\Local\Temp\ccl2ugxZ.s 			page 38


 1074 015f 1C       		.byte	28
 1075 0160 D8       		.byte	-40
 1076 0161 10       		.byte	16
 1077 0162 DE       		.byte	-34
 1078 0163 18       		.byte	24
 1079 0164 E4       		.byte	-28
 1080 0165 84       		.byte	-124
 1081 0166 EA       		.byte	-22
 1082 0167 04       		.byte	4
 1083 0168 BA       		.byte	-70
 1084 0169 C0       		.byte	-64
 1085 016a D6       		.byte	-42
 1086 016b 08       		.byte	8
 1087 016c D8       		.byte	-40
 1088 016d 04       		.byte	4
 1089 016e DB       		.byte	-37
 1090 016f 04       		.byte	4
 1091 0170 DC       		.byte	-36
 1092 0171 08       		.byte	8
 1093 0172 DD       		.byte	-35
 1094 0173 90       		.byte	-112
 1095 0174 DF       		.byte	-33
 1096 0175 31       		.byte	49
 1097 0176 00       		.byte	0
 1098 0177 18       		.byte	24
 1099 0178 03       		.byte	3
 1100 0179 03       		.byte	3
 1101 017a 08       		.byte	8
 1102 017b 20       		.byte	32
 1103 017c 0A       		.byte	10
 1104 017d 02       		.byte	2
 1105 017e 0B       		.byte	11
 1106 017f 10       		.byte	16
 1107 0180 10       		.byte	16
 1108 0181 10       		.byte	16
 1109 0182 12       		.byte	18
 1110 0183 40       		.byte	64
 1111 0184 13       		.byte	19
 1112 0185 20       		.byte	32
 1113 0186 18       		.byte	24
 1114 0187 10       		.byte	16
 1115 0188 19       		.byte	25
 1116 0189 80       		.byte	-128
 1117 018a 1A       		.byte	26
 1118 018b 40       		.byte	64
 1119 018c 1B       		.byte	27
 1120 018d 30       		.byte	48
 1121 018e 1E       		.byte	30
 1122 018f 02       		.byte	2
 1123 0190 21       		.byte	33
 1124 0191 02       		.byte	2
 1125 0192 28       		.byte	40
 1126 0193 0A       		.byte	10
 1127 0194 2A       		.byte	42
 1128 0195 08       		.byte	8
 1129 0196 2C       		.byte	44
 1130 0197 10       		.byte	16
ARM GAS  C:\Users\TERENC~1\AppData\Local\Temp\ccl2ugxZ.s 			page 39


 1131 0198 2F       		.byte	47
 1132 0199 20       		.byte	32
 1133 019a 31       		.byte	49
 1134 019b 42       		.byte	66
 1135 019c 32       		.byte	50
 1136 019d 14       		.byte	20
 1137 019e 38       		.byte	56
 1138 019f 28       		.byte	40
 1139 01a0 39       		.byte	57
 1140 01a1 41       		.byte	65
 1141 01a2 3A       		.byte	58
 1142 01a3 80       		.byte	-128
 1143 01a4 40       		.byte	64
 1144 01a5 20       		.byte	32
 1145 01a6 41       		.byte	65
 1146 01a7 08       		.byte	8
 1147 01a8 43       		.byte	67
 1148 01a9 10       		.byte	16
 1149 01aa 48       		.byte	72
 1150 01ab 04       		.byte	4
 1151 01ac 49       		.byte	73
 1152 01ad 81       		.byte	-127
 1153 01ae 4A       		.byte	74
 1154 01af 10       		.byte	16
 1155 01b0 52       		.byte	82
 1156 01b1 40       		.byte	64
 1157 01b2 5C       		.byte	92
 1158 01b3 40       		.byte	64
 1159 01b4 60       		.byte	96
 1160 01b5 02       		.byte	2
 1161 01b6 67       		.byte	103
 1162 01b7 02       		.byte	2
 1163 01b8 68       		.byte	104
 1164 01b9 10       		.byte	16
 1165 01ba 69       		.byte	105
 1166 01bb 45       		.byte	69
 1167 01bc 6A       		.byte	106
 1168 01bd 28       		.byte	40
 1169 01be 6B       		.byte	107
 1170 01bf 0C       		.byte	12
 1171 01c0 70       		.byte	112
 1172 01c1 04       		.byte	4
 1173 01c2 71       		.byte	113
 1174 01c3 40       		.byte	64
 1175 01c4 72       		.byte	114
 1176 01c5 0C       		.byte	12
 1177 01c6 73       		.byte	115
 1178 01c7 21       		.byte	33
 1179 01c8 7A       		.byte	122
 1180 01c9 01       		.byte	1
 1181 01ca 7F       		.byte	127
 1182 01cb 40       		.byte	64
 1183 01cc 90       		.byte	-112
 1184 01cd 20       		.byte	32
 1185 01ce 91       		.byte	-111
 1186 01cf 08       		.byte	8
 1187 01d0 93       		.byte	-109
ARM GAS  C:\Users\TERENC~1\AppData\Local\Temp\ccl2ugxZ.s 			page 40


 1188 01d1 80       		.byte	-128
 1189 01d2 94       		.byte	-108
 1190 01d3 44       		.byte	68
 1191 01d4 95       		.byte	-107
 1192 01d5 85       		.byte	-123
 1193 01d6 96       		.byte	-106
 1194 01d7 04       		.byte	4
 1195 01d8 97       		.byte	-105
 1196 01d9 02       		.byte	2
 1197 01da 99       		.byte	-103
 1198 01db 24       		.byte	36
 1199 01dc 9D       		.byte	-99
 1200 01dd 41       		.byte	65
 1201 01de 9E       		.byte	-98
 1202 01df 88       		.byte	-120
 1203 01e0 9F       		.byte	-97
 1204 01e1 04       		.byte	4
 1205 01e2 A2       		.byte	-94
 1206 01e3 20       		.byte	32
 1207 01e4 A5       		.byte	-91
 1208 01e5 02       		.byte	2
 1209 01e6 A6       		.byte	-90
 1210 01e7 01       		.byte	1
 1211 01e8 AA       		.byte	-86
 1212 01e9 40       		.byte	64
 1213 01ea AB       		.byte	-85
 1214 01eb 10       		.byte	16
 1215 01ec AE       		.byte	-82
 1216 01ed 01       		.byte	1
 1217 01ee B0       		.byte	-80
 1218 01ef 10       		.byte	16
 1219 01f0 B1       		.byte	-79
 1220 01f1 80       		.byte	-128
 1221 01f2 C0       		.byte	-64
 1222 01f3 07       		.byte	7
 1223 01f4 C2       		.byte	-62
 1224 01f5 07       		.byte	7
 1225 01f6 C4       		.byte	-60
 1226 01f7 0E       		.byte	14
 1227 01f8 CA       		.byte	-54
 1228 01f9 0E       		.byte	14
 1229 01fa CC       		.byte	-52
 1230 01fb 0F       		.byte	15
 1231 01fc CE       		.byte	-50
 1232 01fd 0F       		.byte	15
 1233 01fe D0       		.byte	-48
 1234 01ff 06       		.byte	6
 1235 0200 D2       		.byte	-46
 1236 0201 0C       		.byte	12
 1237 0202 D6       		.byte	-42
 1238 0203 10       		.byte	16
 1239 0204 D8       		.byte	-40
 1240 0205 18       		.byte	24
 1241 0206 DE       		.byte	-34
 1242 0207 88       		.byte	-120
 1243 0208 EC       		.byte	-20
 1244 0209 02       		.byte	2
ARM GAS  C:\Users\TERENC~1\AppData\Local\Temp\ccl2ugxZ.s 			page 41


 1245 020a 00       		.byte	0
 1246 020b EF       		.byte	-17
 1247 020c 01       		.byte	1
 1248 020d 03       		.byte	3
 1249 020e 03       		.byte	3
 1250 020f 04       		.byte	4
 1251 0210 04       		.byte	4
 1252 0211 EF       		.byte	-17
 1253 0212 05       		.byte	5
 1254 0213 1F       		.byte	31
 1255 0214 07       		.byte	7
 1256 0215 60       		.byte	96
 1257 0216 0B       		.byte	11
 1258 0217 06       		.byte	6
 1259 0218 0C       		.byte	12
 1260 0219 EF       		.byte	-17
 1261 021a 0F       		.byte	15
 1262 021b 7F       		.byte	127
 1263 021c 10       		.byte	16
 1264 021d 10       		.byte	16
 1265 021e 11       		.byte	17
 1266 021f 20       		.byte	32
 1267 0220 13       		.byte	19
 1268 0221 08       		.byte	8
 1269 0222 16       		.byte	22
 1270 0223 CE       		.byte	-50
 1271 0224 17       		.byte	23
 1272 0225 07       		.byte	7
 1273 0226 18       		.byte	24
 1274 0227 E3       		.byte	-29
 1275 0228 19       		.byte	25
 1276 0229 80       		.byte	-128
 1277 022a 1A       		.byte	26
 1278 022b 04       		.byte	4
 1279 022c 1C       		.byte	28
 1280 022d 63       		.byte	99
 1281 022e 1D       		.byte	29
 1282 022f 40       		.byte	64
 1283 0230 1E       		.byte	30
 1284 0231 88       		.byte	-120
 1285 0232 1F       		.byte	31
 1286 0233 10       		.byte	16
 1287 0234 20       		.byte	32
 1288 0235 63       		.byte	99
 1289 0236 21       		.byte	33
 1290 0237 03       		.byte	3
 1291 0238 22       		.byte	34
 1292 0239 8C       		.byte	-116
 1293 023a 23       		.byte	35
 1294 023b 04       		.byte	4
 1295 023c 24       		.byte	36
 1296 023d 60       		.byte	96
 1297 023e 25       		.byte	37
 1298 023f 03       		.byte	3
 1299 0240 26       		.byte	38
 1300 0241 8F       		.byte	-113
 1301 0242 28       		.byte	40
ARM GAS  C:\Users\TERENC~1\AppData\Local\Temp\ccl2ugxZ.s 			page 42


 1302 0243 21       		.byte	33
 1303 0244 29       		.byte	41
 1304 0245 81       		.byte	-127
 1305 0246 2C       		.byte	44
 1306 0247 63       		.byte	99
 1307 0248 2D       		.byte	45
 1308 0249 03       		.byte	3
 1309 024a 2E       		.byte	46
 1310 024b 8C       		.byte	-116
 1311 024c 2F       		.byte	47
 1312 024d 04       		.byte	4
 1313 024e 32       		.byte	50
 1314 024f 1F       		.byte	31
 1315 0250 33       		.byte	51
 1316 0251 7F       		.byte	127
 1317 0252 34       		.byte	52
 1318 0253 F0       		.byte	-16
 1319 0254 37       		.byte	55
 1320 0255 80       		.byte	-128
 1321 0256 39       		.byte	57
 1322 0257 08       		.byte	8
 1323 0258 54       		.byte	84
 1324 0259 01       		.byte	1
 1325 025a 58       		.byte	88
 1326 025b 04       		.byte	4
 1327 025c 59       		.byte	89
 1328 025d 04       		.byte	4
 1329 025e 5B       		.byte	91
 1330 025f 04       		.byte	4
 1331 0260 5C       		.byte	92
 1332 0261 88       		.byte	-120
 1333 0262 5D       		.byte	93
 1334 0263 80       		.byte	-128
 1335 0264 5F       		.byte	95
 1336 0265 01       		.byte	1
 1337 0266 80       		.byte	-128
 1338 0267 80       		.byte	-128
 1339 0268 82       		.byte	-126
 1340 0269 08       		.byte	8
 1341 026a 87       		.byte	-121
 1342 026b 01       		.byte	1
 1343 026c 88       		.byte	-120
 1344 026d FF       		.byte	-1
 1345 026e 8C       		.byte	-116
 1346 026f 80       		.byte	-128
 1347 0270 8E       		.byte	-114
 1348 0271 40       		.byte	64
 1349 0272 92       		.byte	-110
 1350 0273 7F       		.byte	127
 1351 0274 94       		.byte	-108
 1352 0275 80       		.byte	-128
 1353 0276 96       		.byte	-106
 1354 0277 01       		.byte	1
 1355 0278 98       		.byte	-104
 1356 0279 80       		.byte	-128
 1357 027a 9A       		.byte	-102
 1358 027b 02       		.byte	2
ARM GAS  C:\Users\TERENC~1\AppData\Local\Temp\ccl2ugxZ.s 			page 43


 1359 027c 9E       		.byte	-98
 1360 027d 7F       		.byte	127
 1361 027e A0       		.byte	-96
 1362 027f 80       		.byte	-128
 1363 0280 A2       		.byte	-94
 1364 0281 04       		.byte	4
 1365 0282 A4       		.byte	-92
 1366 0283 80       		.byte	-128
 1367 0284 A6       		.byte	-90
 1368 0285 20       		.byte	32
 1369 0286 AA       		.byte	-86
 1370 0287 80       		.byte	-128
 1371 0288 AC       		.byte	-84
 1372 0289 80       		.byte	-128
 1373 028a AD       		.byte	-83
 1374 028b 02       		.byte	2
 1375 028c AE       		.byte	-82
 1376 028d 10       		.byte	16
 1377 028e B5       		.byte	-75
 1378 028f 02       		.byte	2
 1379 0290 B6       		.byte	-74
 1380 0291 FF       		.byte	-1
 1381 0292 B7       		.byte	-73
 1382 0293 01       		.byte	1
 1383 0294 D6       		.byte	-42
 1384 0295 08       		.byte	8
 1385 0296 D8       		.byte	-40
 1386 0297 04       		.byte	4
 1387 0298 D9       		.byte	-39
 1388 0299 04       		.byte	4
 1389 029a DB       		.byte	-37
 1390 029b 04       		.byte	4
 1391 029c DC       		.byte	-36
 1392 029d 88       		.byte	-120
 1393 029e DD       		.byte	-35
 1394 029f 80       		.byte	-128
 1395 02a0 DF       		.byte	-33
 1396 02a1 01       		.byte	1
 1397 02a2 00       		.byte	0
 1398 02a3 10       		.byte	16
 1399 02a4 01       		.byte	1
 1400 02a5 41       		.byte	65
 1401 02a6 07       		.byte	7
 1402 02a7 92       		.byte	-110
 1403 02a8 08       		.byte	8
 1404 02a9 06       		.byte	6
 1405 02aa 0A       		.byte	10
 1406 02ab 06       		.byte	6
 1407 02ac 0E       		.byte	14
 1408 02ad 04       		.byte	4
 1409 02ae 0F       		.byte	15
 1410 02af A1       		.byte	-95
 1411 02b0 10       		.byte	16
 1412 02b1 02       		.byte	2
 1413 02b2 13       		.byte	19
 1414 02b3 19       		.byte	25
 1415 02b4 14       		.byte	20
ARM GAS  C:\Users\TERENC~1\AppData\Local\Temp\ccl2ugxZ.s 			page 44


 1416 02b5 05       		.byte	5
 1417 02b6 15       		.byte	21
 1418 02b7 01       		.byte	1
 1419 02b8 17       		.byte	23
 1420 02b9 28       		.byte	40
 1421 02ba 1A       		.byte	26
 1422 02bb 02       		.byte	2
 1423 02bc 1B       		.byte	27
 1424 02bd 40       		.byte	64
 1425 02be 1C       		.byte	28
 1426 02bf 08       		.byte	8
 1427 02c0 1D       		.byte	29
 1428 02c1 08       		.byte	8
 1429 02c2 22       		.byte	34
 1430 02c3 60       		.byte	96
 1431 02c4 26       		.byte	38
 1432 02c5 80       		.byte	-128
 1433 02c6 27       		.byte	39
 1434 02c7 10       		.byte	16
 1435 02c8 28       		.byte	40
 1436 02c9 02       		.byte	2
 1437 02ca 2C       		.byte	44
 1438 02cb 07       		.byte	7
 1439 02cc 2D       		.byte	45
 1440 02cd 01       		.byte	1
 1441 02ce 2E       		.byte	46
 1442 02cf 04       		.byte	4
 1443 02d0 36       		.byte	54
 1444 02d1 20       		.byte	32
 1445 02d2 37       		.byte	55
 1446 02d3 89       		.byte	-119
 1447 02d4 39       		.byte	57
 1448 02d5 08       		.byte	8
 1449 02d6 3C       		.byte	60
 1450 02d7 08       		.byte	8
 1451 02d8 3F       		.byte	63
 1452 02d9 A1       		.byte	-95
 1453 02da 59       		.byte	89
 1454 02db 24       		.byte	36
 1455 02dc 5A       		.byte	90
 1456 02dd 80       		.byte	-128
 1457 02de 5E       		.byte	94
 1458 02df 60       		.byte	96
 1459 02e0 60       		.byte	96
 1460 02e1 0E       		.byte	14
 1461 02e2 63       		.byte	99
 1462 02e3 10       		.byte	16
 1463 02e4 7A       		.byte	122
 1464 02e5 03       		.byte	3
 1465 02e6 7E       		.byte	126
 1466 02e7 02       		.byte	2
 1467 02e8 81       		.byte	-127
 1468 02e9 40       		.byte	64
 1469 02ea 84       		.byte	-124
 1470 02eb 16       		.byte	22
 1471 02ec 86       		.byte	-122
 1472 02ed 10       		.byte	16
ARM GAS  C:\Users\TERENC~1\AppData\Local\Temp\ccl2ugxZ.s 			page 45


 1473 02ee 87       		.byte	-121
 1474 02ef 02       		.byte	2
 1475 02f0 89       		.byte	-119
 1476 02f1 08       		.byte	8
 1477 02f2 8B       		.byte	-117
 1478 02f3 80       		.byte	-128
 1479 02f4 8C       		.byte	-116
 1480 02f5 40       		.byte	64
 1481 02f6 8D       		.byte	-115
 1482 02f7 40       		.byte	64
 1483 02f8 8E       		.byte	-114
 1484 02f9 80       		.byte	-128
 1485 02fa 90       		.byte	-112
 1486 02fb 10       		.byte	16
 1487 02fc 91       		.byte	-111
 1488 02fd 49       		.byte	73
 1489 02fe 92       		.byte	-110
 1490 02ff 44       		.byte	68
 1491 0300 93       		.byte	-109
 1492 0301 01       		.byte	1
 1493 0302 94       		.byte	-108
 1494 0303 44       		.byte	68
 1495 0304 95       		.byte	-107
 1496 0305 80       		.byte	-128
 1497 0306 96       		.byte	-106
 1498 0307 02       		.byte	2
 1499 0308 97       		.byte	-105
 1500 0309 10       		.byte	16
 1501 030a 99       		.byte	-103
 1502 030b 24       		.byte	36
 1503 030c 9B       		.byte	-101
 1504 030d 29       		.byte	41
 1505 030e 9C       		.byte	-100
 1506 030f 0A       		.byte	10
 1507 0310 9F       		.byte	-97
 1508 0311 10       		.byte	16
 1509 0312 A0       		.byte	-96
 1510 0313 10       		.byte	16
 1511 0314 A2       		.byte	-94
 1512 0315 11       		.byte	17
 1513 0316 A3       		.byte	-93
 1514 0317 10       		.byte	16
 1515 0318 A4       		.byte	-92
 1516 0319 04       		.byte	4
 1517 031a A5       		.byte	-91
 1518 031b 08       		.byte	8
 1519 031c B6       		.byte	-74
 1520 031d 20       		.byte	32
 1521 031e B7       		.byte	-73
 1522 031f 12       		.byte	18
 1523 0320 C0       		.byte	-64
 1524 0321 BB       		.byte	-69
 1525 0322 C2       		.byte	-62
 1526 0323 FF       		.byte	-1
 1527 0324 C4       		.byte	-60
 1528 0325 FF       		.byte	-1
 1529 0326 CA       		.byte	-54
ARM GAS  C:\Users\TERENC~1\AppData\Local\Temp\ccl2ugxZ.s 			page 46


 1530 0327 F8       		.byte	-8
 1531 0328 CC       		.byte	-52
 1532 0329 F0       		.byte	-16
 1533 032a CE       		.byte	-50
 1534 032b F2       		.byte	-14
 1535 032c D6       		.byte	-42
 1536 032d 3E       		.byte	62
 1537 032e D8       		.byte	-40
 1538 032f 0E       		.byte	14
 1539 0330 DE       		.byte	-34
 1540 0331 18       		.byte	24
 1541 0332 E2       		.byte	-30
 1542 0333 80       		.byte	-128
 1543 0334 E4       		.byte	-28
 1544 0335 0C       		.byte	12
 1545 0336 68       		.byte	104
 1546 0337 01       		.byte	1
 1547 0338 6F       		.byte	111
 1548 0339 04       		.byte	4
 1549 033a 73       		.byte	115
 1550 033b 08       		.byte	8
 1551 033c DA       		.byte	-38
 1552 033d C0       		.byte	-64
 1553 033e DC       		.byte	-36
 1554 033f 20       		.byte	32
 1555 0340 2B       		.byte	43
 1556 0341 20       		.byte	32
 1557 0342 2E       		.byte	46
 1558 0343 01       		.byte	1
 1559 0344 83       		.byte	-125
 1560 0345 20       		.byte	32
 1561 0346 8A       		.byte	-118
 1562 0347 01       		.byte	1
 1563 0348 9A       		.byte	-102
 1564 0349 40       		.byte	64
 1565 034a 9F       		.byte	-97
 1566 034b 0C       		.byte	12
 1567 034c A4       		.byte	-92
 1568 034d 01       		.byte	1
 1569 034e AE       		.byte	-82
 1570 034f 40       		.byte	64
 1571 0350 CA       		.byte	-54
 1572 0351 C0       		.byte	-64
 1573 0352 E4       		.byte	-28
 1574 0353 20       		.byte	32
 1575 0354 EA       		.byte	-22
 1576 0355 10       		.byte	16
 1577 0356 66       		.byte	102
 1578 0357 40       		.byte	64
 1579 0358 9A       		.byte	-102
 1580 0359 40       		.byte	64
 1581 035a 9F       		.byte	-97
 1582 035b 0C       		.byte	12
 1583 035c A4       		.byte	-92
 1584 035d 01       		.byte	1
 1585 035e D6       		.byte	-42
 1586 035f 80       		.byte	-128
ARM GAS  C:\Users\TERENC~1\AppData\Local\Temp\ccl2ugxZ.s 			page 47


 1587 0360 13       		.byte	19
 1588 0361 08       		.byte	8
 1589 0362 17       		.byte	23
 1590 0363 04       		.byte	4
 1591 0364 88       		.byte	-120
 1592 0365 01       		.byte	1
 1593 0366 9F       		.byte	-97
 1594 0367 0C       		.byte	12
 1595 0368 A4       		.byte	-92
 1596 0369 01       		.byte	1
 1597 036a C4       		.byte	-60
 1598 036b 30       		.byte	48
 1599 036c 26       		.byte	38
 1600 036d 08       		.byte	8
 1601 036e 2A       		.byte	42
 1602 036f 80       		.byte	-128
 1603 0370 82       		.byte	-126
 1604 0371 80       		.byte	-128
 1605 0372 C8       		.byte	-56
 1606 0373 01       		.byte	1
 1607 0374 CA       		.byte	-54
 1608 0375 08       		.byte	8
 1609 0376 42       		.byte	66
 1610 0377 20       		.byte	32
 1611 0378 49       		.byte	73
 1612 0379 10       		.byte	16
 1613 037a 81       		.byte	-127
 1614 037b 10       		.byte	16
 1615 037c 8A       		.byte	-118
 1616 037d 20       		.byte	32
 1617 037e AA       		.byte	-86
 1618 037f 08       		.byte	8
 1619 0380 D0       		.byte	-48
 1620 0381 02       		.byte	2
 1621 0382 D2       		.byte	-46
 1622 0383 08       		.byte	8
 1623 0384 E4       		.byte	-28
 1624 0385 01       		.byte	1
 1625 0386 9B       		.byte	-101
 1626 0387 02       		.byte	2
 1627 0388 AF       		.byte	-81
 1628 0389 02       		.byte	2
 1629 038a 0F       		.byte	15
 1630 038b 01       		.byte	1
 1631 038c 2D       		.byte	45
 1632 038d 08       		.byte	8
 1633 038e 3F       		.byte	63
 1634 038f 02       		.byte	2
 1635 0390 44       		.byte	68
 1636 0391 80       		.byte	-128
 1637 0392 5B       		.byte	91
 1638 0393 02       		.byte	2
 1639 0394 63       		.byte	99
 1640 0395 08       		.byte	8
 1641 0396 67       		.byte	103
 1642 0397 02       		.byte	2
 1643 0398 83       		.byte	-125
ARM GAS  C:\Users\TERENC~1\AppData\Local\Temp\ccl2ugxZ.s 			page 48


 1644 0399 01       		.byte	1
 1645 039a 87       		.byte	-121
 1646 039b 01       		.byte	1
 1647 039c 89       		.byte	-119
 1648 039d 08       		.byte	8
 1649 039e 8F       		.byte	-113
 1650 039f 05       		.byte	5
 1651 03a0 98       		.byte	-104
 1652 03a1 80       		.byte	-128
 1653 03a2 9B       		.byte	-101
 1654 03a3 02       		.byte	2
 1655 03a4 B4       		.byte	-76
 1656 03a5 80       		.byte	-128
 1657 03a6 C2       		.byte	-62
 1658 03a7 01       		.byte	1
 1659 03a8 CA       		.byte	-54
 1660 03a9 01       		.byte	1
 1661 03aa CE       		.byte	-50
 1662 03ab 01       		.byte	1
 1663 03ac D0       		.byte	-48
 1664 03ad 01       		.byte	1
 1665 03ae D6       		.byte	-42
 1666 03af 03       		.byte	3
 1667 03b0 D8       		.byte	-40
 1668 03b1 02       		.byte	2
 1669 03b2 E0       		.byte	-32
 1670 03b3 02       		.byte	2
 1671 03b4 E2       		.byte	-30
 1672 03b5 01       		.byte	1
 1673 03b6 E6       		.byte	-26
 1674 03b7 08       		.byte	8
 1675 03b8 E8       		.byte	-24
 1676 03b9 08       		.byte	8
 1677 03ba 02       		.byte	2
 1678 03bb 01       		.byte	1
 1679 03bc 11       		.byte	17
 1680 03bd 01       		.byte	1
 1681 03be 13       		.byte	19
 1682 03bf 01       		.byte	1
 1683              		.type	cy_cfg_addr_table.4980, %object
 1684              		.size	cy_cfg_addr_table.4980, 72
 1685              	cy_cfg_addr_table.4980:
 1686 03c0 02000F40 		.word	1074724866
 1687 03c4 0E300F40 		.word	1074737166
 1688 03c8 35310F40 		.word	1074737461
 1689 03cc 15320F40 		.word	1074737685
 1690 03d0 3E330F40 		.word	1074737982
 1691 03d4 07340F40 		.word	1074738183
 1692 03d8 4A350F40 		.word	1074738506
 1693 03dc 4C360F40 		.word	1074738764
 1694 03e0 4A370F40 		.word	1074739018
 1695 03e4 05400F40 		.word	1074741253
 1696 03e8 0B410F40 		.word	1074741515
 1697 03ec 05420F40 		.word	1074741765
 1698 03f0 06430F40 		.word	1074742022
 1699 03f4 05440F40 		.word	1074742277
 1700 03f8 08450F40 		.word	1074742536
ARM GAS  C:\Users\TERENC~1\AppData\Local\Temp\ccl2ugxZ.s 			page 49


 1701 03fc 02460F40 		.word	1074742786
 1702 0400 18470F40 		.word	1074743064
 1703 0404 03600F40 		.word	1074749443
 1704              		.type	BS_UDB_0_3_0_CONFIG_VAL.4992, %object
 1705              		.size	BS_UDB_0_3_0_CONFIG_VAL.4992, 128
 1706              	BS_UDB_0_3_0_CONFIG_VAL.4992:
 1707 0408 00       		.byte	0
 1708 0409 00       		.byte	0
 1709 040a 0B       		.byte	11
 1710 040b 02       		.byte	2
 1711 040c 00       		.byte	0
 1712 040d 0C       		.byte	12
 1713 040e 20       		.byte	32
 1714 040f 11       		.byte	17
 1715 0410 0A       		.byte	10
 1716 0411 01       		.byte	1
 1717 0412 01       		.byte	1
 1718 0413 20       		.byte	32
 1719 0414 0F       		.byte	15
 1720 0415 00       		.byte	0
 1721 0416 00       		.byte	0
 1722 0417 02       		.byte	2
 1723 0418 00       		.byte	0
 1724 0419 00       		.byte	0
 1725 041a 0F       		.byte	15
 1726 041b 3C       		.byte	60
 1727 041c 0B       		.byte	11
 1728 041d 04       		.byte	4
 1729 041e 04       		.byte	4
 1730 041f 00       		.byte	0
 1731 0420 09       		.byte	9
 1732 0421 00       		.byte	0
 1733 0422 02       		.byte	2
 1734 0423 00       		.byte	0
 1735 0424 0B       		.byte	11
 1736 0425 00       		.byte	0
 1737 0426 04       		.byte	4
 1738 0427 04       		.byte	4
 1739 0428 03       		.byte	3
 1740 0429 11       		.byte	17
 1741 042a 00       		.byte	0
 1742 042b 08       		.byte	8
 1743 042c 01       		.byte	1
 1744 042d 00       		.byte	0
 1745 042e 0A       		.byte	10
 1746 042f 00       		.byte	0
 1747 0430 00       		.byte	0
 1748 0431 00       		.byte	0
 1749 0432 00       		.byte	0
 1750 0433 04       		.byte	4
 1751 0434 00       		.byte	0
 1752 0435 04       		.byte	4
 1753 0436 10       		.byte	16
 1754 0437 00       		.byte	0
 1755 0438 0C       		.byte	12
 1756 0439 02       		.byte	2
 1757 043a 10       		.byte	16
ARM GAS  C:\Users\TERENC~1\AppData\Local\Temp\ccl2ugxZ.s 			page 50


 1758 043b 01       		.byte	1
 1759 043c 20       		.byte	32
 1760 043d 3C       		.byte	60
 1761 043e 07       		.byte	7
 1762 043f 00       		.byte	0
 1763 0440 00       		.byte	0
 1764 0441 20       		.byte	32
 1765 0442 00       		.byte	0
 1766 0443 00       		.byte	0
 1767 0444 00       		.byte	0
 1768 0445 00       		.byte	0
 1769 0446 00       		.byte	0
 1770 0447 01       		.byte	1
 1771 0448 45       		.byte	69
 1772 0449 00       		.byte	0
 1773 044a 00       		.byte	0
 1774 044b 00       		.byte	0
 1775 044c 00       		.byte	0
 1776 044d EC       		.byte	-20
 1777 044e 00       		.byte	0
 1778 044f 20       		.byte	32
 1779 0450 23       		.byte	35
 1780 0451 FF       		.byte	-1
 1781 0452 FF       		.byte	-1
 1782 0453 FF       		.byte	-1
 1783 0454 00       		.byte	0
 1784 0455 00       		.byte	0
 1785 0456 00       		.byte	0
 1786 0457 01       		.byte	1
 1787 0458 18       		.byte	24
 1788 0459 00       		.byte	0
 1789 045a 00       		.byte	0
 1790 045b 00       		.byte	0
 1791 045c 01       		.byte	1
 1792 045d 00       		.byte	0
 1793 045e 00       		.byte	0
 1794 045f 00       		.byte	0
 1795 0460 04       		.byte	4
 1796 0461 04       		.byte	4
 1797 0462 0B       		.byte	11
 1798 0463 0B       		.byte	11
 1799 0464 88       		.byte	-120
 1800 0465 99       		.byte	-103
 1801 0466 00       		.byte	0
 1802 0467 01       		.byte	1
 1803 0468 40       		.byte	64
 1804 0469 00       		.byte	0
 1805 046a 40       		.byte	64
 1806 046b 00       		.byte	0
 1807 046c 40       		.byte	64
 1808 046d 40       		.byte	64
 1809 046e 80       		.byte	-128
 1810 046f 00       		.byte	0
 1811 0470 80       		.byte	-128
 1812 0471 00       		.byte	0
 1813 0472 80       		.byte	-128
 1814 0473 00       		.byte	0
ARM GAS  C:\Users\TERENC~1\AppData\Local\Temp\ccl2ugxZ.s 			page 51


 1815 0474 80       		.byte	-128
 1816 0475 00       		.byte	0
 1817 0476 80       		.byte	-128
 1818 0477 00       		.byte	0
 1819 0478 00       		.byte	0
 1820 0479 00       		.byte	0
 1821 047a 00       		.byte	0
 1822 047b 00       		.byte	0
 1823 047c 00       		.byte	0
 1824 047d 00       		.byte	0
 1825 047e 00       		.byte	0
 1826 047f 00       		.byte	0
 1827 0480 00       		.byte	0
 1828 0481 00       		.byte	0
 1829 0482 00       		.byte	0
 1830 0483 00       		.byte	0
 1831 0484 00       		.byte	0
 1832 0485 00       		.byte	0
 1833 0486 00       		.byte	0
 1834 0487 00       		.byte	0
 1835              		.type	BS_UDB_0_2_0_CONFIG_VAL.4993, %object
 1836              		.size	BS_UDB_0_2_0_CONFIG_VAL.4993, 128
 1837              	BS_UDB_0_2_0_CONFIG_VAL.4993:
 1838 0488 00       		.byte	0
 1839 0489 00       		.byte	0
 1840 048a 00       		.byte	0
 1841 048b 40       		.byte	64
 1842 048c 00       		.byte	0
 1843 048d 01       		.byte	1
 1844 048e 03       		.byte	3
 1845 048f 02       		.byte	2
 1846 0490 00       		.byte	0
 1847 0491 80       		.byte	-128
 1848 0492 00       		.byte	0
 1849 0493 40       		.byte	64
 1850 0494 00       		.byte	0
 1851 0495 02       		.byte	2
 1852 0496 00       		.byte	0
 1853 0497 1C       		.byte	28
 1854 0498 00       		.byte	0
 1855 0499 00       		.byte	0
 1856 049a 00       		.byte	0
 1857 049b 20       		.byte	32
 1858 049c 00       		.byte	0
 1859 049d 10       		.byte	16
 1860 049e 02       		.byte	2
 1861 049f 01       		.byte	1
 1862 04a0 00       		.byte	0
 1863 04a1 40       		.byte	64
 1864 04a2 00       		.byte	0
 1865 04a3 80       		.byte	-128
 1866 04a4 00       		.byte	0
 1867 04a5 04       		.byte	4
 1868 04a6 00       		.byte	0
 1869 04a7 01       		.byte	1
 1870 04a8 00       		.byte	0
 1871 04a9 00       		.byte	0
ARM GAS  C:\Users\TERENC~1\AppData\Local\Temp\ccl2ugxZ.s 			page 52


 1872 04aa 00       		.byte	0
 1873 04ab 1F       		.byte	31
 1874 04ac 00       		.byte	0
 1875 04ad 00       		.byte	0
 1876 04ae 00       		.byte	0
 1877 04af 00       		.byte	0
 1878 04b0 00       		.byte	0
 1879 04b1 08       		.byte	8
 1880 04b2 05       		.byte	5
 1881 04b3 01       		.byte	1
 1882 04b4 00       		.byte	0
 1883 04b5 20       		.byte	32
 1884 04b6 05       		.byte	5
 1885 04b7 1F       		.byte	31
 1886 04b8 04       		.byte	4
 1887 04b9 3F       		.byte	63
 1888 04ba 03       		.byte	3
 1889 04bb C0       		.byte	-64
 1890 04bc 00       		.byte	0
 1891 04bd 00       		.byte	0
 1892 04be 00       		.byte	0
 1893 04bf 00       		.byte	0
 1894 04c0 00       		.byte	0
 1895 04c1 00       		.byte	0
 1896 04c2 00       		.byte	0
 1897 04c3 00       		.byte	0
 1898 04c4 00       		.byte	0
 1899 04c5 00       		.byte	0
 1900 04c6 01       		.byte	1
 1901 04c7 00       		.byte	0
 1902 04c8 42       		.byte	66
 1903 04c9 01       		.byte	1
 1904 04ca 56       		.byte	86
 1905 04cb 00       		.byte	0
 1906 04cc 03       		.byte	3
 1907 04cd 0E       		.byte	14
 1908 04ce 00       		.byte	0
 1909 04cf C0       		.byte	-64
 1910 04d0 21       		.byte	33
 1911 04d1 FF       		.byte	-1
 1912 04d2 FF       		.byte	-1
 1913 04d3 FF       		.byte	-1
 1914 04d4 02       		.byte	2
 1915 04d5 20       		.byte	32
 1916 04d6 00       		.byte	0
 1917 04d7 05       		.byte	5
 1918 04d8 04       		.byte	4
 1919 04d9 12       		.byte	18
 1920 04da 07       		.byte	7
 1921 04db 00       		.byte	0
 1922 04dc 01       		.byte	1
 1923 04dd 00       		.byte	0
 1924 04de 00       		.byte	0
 1925 04df 00       		.byte	0
 1926 04e0 04       		.byte	4
 1927 04e1 04       		.byte	4
 1928 04e2 04       		.byte	4
ARM GAS  C:\Users\TERENC~1\AppData\Local\Temp\ccl2ugxZ.s 			page 53


 1929 04e3 04       		.byte	4
 1930 04e4 88       		.byte	-120
 1931 04e5 88       		.byte	-120
 1932 04e6 00       		.byte	0
 1933 04e7 01       		.byte	1
 1934 04e8 00       		.byte	0
 1935 04e9 00       		.byte	0
 1936 04ea 40       		.byte	64
 1937 04eb 01       		.byte	1
 1938 04ec 40       		.byte	64
 1939 04ed 01       		.byte	1
 1940 04ee 50       		.byte	80
 1941 04ef 01       		.byte	1
 1942 04f0 40       		.byte	64
 1943 04f1 01       		.byte	1
 1944 04f2 70       		.byte	112
 1945 04f3 10       		.byte	16
 1946 04f4 40       		.byte	64
 1947 04f5 10       		.byte	16
 1948 04f6 00       		.byte	0
 1949 04f7 00       		.byte	0
 1950 04f8 00       		.byte	0
 1951 04f9 00       		.byte	0
 1952 04fa 00       		.byte	0
 1953 04fb 00       		.byte	0
 1954 04fc 00       		.byte	0
 1955 04fd 00       		.byte	0
 1956 04fe 00       		.byte	0
 1957 04ff 00       		.byte	0
 1958 0500 00       		.byte	0
 1959 0501 00       		.byte	0
 1960 0502 00       		.byte	0
 1961 0503 00       		.byte	0
 1962 0504 00       		.byte	0
 1963 0505 00       		.byte	0
 1964 0506 00       		.byte	0
 1965 0507 00       		.byte	0
 1966              		.type	BS_UDB_0_1_0_CONFIG_VAL.4994, %object
 1967              		.size	BS_UDB_0_1_0_CONFIG_VAL.4994, 128
 1968              	BS_UDB_0_1_0_CONFIG_VAL.4994:
 1969 0508 00       		.byte	0
 1970 0509 08       		.byte	8
 1971 050a 00       		.byte	0
 1972 050b C0       		.byte	-64
 1973 050c 21       		.byte	33
 1974 050d 01       		.byte	1
 1975 050e 06       		.byte	6
 1976 050f C0       		.byte	-64
 1977 0510 00       		.byte	0
 1978 0511 FF       		.byte	-1
 1979 0512 10       		.byte	16
 1980 0513 00       		.byte	0
 1981 0514 21       		.byte	33
 1982 0515 40       		.byte	64
 1983 0516 06       		.byte	6
 1984 0517 80       		.byte	-128
 1985 0518 00       		.byte	0
ARM GAS  C:\Users\TERENC~1\AppData\Local\Temp\ccl2ugxZ.s 			page 54


 1986 0519 00       		.byte	0
 1987 051a 00       		.byte	0
 1988 051b 7F       		.byte	127
 1989 051c 00       		.byte	0
 1990 051d 10       		.byte	16
 1991 051e 30       		.byte	48
 1992 051f C0       		.byte	-64
 1993 0520 06       		.byte	6
 1994 0521 C0       		.byte	-64
 1995 0522 21       		.byte	33
 1996 0523 20       		.byte	32
 1997 0524 00       		.byte	0
 1998 0525 04       		.byte	4
 1999 0526 0C       		.byte	12
 2000 0527 C0       		.byte	-64
 2001 0528 00       		.byte	0
 2002 0529 00       		.byte	0
 2003 052a 21       		.byte	33
 2004 052b 00       		.byte	0
 2005 052c 00       		.byte	0
 2006 052d 02       		.byte	2
 2007 052e 08       		.byte	8
 2008 052f C0       		.byte	-64
 2009 0530 04       		.byte	4
 2010 0531 00       		.byte	0
 2011 0532 00       		.byte	0
 2012 0533 80       		.byte	-128
 2013 0534 00       		.byte	0
 2014 0535 00       		.byte	0
 2015 0536 00       		.byte	0
 2016 0537 3F       		.byte	63
 2017 0538 01       		.byte	1
 2018 0539 FF       		.byte	-1
 2019 053a 30       		.byte	48
 2020 053b 00       		.byte	0
 2021 053c 0C       		.byte	12
 2022 053d 00       		.byte	0
 2023 053e 02       		.byte	2
 2024 053f 00       		.byte	0
 2025 0540 00       		.byte	0
 2026 0541 00       		.byte	0
 2027 0542 00       		.byte	0
 2028 0543 00       		.byte	0
 2029 0544 00       		.byte	0
 2030 0545 00       		.byte	0
 2031 0546 01       		.byte	1
 2032 0547 00       		.byte	0
 2033 0548 23       		.byte	35
 2034 0549 06       		.byte	6
 2035 054a 00       		.byte	0
 2036 054b 05       		.byte	5
 2037 054c 00       		.byte	0
 2038 054d BE       		.byte	-66
 2039 054e 0C       		.byte	12
 2040 054f 00       		.byte	0
 2041 0550 07       		.byte	7
 2042 0551 FF       		.byte	-1
ARM GAS  C:\Users\TERENC~1\AppData\Local\Temp\ccl2ugxZ.s 			page 55


 2043 0552 FF       		.byte	-1
 2044 0553 FF       		.byte	-1
 2045 0554 00       		.byte	0
 2046 0555 00       		.byte	0
 2047 0556 00       		.byte	0
 2048 0557 00       		.byte	0
 2049 0558 04       		.byte	4
 2050 0559 10       		.byte	16
 2051 055a 00       		.byte	0
 2052 055b 00       		.byte	0
 2053 055c 00       		.byte	0
 2054 055d 00       		.byte	0
 2055 055e 02       		.byte	2
 2056 055f 20       		.byte	32
 2057 0560 04       		.byte	4
 2058 0561 04       		.byte	4
 2059 0562 04       		.byte	4
 2060 0563 04       		.byte	4
 2061 0564 88       		.byte	-120
 2062 0565 88       		.byte	-120
 2063 0566 00       		.byte	0
 2064 0567 01       		.byte	1
 2065 0568 00       		.byte	0
 2066 0569 00       		.byte	0
 2067 056a C0       		.byte	-64
 2068 056b 00       		.byte	0
 2069 056c 40       		.byte	64
 2070 056d 01       		.byte	1
 2071 056e 80       		.byte	-128
 2072 056f 00       		.byte	0
 2073 0570 30       		.byte	48
 2074 0571 00       		.byte	0
 2075 0572 40       		.byte	64
 2076 0573 10       		.byte	16
 2077 0574 10       		.byte	16
 2078 0575 00       		.byte	0
 2079 0576 40       		.byte	64
 2080 0577 A8       		.byte	-88
 2081 0578 00       		.byte	0
 2082 0579 00       		.byte	0
 2083 057a 00       		.byte	0
 2084 057b 00       		.byte	0
 2085 057c 00       		.byte	0
 2086 057d 00       		.byte	0
 2087 057e 00       		.byte	0
 2088 057f 00       		.byte	0
 2089 0580 00       		.byte	0
 2090 0581 00       		.byte	0
 2091 0582 00       		.byte	0
 2092 0583 00       		.byte	0
 2093 0584 00       		.byte	0
 2094 0585 00       		.byte	0
 2095 0586 00       		.byte	0
 2096 0587 00       		.byte	0
 2097              		.text
 2098              	.Letext0:
 2099              		.file 2 "c:\\program files (x86)\\cypress\\psoc creator\\4.2\\psoc creator\\import\\gnu\\arm\\5.4.
ARM GAS  C:\Users\TERENC~1\AppData\Local\Temp\ccl2ugxZ.s 			page 56


 2100              		.file 3 "Generated_Source\\PSoC4\\cytypes.h"
 2101              		.file 4 "Generated_Source\\PSoC4\\CyLFClk.h"
 2102              		.file 5 "Generated_Source\\PSoC4\\CyLib.h"