ARM GAS  C:\Users\TERENC~1\AppData\Local\Temp\cc28re0c.s 			page 1


   1              		.syntax unified
   2              		.cpu cortex-m0
   3              		.fpu softvfp
   4              		.eabi_attribute 20, 1
   5              		.eabi_attribute 21, 1
   6              		.eabi_attribute 23, 3
   7              		.eabi_attribute 24, 1
   8              		.eabi_attribute 25, 1
   9              		.eabi_attribute 26, 1
  10              		.eabi_attribute 30, 1
  11              		.eabi_attribute 34, 0
  12              		.eabi_attribute 18, 4
  13              		.thumb
  14              		.syntax unified
  15              		.file	"RxDMA.c"
  16              		.text
  17              	.Ltext0:
  18              		.cfi_sections	.debug_frame
  19              		.section	.text.RxDMA_Init,"ax",%progbits
  20              		.align	2
  21              		.global	RxDMA_Init
  22              		.code	16
  23              		.thumb_func
  24              		.type	RxDMA_Init, %function
  25              	RxDMA_Init:
  26              	.LFB33:
  27              		.file 1 "Generated_Source\\PSoC4\\RxDMA.c"
   1:Generated_Source\PSoC4/RxDMA.c **** /*******************************************************************************
   2:Generated_Source\PSoC4/RxDMA.c **** * File Name: RxDMA.h
   3:Generated_Source\PSoC4/RxDMA.c **** * Version 1.0
   4:Generated_Source\PSoC4/RxDMA.c **** *
   5:Generated_Source\PSoC4/RxDMA.c **** * Description:
   6:Generated_Source\PSoC4/RxDMA.c **** *  This file contains all of the channel DMA API functions.
   7:Generated_Source\PSoC4/RxDMA.c **** *
   8:Generated_Source\PSoC4/RxDMA.c **** ********************************************************************************
   9:Generated_Source\PSoC4/RxDMA.c **** * Copyright 2015, Cypress Semiconductor Corporation. All rights reserved.
  10:Generated_Source\PSoC4/RxDMA.c **** * You may use this file only in accordance with the license, terms, conditions,
  11:Generated_Source\PSoC4/RxDMA.c **** * disclaimers, and limitations in the end user license agreement accompanying
  12:Generated_Source\PSoC4/RxDMA.c **** * the software package with which this file was provided.
  13:Generated_Source\PSoC4/RxDMA.c **** *******************************************************************************/
  14:Generated_Source\PSoC4/RxDMA.c **** 
  15:Generated_Source\PSoC4/RxDMA.c **** #include "RxDMA.h"
  16:Generated_Source\PSoC4/RxDMA.c **** 
  17:Generated_Source\PSoC4/RxDMA.c **** uint8 RxDMA_initVar = 0u;
  18:Generated_Source\PSoC4/RxDMA.c **** 
  19:Generated_Source\PSoC4/RxDMA.c **** 
  20:Generated_Source\PSoC4/RxDMA.c **** /*******************************************************************************
  21:Generated_Source\PSoC4/RxDMA.c **** * Function Name: RxDMA_Start
  22:Generated_Source\PSoC4/RxDMA.c **** ********************************************************************************
  23:Generated_Source\PSoC4/RxDMA.c **** *
  24:Generated_Source\PSoC4/RxDMA.c **** * Summary:
  25:Generated_Source\PSoC4/RxDMA.c **** *  Calls Init() to configure the DMA channel based on the customizer settings if
  26:Generated_Source\PSoC4/RxDMA.c **** *  the channel has not been initialized before.
  27:Generated_Source\PSoC4/RxDMA.c **** *  Sets source and destination address, validates descriptor 0 and enables the
  28:Generated_Source\PSoC4/RxDMA.c **** *  channel. After calling this function the DMA channel is active and waiting
  29:Generated_Source\PSoC4/RxDMA.c **** *  for a trigger.
  30:Generated_Source\PSoC4/RxDMA.c **** *
ARM GAS  C:\Users\TERENC~1\AppData\Local\Temp\cc28re0c.s 			page 2


  31:Generated_Source\PSoC4/RxDMA.c **** * Parameters:
  32:Generated_Source\PSoC4/RxDMA.c **** *  srcAddress: Address of DMA transfer source for descriptor 0.
  33:Generated_Source\PSoC4/RxDMA.c **** *  dstAddress: Address of DMA transfer destination for descriptor 0.
  34:Generated_Source\PSoC4/RxDMA.c **** *                   
  35:Generated_Source\PSoC4/RxDMA.c **** * Return:
  36:Generated_Source\PSoC4/RxDMA.c **** *  None.
  37:Generated_Source\PSoC4/RxDMA.c **** *
  38:Generated_Source\PSoC4/RxDMA.c **** *******************************************************************************/
  39:Generated_Source\PSoC4/RxDMA.c **** void RxDMA_Start(void * srcAddress, void * dstAddress)
  40:Generated_Source\PSoC4/RxDMA.c **** {
  41:Generated_Source\PSoC4/RxDMA.c ****     if(0u == RxDMA_initVar)
  42:Generated_Source\PSoC4/RxDMA.c ****     {
  43:Generated_Source\PSoC4/RxDMA.c ****         RxDMA_Init();
  44:Generated_Source\PSoC4/RxDMA.c ****         RxDMA_initVar = 1u;
  45:Generated_Source\PSoC4/RxDMA.c ****     }
  46:Generated_Source\PSoC4/RxDMA.c ****     CyDmaEnable();
  47:Generated_Source\PSoC4/RxDMA.c ****     RxDMA_SetSrcAddress(0, srcAddress);
  48:Generated_Source\PSoC4/RxDMA.c ****     RxDMA_SetDstAddress(0, dstAddress);
  49:Generated_Source\PSoC4/RxDMA.c ****     RxDMA_ValidateDescriptor(0);
  50:Generated_Source\PSoC4/RxDMA.c ****     RxDMA_ChEnable();
  51:Generated_Source\PSoC4/RxDMA.c **** }
  52:Generated_Source\PSoC4/RxDMA.c **** 
  53:Generated_Source\PSoC4/RxDMA.c **** 
  54:Generated_Source\PSoC4/RxDMA.c **** /*******************************************************************************
  55:Generated_Source\PSoC4/RxDMA.c **** * Function Name: RxDMA_Init
  56:Generated_Source\PSoC4/RxDMA.c **** ********************************************************************************
  57:Generated_Source\PSoC4/RxDMA.c **** *
  58:Generated_Source\PSoC4/RxDMA.c **** * Summary:
  59:Generated_Source\PSoC4/RxDMA.c **** *  Initializes the DMA channel based on the parameters set in the component
  60:Generated_Source\PSoC4/RxDMA.c **** *  customizer. It is not necessary to call RxDMA_Init() because the
  61:Generated_Source\PSoC4/RxDMA.c **** *  RxDMA_Start() API calls this function, which is the preferred method
  62:Generated_Source\PSoC4/RxDMA.c **** *  to begin component operation.
  63:Generated_Source\PSoC4/RxDMA.c **** *
  64:Generated_Source\PSoC4/RxDMA.c **** * Parameters:
  65:Generated_Source\PSoC4/RxDMA.c **** *  None.
  66:Generated_Source\PSoC4/RxDMA.c **** *                   
  67:Generated_Source\PSoC4/RxDMA.c **** * Return:
  68:Generated_Source\PSoC4/RxDMA.c **** *  None.
  69:Generated_Source\PSoC4/RxDMA.c **** *
  70:Generated_Source\PSoC4/RxDMA.c **** * Side effect:
  71:Generated_Source\PSoC4/RxDMA.c **** *  The first descriptor is set to descriptor 0. This function should not be
  72:Generated_Source\PSoC4/RxDMA.c **** *  called while the channel is enabled. All settings will be reset to their
  73:Generated_Source\PSoC4/RxDMA.c **** *  initial values.
  74:Generated_Source\PSoC4/RxDMA.c **** *
  75:Generated_Source\PSoC4/RxDMA.c **** *******************************************************************************/
  76:Generated_Source\PSoC4/RxDMA.c **** void RxDMA_Init(void)
  77:Generated_Source\PSoC4/RxDMA.c **** {
  28              		.loc 1 77 0
  29              		.cfi_startproc
  30              		@ args = 0, pretend = 0, frame = 0
  31              		@ frame_needed = 0, uses_anonymous_args = 0
  32              		@ link register save eliminated.
  78:Generated_Source\PSoC4/RxDMA.c ****     CYDMA_CH_CTL_BASE.ctl[RxDMA_CHANNEL] = RxDMA_CHANNEL_CFG;
  33              		.loc 1 78 0
  34 0000 0022     		movs	r2, #0
  35 0002 034B     		ldr	r3, .L2
  36 0004 5A60     		str	r2, [r3, #4]
ARM GAS  C:\Users\TERENC~1\AppData\Local\Temp\cc28re0c.s 			page 3


  79:Generated_Source\PSoC4/RxDMA.c ****     CYDMA_DESCR_BASE.descriptor[RxDMA_CHANNEL][0].ctl = RxDMA_DESCR0_CFG;
  37              		.loc 1 79 0
  38 0006 034B     		ldr	r3, .L2+4
  39 0008 0349     		ldr	r1, .L2+8
  40 000a 9962     		str	r1, [r3, #40]
  80:Generated_Source\PSoC4/RxDMA.c ****     CYDMA_DESCR_BASE.descriptor[RxDMA_CHANNEL][1].ctl = RxDMA_DESCR1_CFG;
  41              		.loc 1 80 0
  42 000c 9A63     		str	r2, [r3, #56]
  81:Generated_Source\PSoC4/RxDMA.c **** 
  82:Generated_Source\PSoC4/RxDMA.c ****     /* If the Generate IRQ option is selected for descriptor 0 or 1, set the
  83:Generated_Source\PSoC4/RxDMA.c ****     * channel bit field in the DMA interrupt mask register.
  84:Generated_Source\PSoC4/RxDMA.c ****     */
  85:Generated_Source\PSoC4/RxDMA.c ****     #if (0u != ((RxDMA_DESCR0_CFG | RxDMA_DESCR1_CFG) & CYDMA_GENERATE_IRQ))
  86:Generated_Source\PSoC4/RxDMA.c ****         CYDMA_INTR_MASK_REG |= RxDMA_CHANNEL_MASK;
  87:Generated_Source\PSoC4/RxDMA.c ****     #endif /* (0u != ((RxDMA_DESCR0_CFG | RxDMA_DESCR1_CFG) & CYDMA_GENERATE_IRQ)) */
  88:Generated_Source\PSoC4/RxDMA.c **** }
  43              		.loc 1 88 0
  44              		@ sp needed
  45 000e 7047     		bx	lr
  46              	.L3:
  47              		.align	2
  48              	.L2:
  49 0010 80101040 		.word	1074794624
  50 0014 00181040 		.word	1074796544
  51 0018 7F042001 		.word	18875519
  52              		.cfi_endproc
  53              	.LFE33:
  54              		.size	RxDMA_Init, .-RxDMA_Init
  55              		.section	.text.RxDMA_Start,"ax",%progbits
  56              		.align	2
  57              		.global	RxDMA_Start
  58              		.code	16
  59              		.thumb_func
  60              		.type	RxDMA_Start, %function
  61              	RxDMA_Start:
  62              	.LFB32:
  40:Generated_Source\PSoC4/RxDMA.c ****     if(0u == RxDMA_initVar)
  63              		.loc 1 40 0
  64              		.cfi_startproc
  65              		@ args = 0, pretend = 0, frame = 0
  66              		@ frame_needed = 0, uses_anonymous_args = 0
  67              	.LVL0:
  68 0000 70B5     		push	{r4, r5, r6, lr}
  69              		.cfi_def_cfa_offset 16
  70              		.cfi_offset 4, -16
  71              		.cfi_offset 5, -12
  72              		.cfi_offset 6, -8
  73              		.cfi_offset 14, -4
  74 0002 0500     		movs	r5, r0
  75 0004 0C00     		movs	r4, r1
  41:Generated_Source\PSoC4/RxDMA.c ****     {
  76              		.loc 1 41 0
  77 0006 0E4B     		ldr	r3, .L6
  78 0008 1B78     		ldrb	r3, [r3]
  79 000a 002B     		cmp	r3, #0
  80 000c 04D1     		bne	.L5
  43:Generated_Source\PSoC4/RxDMA.c ****         RxDMA_initVar = 1u;
ARM GAS  C:\Users\TERENC~1\AppData\Local\Temp\cc28re0c.s 			page 4


  81              		.loc 1 43 0
  82 000e FFF7FEFF 		bl	RxDMA_Init
  83              	.LVL1:
  44:Generated_Source\PSoC4/RxDMA.c ****     }
  84              		.loc 1 44 0
  85 0012 0122     		movs	r2, #1
  86 0014 0A4B     		ldr	r3, .L6
  87 0016 1A70     		strb	r2, [r3]
  88              	.L5:
  46:Generated_Source\PSoC4/RxDMA.c ****     RxDMA_SetSrcAddress(0, srcAddress);
  89              		.loc 1 46 0
  90 0018 FFF7FEFF 		bl	CyDmaEnable
  91              	.LVL2:
  92              	.LBB10:
  93              	.LBB11:
  94              		.file 2 "Generated_Source\\PSoC4\\RxDMA.h"
   1:Generated_Source\PSoC4/RxDMA.h **** /*******************************************************************************
   2:Generated_Source\PSoC4/RxDMA.h **** * File Name: RxDMA.h
   3:Generated_Source\PSoC4/RxDMA.h **** * Version 1.0
   4:Generated_Source\PSoC4/RxDMA.h **** *
   5:Generated_Source\PSoC4/RxDMA.h **** * Description:
   6:Generated_Source\PSoC4/RxDMA.h **** *  This file provides DMA channel defines and API function definitions.
   7:Generated_Source\PSoC4/RxDMA.h **** *
   8:Generated_Source\PSoC4/RxDMA.h **** ********************************************************************************
   9:Generated_Source\PSoC4/RxDMA.h **** * Copyright 2015, Cypress Semiconductor Corporation. All rights reserved.
  10:Generated_Source\PSoC4/RxDMA.h **** * You may use this file only in accordance with the license, terms, conditions,
  11:Generated_Source\PSoC4/RxDMA.h **** * disclaimers, and limitations in the end user license agreement accompanying
  12:Generated_Source\PSoC4/RxDMA.h **** * the software package with which this file was provided.
  13:Generated_Source\PSoC4/RxDMA.h **** *******************************************************************************/
  14:Generated_Source\PSoC4/RxDMA.h **** 
  15:Generated_Source\PSoC4/RxDMA.h **** #ifndef CY_DMA_CHANNEL_RxDMA_H
  16:Generated_Source\PSoC4/RxDMA.h **** #define CY_DMA_CHANNEL_RxDMA_H
  17:Generated_Source\PSoC4/RxDMA.h **** 
  18:Generated_Source\PSoC4/RxDMA.h **** #include "CyDMA.h"
  19:Generated_Source\PSoC4/RxDMA.h **** 
  20:Generated_Source\PSoC4/RxDMA.h ****     
  21:Generated_Source\PSoC4/RxDMA.h **** /***************************************
  22:Generated_Source\PSoC4/RxDMA.h **** *   Conditional Compilation Parameters
  23:Generated_Source\PSoC4/RxDMA.h **** ***************************************/
  24:Generated_Source\PSoC4/RxDMA.h **** 
  25:Generated_Source\PSoC4/RxDMA.h **** #define RxDMA_CHANNEL           (RxDMA__CHANNEL_NUMBER)
  26:Generated_Source\PSoC4/RxDMA.h **** #define RxDMA_CHANNEL_MASK      ((uint32)(1UL << RxDMA_CHANNEL))
  27:Generated_Source\PSoC4/RxDMA.h **** 
  28:Generated_Source\PSoC4/RxDMA.h **** 
  29:Generated_Source\PSoC4/RxDMA.h **** /***************************************
  30:Generated_Source\PSoC4/RxDMA.h **** *        Function Prototypes
  31:Generated_Source\PSoC4/RxDMA.h **** ***************************************/
  32:Generated_Source\PSoC4/RxDMA.h **** 
  33:Generated_Source\PSoC4/RxDMA.h **** /* Functions specific to this DMA channel */
  34:Generated_Source\PSoC4/RxDMA.h **** void RxDMA_Init(void);
  35:Generated_Source\PSoC4/RxDMA.h **** void RxDMA_Start(void * srcAddress, void * dstAddress);
  36:Generated_Source\PSoC4/RxDMA.h **** 
  37:Generated_Source\PSoC4/RxDMA.h **** /* Inline functions that call global API functions */
  38:Generated_Source\PSoC4/RxDMA.h **** static void   RxDMA_ChEnable(void);
  39:Generated_Source\PSoC4/RxDMA.h **** static void   RxDMA_ChDisable(void);
  40:Generated_Source\PSoC4/RxDMA.h **** static void   RxDMA_Trigger(void);
  41:Generated_Source\PSoC4/RxDMA.h **** static void   RxDMA_SetPriority(int32 priority);
ARM GAS  C:\Users\TERENC~1\AppData\Local\Temp\cc28re0c.s 			page 5


  42:Generated_Source\PSoC4/RxDMA.h **** static int32  RxDMA_GetPriority(void);
  43:Generated_Source\PSoC4/RxDMA.h **** static void   RxDMA_SetNextDescriptor(int32 descriptor);
  44:Generated_Source\PSoC4/RxDMA.h **** static int32  RxDMA_GetNextDescriptor(void);
  45:Generated_Source\PSoC4/RxDMA.h **** static void   RxDMA_SetConfiguration(int32 descriptor, const cydma_init_struct * config);
  46:Generated_Source\PSoC4/RxDMA.h **** static void   RxDMA_ValidateDescriptor(int32 descriptor);
  47:Generated_Source\PSoC4/RxDMA.h **** static uint32 RxDMA_GetDescriptorStatus(int32 descriptor);
  48:Generated_Source\PSoC4/RxDMA.h **** static void   RxDMA_SetSrcAddress(int32 descriptor, void * srcAddress);
  49:Generated_Source\PSoC4/RxDMA.h **** static void * RxDMA_GetSrcAddress(int32 descriptor);
  50:Generated_Source\PSoC4/RxDMA.h **** static void   RxDMA_SetDstAddress(int32 descriptor, void * dstAddress);
  51:Generated_Source\PSoC4/RxDMA.h **** static void * RxDMA_GetDstAddress(int32 descriptor);
  52:Generated_Source\PSoC4/RxDMA.h **** static void   RxDMA_SetDataElementSize(int32 descriptor, uint32 dataElementSize);
  53:Generated_Source\PSoC4/RxDMA.h **** static uint32 RxDMA_GetDataElementSize(int32 descriptor);
  54:Generated_Source\PSoC4/RxDMA.h **** static void   RxDMA_SetNumDataElements(int32 descriptor, int32 numDataElements);
  55:Generated_Source\PSoC4/RxDMA.h **** static int32  RxDMA_GetNumDataElements(int32 descriptor);
  56:Generated_Source\PSoC4/RxDMA.h **** static void   RxDMA_SetSrcDstTransferWidth(int32 descriptor, uint32 transferWidth);
  57:Generated_Source\PSoC4/RxDMA.h **** static uint32 RxDMA_GetSrcDstTransferWidth(int32 descriptor);
  58:Generated_Source\PSoC4/RxDMA.h **** static void   RxDMA_SetAddressIncrement(int32 descriptor, uint32 addressIncrement);
  59:Generated_Source\PSoC4/RxDMA.h **** static uint32 RxDMA_GetAddressIncrement(int32 descriptor);
  60:Generated_Source\PSoC4/RxDMA.h **** static void   RxDMA_SetTriggerType(int32 descriptor, uint32 triggerType);
  61:Generated_Source\PSoC4/RxDMA.h **** static uint32 RxDMA_GetTriggerType(int32 descriptor);
  62:Generated_Source\PSoC4/RxDMA.h **** static void   RxDMA_SetTransferMode(int32 descriptor, uint32 transferMode);
  63:Generated_Source\PSoC4/RxDMA.h **** static uint32 RxDMA_GetTransferMode(int32 descriptor);
  64:Generated_Source\PSoC4/RxDMA.h **** static void   RxDMA_SetPreemptable(int32 descriptor, uint32 preemptable);
  65:Generated_Source\PSoC4/RxDMA.h **** static uint32 RxDMA_GetPreemptable(int32 descriptor);
  66:Generated_Source\PSoC4/RxDMA.h **** static void   RxDMA_SetPostCompletionActions(int32 descriptor, uint32 actions);
  67:Generated_Source\PSoC4/RxDMA.h **** static uint32 RxDMA_GetPostCompletionAction(int32 descriptor);
  68:Generated_Source\PSoC4/RxDMA.h **** static cydma_callback_t RxDMA_SetInterruptCallback(cydma_callback_t callback);
  69:Generated_Source\PSoC4/RxDMA.h **** static cydma_callback_t RxDMA_GetInterruptCallback(void);
  70:Generated_Source\PSoC4/RxDMA.h **** 
  71:Generated_Source\PSoC4/RxDMA.h **** 
  72:Generated_Source\PSoC4/RxDMA.h **** /*******************************************************************************
  73:Generated_Source\PSoC4/RxDMA.h **** * Function Name: RxDMA_ChEnable
  74:Generated_Source\PSoC4/RxDMA.h **** ********************************************************************************
  75:Generated_Source\PSoC4/RxDMA.h **** *
  76:Generated_Source\PSoC4/RxDMA.h **** * Summary:
  77:Generated_Source\PSoC4/RxDMA.h **** *  Enables the DMA channel. It is not necessary to call RxDMA_ChEnable()
  78:Generated_Source\PSoC4/RxDMA.h **** *  because the RxDMA_Start() API calls this function, which is the
  79:Generated_Source\PSoC4/RxDMA.h **** *  preferred method to begin the component operation.
  80:Generated_Source\PSoC4/RxDMA.h **** *
  81:Generated_Source\PSoC4/RxDMA.h **** * Parameters:
  82:Generated_Source\PSoC4/RxDMA.h **** *  None.
  83:Generated_Source\PSoC4/RxDMA.h **** *                   
  84:Generated_Source\PSoC4/RxDMA.h **** * Return:
  85:Generated_Source\PSoC4/RxDMA.h **** *  None.
  86:Generated_Source\PSoC4/RxDMA.h **** *
  87:Generated_Source\PSoC4/RxDMA.h **** * Side effect:
  88:Generated_Source\PSoC4/RxDMA.h **** *  If this function is called before RxDMA_Start(), or RxDMA_Init()
  89:Generated_Source\PSoC4/RxDMA.h **** *  or RxDMA_SetConfiguration(), and RxDMA_SetSrcAddress()
  90:Generated_Source\PSoC4/RxDMA.h **** *  and RxDMA_SetDstAddress the operation of the DMA is 
  91:Generated_Source\PSoC4/RxDMA.h **** *  undefined and could result in system data corruption. 
  92:Generated_Source\PSoC4/RxDMA.h **** *
  93:Generated_Source\PSoC4/RxDMA.h **** *******************************************************************************/
  94:Generated_Source\PSoC4/RxDMA.h **** static CY_INLINE void RxDMA_ChEnable(void)
  95:Generated_Source\PSoC4/RxDMA.h **** {
  96:Generated_Source\PSoC4/RxDMA.h ****     CyDmaChEnable(RxDMA_CHANNEL);
  97:Generated_Source\PSoC4/RxDMA.h **** }
  98:Generated_Source\PSoC4/RxDMA.h **** 
ARM GAS  C:\Users\TERENC~1\AppData\Local\Temp\cc28re0c.s 			page 6


  99:Generated_Source\PSoC4/RxDMA.h **** 
 100:Generated_Source\PSoC4/RxDMA.h **** /*******************************************************************************
 101:Generated_Source\PSoC4/RxDMA.h **** * Function Name: RxDMA_ChDisable
 102:Generated_Source\PSoC4/RxDMA.h **** ********************************************************************************
 103:Generated_Source\PSoC4/RxDMA.h **** *
 104:Generated_Source\PSoC4/RxDMA.h **** * Summary:
 105:Generated_Source\PSoC4/RxDMA.h **** *  Disables the DMA channel.
 106:Generated_Source\PSoC4/RxDMA.h **** *
 107:Generated_Source\PSoC4/RxDMA.h **** * Parameters:
 108:Generated_Source\PSoC4/RxDMA.h **** *  None.
 109:Generated_Source\PSoC4/RxDMA.h **** *                   
 110:Generated_Source\PSoC4/RxDMA.h **** * Return:
 111:Generated_Source\PSoC4/RxDMA.h **** *  None.
 112:Generated_Source\PSoC4/RxDMA.h **** *
 113:Generated_Source\PSoC4/RxDMA.h **** * Side effect:
 114:Generated_Source\PSoC4/RxDMA.h **** *  If this function is called during a DMA transfer the transfer is aborted. 
 115:Generated_Source\PSoC4/RxDMA.h **** *
 116:Generated_Source\PSoC4/RxDMA.h **** *******************************************************************************/
 117:Generated_Source\PSoC4/RxDMA.h **** static CY_INLINE void RxDMA_ChDisable(void)
 118:Generated_Source\PSoC4/RxDMA.h **** {
 119:Generated_Source\PSoC4/RxDMA.h ****     CyDmaChDisable(RxDMA_CHANNEL);
 120:Generated_Source\PSoC4/RxDMA.h **** }
 121:Generated_Source\PSoC4/RxDMA.h **** 
 122:Generated_Source\PSoC4/RxDMA.h **** 
 123:Generated_Source\PSoC4/RxDMA.h **** /*******************************************************************************
 124:Generated_Source\PSoC4/RxDMA.h **** * Function Name: RxDMA_Trigger
 125:Generated_Source\PSoC4/RxDMA.h **** ********************************************************************************
 126:Generated_Source\PSoC4/RxDMA.h **** *
 127:Generated_Source\PSoC4/RxDMA.h **** * Summary:
 128:Generated_Source\PSoC4/RxDMA.h **** *  Triggers the DMA channel, this is useful only for software triggers. This is
 129:Generated_Source\PSoC4/RxDMA.h **** *  not needed when hardware triggers are used.
 130:Generated_Source\PSoC4/RxDMA.h **** *
 131:Generated_Source\PSoC4/RxDMA.h **** * Parameters:
 132:Generated_Source\PSoC4/RxDMA.h **** *  None.
 133:Generated_Source\PSoC4/RxDMA.h **** *                   
 134:Generated_Source\PSoC4/RxDMA.h **** * Return:
 135:Generated_Source\PSoC4/RxDMA.h **** *  None. 
 136:Generated_Source\PSoC4/RxDMA.h **** *
 137:Generated_Source\PSoC4/RxDMA.h **** *******************************************************************************/
 138:Generated_Source\PSoC4/RxDMA.h **** static CY_INLINE void RxDMA_Trigger(void)
 139:Generated_Source\PSoC4/RxDMA.h **** {
 140:Generated_Source\PSoC4/RxDMA.h ****     CyDmaTrigger(RxDMA_CHANNEL);
 141:Generated_Source\PSoC4/RxDMA.h **** }
 142:Generated_Source\PSoC4/RxDMA.h **** 
 143:Generated_Source\PSoC4/RxDMA.h **** 
 144:Generated_Source\PSoC4/RxDMA.h **** /*******************************************************************************
 145:Generated_Source\PSoC4/RxDMA.h **** * Function Name: RxDMA_SetPriority
 146:Generated_Source\PSoC4/RxDMA.h **** ********************************************************************************
 147:Generated_Source\PSoC4/RxDMA.h **** *
 148:Generated_Source\PSoC4/RxDMA.h **** * Summary:
 149:Generated_Source\PSoC4/RxDMA.h **** *  Sets the priority for the channel.
 150:Generated_Source\PSoC4/RxDMA.h **** *
 151:Generated_Source\PSoC4/RxDMA.h **** * Parameters:
 152:Generated_Source\PSoC4/RxDMA.h **** *  priority: Priority for channel. Priority can be 0,1,2, or 3.
 153:Generated_Source\PSoC4/RxDMA.h **** *            0 is the highest priority.
 154:Generated_Source\PSoC4/RxDMA.h **** *                   
 155:Generated_Source\PSoC4/RxDMA.h **** * Return:
ARM GAS  C:\Users\TERENC~1\AppData\Local\Temp\cc28re0c.s 			page 7


 156:Generated_Source\PSoC4/RxDMA.h **** *  None.
 157:Generated_Source\PSoC4/RxDMA.h **** *
 158:Generated_Source\PSoC4/RxDMA.h **** * Side effect:
 159:Generated_Source\PSoC4/RxDMA.h **** *  This function should not be called while the channel is enabled.
 160:Generated_Source\PSoC4/RxDMA.h **** *
 161:Generated_Source\PSoC4/RxDMA.h **** *******************************************************************************/
 162:Generated_Source\PSoC4/RxDMA.h **** static CY_INLINE void RxDMA_SetPriority(int32 priority)
 163:Generated_Source\PSoC4/RxDMA.h **** {
 164:Generated_Source\PSoC4/RxDMA.h ****     CyDmaSetPriority(RxDMA_CHANNEL, priority);
 165:Generated_Source\PSoC4/RxDMA.h **** }
 166:Generated_Source\PSoC4/RxDMA.h **** 
 167:Generated_Source\PSoC4/RxDMA.h **** 
 168:Generated_Source\PSoC4/RxDMA.h **** /*******************************************************************************
 169:Generated_Source\PSoC4/RxDMA.h **** * Function Name: RxDMA_GetPriority
 170:Generated_Source\PSoC4/RxDMA.h **** ********************************************************************************
 171:Generated_Source\PSoC4/RxDMA.h **** *
 172:Generated_Source\PSoC4/RxDMA.h **** * Summary:
 173:Generated_Source\PSoC4/RxDMA.h **** *  Gets the priority for the channel.
 174:Generated_Source\PSoC4/RxDMA.h **** *
 175:Generated_Source\PSoC4/RxDMA.h **** * Parameters:
 176:Generated_Source\PSoC4/RxDMA.h **** *  None.
 177:Generated_Source\PSoC4/RxDMA.h **** *                   
 178:Generated_Source\PSoC4/RxDMA.h **** * Return:
 179:Generated_Source\PSoC4/RxDMA.h **** *  Priority for channel. Priority can be 0,1,2, or 3. 0 is the highest priority.
 180:Generated_Source\PSoC4/RxDMA.h **** *
 181:Generated_Source\PSoC4/RxDMA.h **** *******************************************************************************/
 182:Generated_Source\PSoC4/RxDMA.h **** static CY_INLINE int32 RxDMA_GetPriority(void)
 183:Generated_Source\PSoC4/RxDMA.h **** {
 184:Generated_Source\PSoC4/RxDMA.h ****     return (CyDmaGetPriority(RxDMA_CHANNEL));
 185:Generated_Source\PSoC4/RxDMA.h **** }
 186:Generated_Source\PSoC4/RxDMA.h **** 
 187:Generated_Source\PSoC4/RxDMA.h **** 
 188:Generated_Source\PSoC4/RxDMA.h **** /*******************************************************************************
 189:Generated_Source\PSoC4/RxDMA.h **** * Function Name: RxDMA_SetNextDescriptor
 190:Generated_Source\PSoC4/RxDMA.h **** ********************************************************************************
 191:Generated_Source\PSoC4/RxDMA.h **** *
 192:Generated_Source\PSoC4/RxDMA.h **** * Summary:
 193:Generated_Source\PSoC4/RxDMA.h **** *  Sets the descriptor that should be run the next time the channel is
 194:Generated_Source\PSoC4/RxDMA.h **** *  triggered.
 195:Generated_Source\PSoC4/RxDMA.h **** *
 196:Generated_Source\PSoC4/RxDMA.h **** * Parameters:
 197:Generated_Source\PSoC4/RxDMA.h **** *  descriptor: Next Descriptor to run (0 or 1).
 198:Generated_Source\PSoC4/RxDMA.h **** *                   
 199:Generated_Source\PSoC4/RxDMA.h **** * Side effect:
 200:Generated_Source\PSoC4/RxDMA.h **** *  This function should not be called while the channel is enabled.
 201:Generated_Source\PSoC4/RxDMA.h **** *
 202:Generated_Source\PSoC4/RxDMA.h **** *******************************************************************************/
 203:Generated_Source\PSoC4/RxDMA.h **** static CY_INLINE void RxDMA_SetNextDescriptor(int32 descriptor)
 204:Generated_Source\PSoC4/RxDMA.h **** {
 205:Generated_Source\PSoC4/RxDMA.h ****     CyDmaSetNextDescriptor(RxDMA_CHANNEL, descriptor);
 206:Generated_Source\PSoC4/RxDMA.h **** }
 207:Generated_Source\PSoC4/RxDMA.h **** 
 208:Generated_Source\PSoC4/RxDMA.h **** 
 209:Generated_Source\PSoC4/RxDMA.h **** /*******************************************************************************
 210:Generated_Source\PSoC4/RxDMA.h **** * Function Name: RxDMA_GetNextDescriptor
 211:Generated_Source\PSoC4/RxDMA.h **** ********************************************************************************
 212:Generated_Source\PSoC4/RxDMA.h **** *
ARM GAS  C:\Users\TERENC~1\AppData\Local\Temp\cc28re0c.s 			page 8


 213:Generated_Source\PSoC4/RxDMA.h **** * Summary:
 214:Generated_Source\PSoC4/RxDMA.h **** *  Returns the next descriptor that should be run, as set by 
 215:Generated_Source\PSoC4/RxDMA.h **** *  RxDMA_SetNextDescriptor().
 216:Generated_Source\PSoC4/RxDMA.h **** *
 217:Generated_Source\PSoC4/RxDMA.h **** * Parameters:
 218:Generated_Source\PSoC4/RxDMA.h **** *  None.
 219:Generated_Source\PSoC4/RxDMA.h **** *                   
 220:Generated_Source\PSoC4/RxDMA.h **** * Return:
 221:Generated_Source\PSoC4/RxDMA.h **** *  Next Descriptor to run (0 or 1).
 222:Generated_Source\PSoC4/RxDMA.h **** *
 223:Generated_Source\PSoC4/RxDMA.h **** *******************************************************************************/
 224:Generated_Source\PSoC4/RxDMA.h **** static CY_INLINE int32 RxDMA_GetNextDescriptor(void)
 225:Generated_Source\PSoC4/RxDMA.h **** {
 226:Generated_Source\PSoC4/RxDMA.h ****     return (CyDmaGetNextDescriptor(RxDMA_CHANNEL));
 227:Generated_Source\PSoC4/RxDMA.h **** }
 228:Generated_Source\PSoC4/RxDMA.h **** 
 229:Generated_Source\PSoC4/RxDMA.h **** 
 230:Generated_Source\PSoC4/RxDMA.h **** /*******************************************************************************
 231:Generated_Source\PSoC4/RxDMA.h **** * Function Name: RxDMA_SetConfiguration
 232:Generated_Source\PSoC4/RxDMA.h **** ********************************************************************************
 233:Generated_Source\PSoC4/RxDMA.h **** *
 234:Generated_Source\PSoC4/RxDMA.h **** * Summary:
 235:Generated_Source\PSoC4/RxDMA.h **** *  Sets configuration information for the specified descriptor.
 236:Generated_Source\PSoC4/RxDMA.h **** *
 237:Generated_Source\PSoC4/RxDMA.h **** * Parameters:
 238:Generated_Source\PSoC4/RxDMA.h **** *  descriptor: Descriptor (0 or 1) modified by this function.
 239:Generated_Source\PSoC4/RxDMA.h **** *  config: Pointer to a configuration structure. Refer to cydma_init_struct
 240:Generated_Source\PSoC4/RxDMA.h **** *          structure definition in CyDMA_P4.h or the component datasheet.
 241:Generated_Source\PSoC4/RxDMA.h **** *                   
 242:Generated_Source\PSoC4/RxDMA.h **** * Return:
 243:Generated_Source\PSoC4/RxDMA.h **** *  None.
 244:Generated_Source\PSoC4/RxDMA.h **** *
 245:Generated_Source\PSoC4/RxDMA.h **** * Side effect:
 246:Generated_Source\PSoC4/RxDMA.h **** *  The status register associated with the specified descriptor is reset to
 247:Generated_Source\PSoC4/RxDMA.h **** *  zero after this function call. This function also validates the descriptor.
 248:Generated_Source\PSoC4/RxDMA.h **** *  This function should not be called while the descriptor is active.
 249:Generated_Source\PSoC4/RxDMA.h **** *  This can be checked by calling CyDmaGetStatus().
 250:Generated_Source\PSoC4/RxDMA.h **** *
 251:Generated_Source\PSoC4/RxDMA.h **** *******************************************************************************/
 252:Generated_Source\PSoC4/RxDMA.h **** static CY_INLINE void RxDMA_SetConfiguration(int32 descriptor, const cydma_init_struct * config)
 253:Generated_Source\PSoC4/RxDMA.h **** {
 254:Generated_Source\PSoC4/RxDMA.h ****     CyDmaSetConfiguration(RxDMA_CHANNEL, descriptor, config);
 255:Generated_Source\PSoC4/RxDMA.h **** }
 256:Generated_Source\PSoC4/RxDMA.h **** 
 257:Generated_Source\PSoC4/RxDMA.h **** 
 258:Generated_Source\PSoC4/RxDMA.h **** /*******************************************************************************
 259:Generated_Source\PSoC4/RxDMA.h **** * Function Name: RxDMA_ValidateDescriptor
 260:Generated_Source\PSoC4/RxDMA.h **** ********************************************************************************
 261:Generated_Source\PSoC4/RxDMA.h **** *
 262:Generated_Source\PSoC4/RxDMA.h **** * Summary:
 263:Generated_Source\PSoC4/RxDMA.h **** *  Validates the specified descriptor after it has been invalidated.
 264:Generated_Source\PSoC4/RxDMA.h **** *
 265:Generated_Source\PSoC4/RxDMA.h **** * Parameters:
 266:Generated_Source\PSoC4/RxDMA.h **** *  descriptor: Descriptor (0 or 1) modified by this function.
 267:Generated_Source\PSoC4/RxDMA.h **** *                   
 268:Generated_Source\PSoC4/RxDMA.h **** * Return:
 269:Generated_Source\PSoC4/RxDMA.h **** *  None. 
ARM GAS  C:\Users\TERENC~1\AppData\Local\Temp\cc28re0c.s 			page 9


 270:Generated_Source\PSoC4/RxDMA.h **** *
 271:Generated_Source\PSoC4/RxDMA.h **** * Side effect:
 272:Generated_Source\PSoC4/RxDMA.h **** *  The status register associated with the specified descriptor is reset to
 273:Generated_Source\PSoC4/RxDMA.h **** *  zero after this function call. This function should not be called while the
 274:Generated_Source\PSoC4/RxDMA.h **** *  descriptor is active. This can be checked by calling CyDmaGetStatus().
 275:Generated_Source\PSoC4/RxDMA.h **** *
 276:Generated_Source\PSoC4/RxDMA.h **** *******************************************************************************/
 277:Generated_Source\PSoC4/RxDMA.h **** static CY_INLINE void RxDMA_ValidateDescriptor(int32 descriptor)
 278:Generated_Source\PSoC4/RxDMA.h **** {
 279:Generated_Source\PSoC4/RxDMA.h ****     CyDmaValidateDescriptor(RxDMA_CHANNEL, descriptor);
 280:Generated_Source\PSoC4/RxDMA.h **** }
 281:Generated_Source\PSoC4/RxDMA.h **** 
 282:Generated_Source\PSoC4/RxDMA.h **** 
 283:Generated_Source\PSoC4/RxDMA.h **** /*******************************************************************************
 284:Generated_Source\PSoC4/RxDMA.h **** * Function Name: RxDMA_GetDescriptorStatus
 285:Generated_Source\PSoC4/RxDMA.h **** ********************************************************************************
 286:Generated_Source\PSoC4/RxDMA.h **** *
 287:Generated_Source\PSoC4/RxDMA.h **** * Summary:
 288:Generated_Source\PSoC4/RxDMA.h **** *  Returns the status of the specified descriptor.
 289:Generated_Source\PSoC4/RxDMA.h **** *
 290:Generated_Source\PSoC4/RxDMA.h **** * Parameters:
 291:Generated_Source\PSoC4/RxDMA.h **** *  descriptor: Descriptor (0 or 1) modified by this function.
 292:Generated_Source\PSoC4/RxDMA.h **** *                   
 293:Generated_Source\PSoC4/RxDMA.h **** * Return:
 294:Generated_Source\PSoC4/RxDMA.h **** *  Returns the contents of the specified descriptors status register. Refer to 
 295:Generated_Source\PSoC4/RxDMA.h **** *  descriptor status register bit definitions in CyDMA_P4.h or the API
 296:Generated_Source\PSoC4/RxDMA.h **** *  description in the DMA channel datasheet for more information.
 297:Generated_Source\PSoC4/RxDMA.h **** *
 298:Generated_Source\PSoC4/RxDMA.h **** *******************************************************************************/
 299:Generated_Source\PSoC4/RxDMA.h **** static CY_INLINE uint32 RxDMA_GetDescriptorStatus(int32 descriptor)
 300:Generated_Source\PSoC4/RxDMA.h **** {
 301:Generated_Source\PSoC4/RxDMA.h ****     return (CyDmaGetDescriptorStatus(RxDMA_CHANNEL, descriptor));
 302:Generated_Source\PSoC4/RxDMA.h **** }
 303:Generated_Source\PSoC4/RxDMA.h **** 
 304:Generated_Source\PSoC4/RxDMA.h **** 
 305:Generated_Source\PSoC4/RxDMA.h **** /*******************************************************************************
 306:Generated_Source\PSoC4/RxDMA.h **** * Function Name: RxDMA_SetSrcAddress
 307:Generated_Source\PSoC4/RxDMA.h **** ********************************************************************************
 308:Generated_Source\PSoC4/RxDMA.h **** *
 309:Generated_Source\PSoC4/RxDMA.h **** * Summary:
 310:Generated_Source\PSoC4/RxDMA.h **** *  Configures the source address for the specified descriptor.
 311:Generated_Source\PSoC4/RxDMA.h **** *
 312:Generated_Source\PSoC4/RxDMA.h **** * Parameters:
 313:Generated_Source\PSoC4/RxDMA.h **** *  descriptor: Descriptor (0 or 1) modified by this function.
 314:Generated_Source\PSoC4/RxDMA.h **** *  srcAddress: Address of DMA transfer source.
 315:Generated_Source\PSoC4/RxDMA.h **** *                   
 316:Generated_Source\PSoC4/RxDMA.h **** * Return:
 317:Generated_Source\PSoC4/RxDMA.h **** *  None.
 318:Generated_Source\PSoC4/RxDMA.h **** *
 319:Generated_Source\PSoC4/RxDMA.h **** * Side effect:
 320:Generated_Source\PSoC4/RxDMA.h **** *  This function should not be called when the specified descriptor is active
 321:Generated_Source\PSoC4/RxDMA.h **** *  in the DMA transfer engine. This can be checked by calling CyDmaGetStatus(). 
 322:Generated_Source\PSoC4/RxDMA.h **** *
 323:Generated_Source\PSoC4/RxDMA.h **** *******************************************************************************/
 324:Generated_Source\PSoC4/RxDMA.h **** static CY_INLINE void RxDMA_SetSrcAddress(int32 descriptor, void * srcAddress)
 325:Generated_Source\PSoC4/RxDMA.h **** {
 326:Generated_Source\PSoC4/RxDMA.h ****     CyDmaSetSrcAddress(RxDMA_CHANNEL, descriptor, srcAddress);
ARM GAS  C:\Users\TERENC~1\AppData\Local\Temp\cc28re0c.s 			page 10


  95              		.loc 2 326 0
  96 001c 2A00     		movs	r2, r5
  97 001e 0021     		movs	r1, #0
  98 0020 0120     		movs	r0, #1
  99 0022 FFF7FEFF 		bl	CyDmaSetSrcAddress
 100              	.LVL3:
 101              	.LBE11:
 102              	.LBE10:
 103              	.LBB12:
 104              	.LBB13:
 327:Generated_Source\PSoC4/RxDMA.h **** }
 328:Generated_Source\PSoC4/RxDMA.h **** 
 329:Generated_Source\PSoC4/RxDMA.h **** 
 330:Generated_Source\PSoC4/RxDMA.h **** /*******************************************************************************
 331:Generated_Source\PSoC4/RxDMA.h **** * Function Name: RxDMA_GetSrcAddress
 332:Generated_Source\PSoC4/RxDMA.h **** ********************************************************************************
 333:Generated_Source\PSoC4/RxDMA.h **** *
 334:Generated_Source\PSoC4/RxDMA.h **** * Summary:
 335:Generated_Source\PSoC4/RxDMA.h **** *  Returns the source address for the specified descriptor, set by either 
 336:Generated_Source\PSoC4/RxDMA.h **** *  RxDMA_Start() or RxDMA_SetSrcAddress().
 337:Generated_Source\PSoC4/RxDMA.h **** *
 338:Generated_Source\PSoC4/RxDMA.h **** * Parameters:
 339:Generated_Source\PSoC4/RxDMA.h **** *  descriptor: Specifies descriptor (0 or 1) used by this function.
 340:Generated_Source\PSoC4/RxDMA.h **** *                   
 341:Generated_Source\PSoC4/RxDMA.h **** * Return:
 342:Generated_Source\PSoC4/RxDMA.h **** *  Source address written to specified descriptor.
 343:Generated_Source\PSoC4/RxDMA.h **** *
 344:Generated_Source\PSoC4/RxDMA.h **** *******************************************************************************/
 345:Generated_Source\PSoC4/RxDMA.h **** static CY_INLINE void * RxDMA_GetSrcAddress(int32 descriptor)
 346:Generated_Source\PSoC4/RxDMA.h **** {
 347:Generated_Source\PSoC4/RxDMA.h ****     return (CyDmaGetSrcAddress(RxDMA_CHANNEL, descriptor));
 348:Generated_Source\PSoC4/RxDMA.h **** }
 349:Generated_Source\PSoC4/RxDMA.h **** 
 350:Generated_Source\PSoC4/RxDMA.h **** 
 351:Generated_Source\PSoC4/RxDMA.h **** /*******************************************************************************
 352:Generated_Source\PSoC4/RxDMA.h **** * Function Name: RxDMA_SetDstAddress
 353:Generated_Source\PSoC4/RxDMA.h **** ********************************************************************************
 354:Generated_Source\PSoC4/RxDMA.h **** *
 355:Generated_Source\PSoC4/RxDMA.h **** * Summary:
 356:Generated_Source\PSoC4/RxDMA.h **** *  Configures the destination address for the specified descriptor.
 357:Generated_Source\PSoC4/RxDMA.h **** *
 358:Generated_Source\PSoC4/RxDMA.h **** * Parameters:
 359:Generated_Source\PSoC4/RxDMA.h **** *  descriptor: Descriptor (0 or 1) modified by this function.
 360:Generated_Source\PSoC4/RxDMA.h **** *  dstAddress: Address of DMA transfer destination.
 361:Generated_Source\PSoC4/RxDMA.h **** *                   
 362:Generated_Source\PSoC4/RxDMA.h **** * Return:
 363:Generated_Source\PSoC4/RxDMA.h **** *  None.
 364:Generated_Source\PSoC4/RxDMA.h **** *
 365:Generated_Source\PSoC4/RxDMA.h **** * Side effect:
 366:Generated_Source\PSoC4/RxDMA.h **** *  This function should not be called when the specified descriptor is active
 367:Generated_Source\PSoC4/RxDMA.h **** *  in the DMA transfer engine. This can be checked by calling CyDmaGetStatus(). 
 368:Generated_Source\PSoC4/RxDMA.h **** *
 369:Generated_Source\PSoC4/RxDMA.h **** *******************************************************************************/
 370:Generated_Source\PSoC4/RxDMA.h **** static CY_INLINE void RxDMA_SetDstAddress(int32 descriptor, void * dstAddress)
 371:Generated_Source\PSoC4/RxDMA.h **** {
 372:Generated_Source\PSoC4/RxDMA.h ****     CyDmaSetDstAddress(RxDMA_CHANNEL, descriptor, dstAddress);
 105              		.loc 2 372 0
ARM GAS  C:\Users\TERENC~1\AppData\Local\Temp\cc28re0c.s 			page 11


 106 0026 2200     		movs	r2, r4
 107 0028 0021     		movs	r1, #0
 108 002a 0120     		movs	r0, #1
 109 002c FFF7FEFF 		bl	CyDmaSetDstAddress
 110              	.LVL4:
 111              	.LBE13:
 112              	.LBE12:
 113              	.LBB14:
 114              	.LBB15:
 279:Generated_Source\PSoC4/RxDMA.h **** }
 115              		.loc 2 279 0
 116 0030 0021     		movs	r1, #0
 117 0032 0120     		movs	r0, #1
 118 0034 FFF7FEFF 		bl	CyDmaValidateDescriptor
 119              	.LVL5:
 120              	.LBE15:
 121              	.LBE14:
 122              	.LBB16:
 123              	.LBB17:
  96:Generated_Source\PSoC4/RxDMA.h **** }
 124              		.loc 2 96 0
 125 0038 0120     		movs	r0, #1
 126 003a FFF7FEFF 		bl	CyDmaChEnable
 127              	.LVL6:
 128              	.LBE17:
 129              	.LBE16:
  51:Generated_Source\PSoC4/RxDMA.c **** 
 130              		.loc 1 51 0
 131              		@ sp needed
 132              	.LVL7:
 133              	.LVL8:
 134 003e 70BD     		pop	{r4, r5, r6, pc}
 135              	.L7:
 136              		.align	2
 137              	.L6:
 138 0040 00000000 		.word	.LANCHOR0
 139              		.cfi_endproc
 140              	.LFE32:
 141              		.size	RxDMA_Start, .-RxDMA_Start
 142              		.global	RxDMA_initVar
 143              		.bss
 144              		.set	.LANCHOR0,. + 0
 145              		.type	RxDMA_initVar, %object
 146              		.size	RxDMA_initVar, 1
 147              	RxDMA_initVar:
 148 0000 00       		.space	1
 149              		.text
 150              	.Letext0:
 151              		.file 3 "Generated_Source\\PSoC4\\cytypes.h"
 152              		.file 4 "Generated_Source\\PSoC4\\CyDMA.h"