ARM GAS  C:\Users\TERENC~1\AppData\Local\Temp\ccVnttLg.s 			page 1


   1              		.syntax unified
   2              		.cpu cortex-m0
   3              		.fpu softvfp
   4              		.eabi_attribute 20, 1
   5              		.eabi_attribute 21, 1
   6              		.eabi_attribute 23, 3
   7              		.eabi_attribute 24, 1
   8              		.eabi_attribute 25, 1
   9              		.eabi_attribute 26, 1
  10              		.eabi_attribute 30, 1
  11              		.eabi_attribute 34, 0
  12              		.eabi_attribute 18, 4
  13              		.thumb
  14              		.syntax unified
  15              		.file	"USBFS_std.c"
  16              		.text
  17              	.Ltext0:
  18              		.cfi_sections	.debug_frame
  19              		.section	.text.USBFS_ReadDieID,"ax",%progbits
  20              		.align	2
  21              		.global	USBFS_ReadDieID
  22              		.code	16
  23              		.thumb_func
  24              		.type	USBFS_ReadDieID, %function
  25              	USBFS_ReadDieID:
  26              	.LFB162:
  27              		.file 1 "Generated_Source\\PSoC4\\USBFS_std.c"
   1:Generated_Source\PSoC4/USBFS_std.c **** /***************************************************************************//**
   2:Generated_Source\PSoC4/USBFS_std.c **** * \file USBFS_std.c
   3:Generated_Source\PSoC4/USBFS_std.c **** * \version 3.20
   4:Generated_Source\PSoC4/USBFS_std.c **** *
   5:Generated_Source\PSoC4/USBFS_std.c **** * \brief
   6:Generated_Source\PSoC4/USBFS_std.c **** *  This file contains the USB Standard request handler.
   7:Generated_Source\PSoC4/USBFS_std.c **** *
   8:Generated_Source\PSoC4/USBFS_std.c **** ********************************************************************************
   9:Generated_Source\PSoC4/USBFS_std.c **** * \copyright
  10:Generated_Source\PSoC4/USBFS_std.c **** * Copyright 2008-2016, Cypress Semiconductor Corporation.  All rights reserved.
  11:Generated_Source\PSoC4/USBFS_std.c **** * You may use this file only in accordance with the license, terms, conditions,
  12:Generated_Source\PSoC4/USBFS_std.c **** * disclaimers, and limitations in the end user license agreement accompanying
  13:Generated_Source\PSoC4/USBFS_std.c **** * the software package with which this file was provided.
  14:Generated_Source\PSoC4/USBFS_std.c **** *******************************************************************************/
  15:Generated_Source\PSoC4/USBFS_std.c **** 
  16:Generated_Source\PSoC4/USBFS_std.c **** #include "USBFS_pvt.h"
  17:Generated_Source\PSoC4/USBFS_std.c **** 
  18:Generated_Source\PSoC4/USBFS_std.c **** /***************************************
  19:Generated_Source\PSoC4/USBFS_std.c **** *   Static data allocation
  20:Generated_Source\PSoC4/USBFS_std.c **** ***************************************/
  21:Generated_Source\PSoC4/USBFS_std.c **** 
  22:Generated_Source\PSoC4/USBFS_std.c **** #if defined(USBFS_ENABLE_FWSN_STRING)
  23:Generated_Source\PSoC4/USBFS_std.c ****     static volatile uint8* USBFS_fwSerialNumberStringDescriptor;
  24:Generated_Source\PSoC4/USBFS_std.c ****     static volatile uint8  USBFS_snStringConfirm = USBFS_FALSE;
  25:Generated_Source\PSoC4/USBFS_std.c **** #endif  /* (USBFS_ENABLE_FWSN_STRING) */
  26:Generated_Source\PSoC4/USBFS_std.c **** 
  27:Generated_Source\PSoC4/USBFS_std.c **** #if defined(USBFS_ENABLE_FWSN_STRING)
  28:Generated_Source\PSoC4/USBFS_std.c ****     /***************************************************************************
  29:Generated_Source\PSoC4/USBFS_std.c ****     * Function Name: USBFS_SerialNumString
  30:Generated_Source\PSoC4/USBFS_std.c ****     ************************************************************************//**
ARM GAS  C:\Users\TERENC~1\AppData\Local\Temp\ccVnttLg.s 			page 2


  31:Generated_Source\PSoC4/USBFS_std.c ****     *
  32:Generated_Source\PSoC4/USBFS_std.c ****     *  This function is available only when the User Call Back option in the 
  33:Generated_Source\PSoC4/USBFS_std.c ****     *  Serial Number String descriptor properties is selected. Application 
  34:Generated_Source\PSoC4/USBFS_std.c ****     *  firmware can provide the source of the USB device serial number string 
  35:Generated_Source\PSoC4/USBFS_std.c ****     *  descriptor during run time. The default string is used if the application 
  36:Generated_Source\PSoC4/USBFS_std.c ****     *  firmware does not use this function or sets the wrong string descriptor.
  37:Generated_Source\PSoC4/USBFS_std.c ****     *
  38:Generated_Source\PSoC4/USBFS_std.c ****     *  \param snString:  Pointer to the user-defined string descriptor. The 
  39:Generated_Source\PSoC4/USBFS_std.c ****     *  string descriptor should meet the Universal Serial Bus Specification 
  40:Generated_Source\PSoC4/USBFS_std.c ****     *  revision 2.0 chapter 9.6.7
  41:Generated_Source\PSoC4/USBFS_std.c ****     *  Offset|Size|Value|Description
  42:Generated_Source\PSoC4/USBFS_std.c ****     *  ------|----|------|---------------------------------
  43:Generated_Source\PSoC4/USBFS_std.c ****     *  0     |1   |N     |Size of this descriptor in bytes
  44:Generated_Source\PSoC4/USBFS_std.c ****     *  1     |1   |0x03  |STRING Descriptor Type
  45:Generated_Source\PSoC4/USBFS_std.c ****     *  2     |N-2 |Number|UNICODE encoded string
  46:Generated_Source\PSoC4/USBFS_std.c ****     *  
  47:Generated_Source\PSoC4/USBFS_std.c ****     * *For example:* uint8 snString[16]={0x0E,0x03,'F',0,'W',0,'S',0,'N',0,'0',0,'1',0};
  48:Generated_Source\PSoC4/USBFS_std.c ****     *
  49:Generated_Source\PSoC4/USBFS_std.c ****     * \reentrant
  50:Generated_Source\PSoC4/USBFS_std.c ****     *  No.
  51:Generated_Source\PSoC4/USBFS_std.c ****     *
  52:Generated_Source\PSoC4/USBFS_std.c ****     ***************************************************************************/
  53:Generated_Source\PSoC4/USBFS_std.c ****     void  USBFS_SerialNumString(uint8 snString[]) 
  54:Generated_Source\PSoC4/USBFS_std.c ****     {
  55:Generated_Source\PSoC4/USBFS_std.c ****         USBFS_snStringConfirm = USBFS_FALSE;
  56:Generated_Source\PSoC4/USBFS_std.c ****         
  57:Generated_Source\PSoC4/USBFS_std.c ****         if (snString != NULL)
  58:Generated_Source\PSoC4/USBFS_std.c ****         {
  59:Generated_Source\PSoC4/USBFS_std.c ****             /* Check descriptor validation */
  60:Generated_Source\PSoC4/USBFS_std.c ****             if ((snString[0u] > 1u) && (snString[1u] == USBFS_DESCR_STRING))
  61:Generated_Source\PSoC4/USBFS_std.c ****             {
  62:Generated_Source\PSoC4/USBFS_std.c ****                 USBFS_fwSerialNumberStringDescriptor = snString;
  63:Generated_Source\PSoC4/USBFS_std.c ****                 USBFS_snStringConfirm = USBFS_TRUE;
  64:Generated_Source\PSoC4/USBFS_std.c ****             }
  65:Generated_Source\PSoC4/USBFS_std.c ****         }
  66:Generated_Source\PSoC4/USBFS_std.c ****     }
  67:Generated_Source\PSoC4/USBFS_std.c **** #endif  /* USBFS_ENABLE_FWSN_STRING */
  68:Generated_Source\PSoC4/USBFS_std.c **** 
  69:Generated_Source\PSoC4/USBFS_std.c **** 
  70:Generated_Source\PSoC4/USBFS_std.c **** /*******************************************************************************
  71:Generated_Source\PSoC4/USBFS_std.c **** * Function Name: USBFS_HandleStandardRqst
  72:Generated_Source\PSoC4/USBFS_std.c **** ****************************************************************************//**
  73:Generated_Source\PSoC4/USBFS_std.c **** *
  74:Generated_Source\PSoC4/USBFS_std.c **** *  This Routine dispatches standard requests
  75:Generated_Source\PSoC4/USBFS_std.c **** *
  76:Generated_Source\PSoC4/USBFS_std.c **** *
  77:Generated_Source\PSoC4/USBFS_std.c **** * \return
  78:Generated_Source\PSoC4/USBFS_std.c **** *  TRUE if request handled.
  79:Generated_Source\PSoC4/USBFS_std.c **** *
  80:Generated_Source\PSoC4/USBFS_std.c **** * \reentrant
  81:Generated_Source\PSoC4/USBFS_std.c **** *  No.
  82:Generated_Source\PSoC4/USBFS_std.c **** *
  83:Generated_Source\PSoC4/USBFS_std.c **** *******************************************************************************/
  84:Generated_Source\PSoC4/USBFS_std.c **** uint8 USBFS_HandleStandardRqst(void) 
  85:Generated_Source\PSoC4/USBFS_std.c **** {
  86:Generated_Source\PSoC4/USBFS_std.c ****     uint8 requestHandled = USBFS_FALSE;
  87:Generated_Source\PSoC4/USBFS_std.c ****     uint32 interfaceNumber;
ARM GAS  C:\Users\TERENC~1\AppData\Local\Temp\ccVnttLg.s 			page 3


  88:Generated_Source\PSoC4/USBFS_std.c ****     uint32 configurationN;
  89:Generated_Source\PSoC4/USBFS_std.c ****     uint32 bmRequestType = USBFS_bmRequestTypeReg;
  90:Generated_Source\PSoC4/USBFS_std.c **** 
  91:Generated_Source\PSoC4/USBFS_std.c **** #if defined(USBFS_ENABLE_STRINGS)
  92:Generated_Source\PSoC4/USBFS_std.c ****     volatile uint8 *pStr = 0u;
  93:Generated_Source\PSoC4/USBFS_std.c ****     #if defined(USBFS_ENABLE_DESCRIPTOR_STRINGS)
  94:Generated_Source\PSoC4/USBFS_std.c ****         uint8 nStr;
  95:Generated_Source\PSoC4/USBFS_std.c ****         uint8 descrLength;
  96:Generated_Source\PSoC4/USBFS_std.c ****     #endif /* (USBFS_ENABLE_DESCRIPTOR_STRINGS) */
  97:Generated_Source\PSoC4/USBFS_std.c **** #endif /* (USBFS_ENABLE_STRINGS) */
  98:Generated_Source\PSoC4/USBFS_std.c ****     
  99:Generated_Source\PSoC4/USBFS_std.c ****     static volatile uint8 USBFS_tBuffer[USBFS_STATUS_LENGTH_MAX];
 100:Generated_Source\PSoC4/USBFS_std.c ****     const T_USBFS_LUT CYCODE *pTmp;
 101:Generated_Source\PSoC4/USBFS_std.c **** 
 102:Generated_Source\PSoC4/USBFS_std.c ****     USBFS_currentTD.count = 0u;
 103:Generated_Source\PSoC4/USBFS_std.c **** 
 104:Generated_Source\PSoC4/USBFS_std.c ****     if (USBFS_RQST_DIR_D2H == (bmRequestType & USBFS_RQST_DIR_MASK))
 105:Generated_Source\PSoC4/USBFS_std.c ****     {
 106:Generated_Source\PSoC4/USBFS_std.c ****         /* Control Read */
 107:Generated_Source\PSoC4/USBFS_std.c ****         switch (USBFS_bRequestReg)
 108:Generated_Source\PSoC4/USBFS_std.c ****         {
 109:Generated_Source\PSoC4/USBFS_std.c ****             case USBFS_GET_DESCRIPTOR:
 110:Generated_Source\PSoC4/USBFS_std.c ****                 if (USBFS_DESCR_DEVICE ==USBFS_wValueHiReg)
 111:Generated_Source\PSoC4/USBFS_std.c ****                 {
 112:Generated_Source\PSoC4/USBFS_std.c ****                     pTmp = USBFS_GetDeviceTablePtr();
 113:Generated_Source\PSoC4/USBFS_std.c ****                     USBFS_currentTD.pData = (volatile uint8 *)pTmp->p_list;
 114:Generated_Source\PSoC4/USBFS_std.c ****                     USBFS_currentTD.count = USBFS_DEVICE_DESCR_LENGTH;
 115:Generated_Source\PSoC4/USBFS_std.c ****                     
 116:Generated_Source\PSoC4/USBFS_std.c ****                     requestHandled  = USBFS_InitControlRead();
 117:Generated_Source\PSoC4/USBFS_std.c ****                 }
 118:Generated_Source\PSoC4/USBFS_std.c ****                 else if (USBFS_DESCR_CONFIG == USBFS_wValueHiReg)
 119:Generated_Source\PSoC4/USBFS_std.c ****                 {
 120:Generated_Source\PSoC4/USBFS_std.c ****                     pTmp = USBFS_GetConfigTablePtr((uint8) USBFS_wValueLoReg);
 121:Generated_Source\PSoC4/USBFS_std.c ****                     
 122:Generated_Source\PSoC4/USBFS_std.c ****                     /* Verify that requested descriptor exists */
 123:Generated_Source\PSoC4/USBFS_std.c ****                     if (pTmp != NULL)
 124:Generated_Source\PSoC4/USBFS_std.c ****                     {
 125:Generated_Source\PSoC4/USBFS_std.c ****                         USBFS_currentTD.pData = (volatile uint8 *)pTmp->p_list;
 126:Generated_Source\PSoC4/USBFS_std.c ****                         USBFS_currentTD.count = (uint16)((uint16)(USBFS_currentTD.pData)[USBFS_CONF
 127:Generated_Source\PSoC4/USBFS_std.c ****                                                                             (USBFS_currentTD.pData)
 128:Generated_Source\PSoC4/USBFS_std.c ****                         requestHandled  = USBFS_InitControlRead();
 129:Generated_Source\PSoC4/USBFS_std.c ****                     }
 130:Generated_Source\PSoC4/USBFS_std.c ****                 }
 131:Generated_Source\PSoC4/USBFS_std.c ****                 
 132:Generated_Source\PSoC4/USBFS_std.c ****             #if(USBFS_BOS_ENABLE)
 133:Generated_Source\PSoC4/USBFS_std.c ****                 else if (USBFS_DESCR_BOS == USBFS_wValueHiReg)
 134:Generated_Source\PSoC4/USBFS_std.c ****                 {
 135:Generated_Source\PSoC4/USBFS_std.c ****                     pTmp = USBFS_GetBOSPtr();
 136:Generated_Source\PSoC4/USBFS_std.c ****                     
 137:Generated_Source\PSoC4/USBFS_std.c ****                     /* Verify that requested descriptor exists */
 138:Generated_Source\PSoC4/USBFS_std.c ****                     if (pTmp != NULL)
 139:Generated_Source\PSoC4/USBFS_std.c ****                     {
 140:Generated_Source\PSoC4/USBFS_std.c ****                         USBFS_currentTD.pData = (volatile uint8 *)pTmp;
 141:Generated_Source\PSoC4/USBFS_std.c ****                         USBFS_currentTD.count = ((uint16)((uint16)(USBFS_currentTD.pData)[USBFS_BOS
 142:Generated_Source\PSoC4/USBFS_std.c ****                                                                              (USBFS_currentTD.pData
 143:Generated_Source\PSoC4/USBFS_std.c ****                         requestHandled  = USBFS_InitControlRead();
 144:Generated_Source\PSoC4/USBFS_std.c ****                     }
ARM GAS  C:\Users\TERENC~1\AppData\Local\Temp\ccVnttLg.s 			page 4


 145:Generated_Source\PSoC4/USBFS_std.c ****                 }
 146:Generated_Source\PSoC4/USBFS_std.c ****             #endif /*(USBFS_BOS_ENABLE)*/
 147:Generated_Source\PSoC4/USBFS_std.c ****             
 148:Generated_Source\PSoC4/USBFS_std.c ****             #if defined(USBFS_ENABLE_STRINGS)
 149:Generated_Source\PSoC4/USBFS_std.c ****                 else if (USBFS_DESCR_STRING == USBFS_wValueHiReg)
 150:Generated_Source\PSoC4/USBFS_std.c ****                 {
 151:Generated_Source\PSoC4/USBFS_std.c ****                 /* Descriptor Strings */
 152:Generated_Source\PSoC4/USBFS_std.c ****                 #if defined(USBFS_ENABLE_DESCRIPTOR_STRINGS)
 153:Generated_Source\PSoC4/USBFS_std.c ****                     nStr = 0u;
 154:Generated_Source\PSoC4/USBFS_std.c ****                     pStr = (volatile uint8 *) &USBFS_STRING_DESCRIPTORS[0u];
 155:Generated_Source\PSoC4/USBFS_std.c ****                     
 156:Generated_Source\PSoC4/USBFS_std.c ****                     while ((USBFS_wValueLoReg > nStr) && (*pStr != 0u))
 157:Generated_Source\PSoC4/USBFS_std.c ****                     {
 158:Generated_Source\PSoC4/USBFS_std.c ****                         /* Read descriptor length from 1st byte */
 159:Generated_Source\PSoC4/USBFS_std.c ****                         descrLength = *pStr;
 160:Generated_Source\PSoC4/USBFS_std.c ****                         /* Move to next string descriptor */
 161:Generated_Source\PSoC4/USBFS_std.c ****                         pStr = &pStr[descrLength];
 162:Generated_Source\PSoC4/USBFS_std.c ****                         nStr++;
 163:Generated_Source\PSoC4/USBFS_std.c ****                     }
 164:Generated_Source\PSoC4/USBFS_std.c ****                 #endif /* (USBFS_ENABLE_DESCRIPTOR_STRINGS) */
 165:Generated_Source\PSoC4/USBFS_std.c ****                 
 166:Generated_Source\PSoC4/USBFS_std.c ****                 /* Microsoft OS String */
 167:Generated_Source\PSoC4/USBFS_std.c ****                 #if defined(USBFS_ENABLE_MSOS_STRING)
 168:Generated_Source\PSoC4/USBFS_std.c ****                     if (USBFS_STRING_MSOS == USBFS_wValueLoReg)
 169:Generated_Source\PSoC4/USBFS_std.c ****                     {
 170:Generated_Source\PSoC4/USBFS_std.c ****                         pStr = (volatile uint8 *)& USBFS_MSOS_DESCRIPTOR[0u];
 171:Generated_Source\PSoC4/USBFS_std.c ****                     }
 172:Generated_Source\PSoC4/USBFS_std.c ****                 #endif /* (USBFS_ENABLE_MSOS_STRING) */
 173:Generated_Source\PSoC4/USBFS_std.c ****                 
 174:Generated_Source\PSoC4/USBFS_std.c ****                 /* SN string */
 175:Generated_Source\PSoC4/USBFS_std.c ****                 #if defined(USBFS_ENABLE_SN_STRING)
 176:Generated_Source\PSoC4/USBFS_std.c ****                     if ((USBFS_wValueLoReg != 0u) && 
 177:Generated_Source\PSoC4/USBFS_std.c ****                         (USBFS_wValueLoReg == USBFS_DEVICE0_DESCR[USBFS_DEVICE_DESCR_SN_SHIFT]))
 178:Generated_Source\PSoC4/USBFS_std.c ****                     {
 179:Generated_Source\PSoC4/USBFS_std.c ****                     #if defined(USBFS_ENABLE_IDSN_STRING)
 180:Generated_Source\PSoC4/USBFS_std.c ****                         /* Read DIE ID and generate string descriptor in RAM */
 181:Generated_Source\PSoC4/USBFS_std.c ****                         USBFS_ReadDieID(USBFS_idSerialNumberStringDescriptor);
 182:Generated_Source\PSoC4/USBFS_std.c ****                         pStr = USBFS_idSerialNumberStringDescriptor;
 183:Generated_Source\PSoC4/USBFS_std.c ****                     #elif defined(USBFS_ENABLE_FWSN_STRING)
 184:Generated_Source\PSoC4/USBFS_std.c ****                         
 185:Generated_Source\PSoC4/USBFS_std.c ****                         if(USBFS_snStringConfirm != USBFS_FALSE)
 186:Generated_Source\PSoC4/USBFS_std.c ****                         {
 187:Generated_Source\PSoC4/USBFS_std.c ****                             pStr = USBFS_fwSerialNumberStringDescriptor;
 188:Generated_Source\PSoC4/USBFS_std.c ****                         }
 189:Generated_Source\PSoC4/USBFS_std.c ****                         else
 190:Generated_Source\PSoC4/USBFS_std.c ****                         {
 191:Generated_Source\PSoC4/USBFS_std.c ****                             pStr = (volatile uint8 *)&USBFS_SN_STRING_DESCRIPTOR[0u];
 192:Generated_Source\PSoC4/USBFS_std.c ****                         }
 193:Generated_Source\PSoC4/USBFS_std.c ****                     #else
 194:Generated_Source\PSoC4/USBFS_std.c ****                         pStr = (volatile uint8 *)&USBFS_SN_STRING_DESCRIPTOR[0u];
 195:Generated_Source\PSoC4/USBFS_std.c ****                     #endif  /* (USBFS_ENABLE_IDSN_STRING) */
 196:Generated_Source\PSoC4/USBFS_std.c ****                     }
 197:Generated_Source\PSoC4/USBFS_std.c ****                 #endif /* (USBFS_ENABLE_SN_STRING) */
 198:Generated_Source\PSoC4/USBFS_std.c ****                 
 199:Generated_Source\PSoC4/USBFS_std.c ****                     if (*pStr != 0u)
 200:Generated_Source\PSoC4/USBFS_std.c ****                     {
 201:Generated_Source\PSoC4/USBFS_std.c ****                         USBFS_currentTD.count = *pStr;
ARM GAS  C:\Users\TERENC~1\AppData\Local\Temp\ccVnttLg.s 			page 5


 202:Generated_Source\PSoC4/USBFS_std.c ****                         USBFS_currentTD.pData = pStr;
 203:Generated_Source\PSoC4/USBFS_std.c ****                         requestHandled  = USBFS_InitControlRead();
 204:Generated_Source\PSoC4/USBFS_std.c ****                     }
 205:Generated_Source\PSoC4/USBFS_std.c ****                 }
 206:Generated_Source\PSoC4/USBFS_std.c ****             #endif /*  USBFS_ENABLE_STRINGS */
 207:Generated_Source\PSoC4/USBFS_std.c ****                 else
 208:Generated_Source\PSoC4/USBFS_std.c ****                 {
 209:Generated_Source\PSoC4/USBFS_std.c ****                     requestHandled = USBFS_DispatchClassRqst();
 210:Generated_Source\PSoC4/USBFS_std.c ****                 }
 211:Generated_Source\PSoC4/USBFS_std.c ****                 break;
 212:Generated_Source\PSoC4/USBFS_std.c ****                 
 213:Generated_Source\PSoC4/USBFS_std.c ****             case USBFS_GET_STATUS:
 214:Generated_Source\PSoC4/USBFS_std.c ****                 switch (bmRequestType & USBFS_RQST_RCPT_MASK)
 215:Generated_Source\PSoC4/USBFS_std.c ****                 {
 216:Generated_Source\PSoC4/USBFS_std.c ****                     case USBFS_RQST_RCPT_EP:
 217:Generated_Source\PSoC4/USBFS_std.c ****                         USBFS_currentTD.count = USBFS_EP_STATUS_LENGTH;
 218:Generated_Source\PSoC4/USBFS_std.c ****                         USBFS_tBuffer[0u]     = USBFS_EP[USBFS_wIndexLoReg & USBFS_DIR_UNUSED].hwEp
 219:Generated_Source\PSoC4/USBFS_std.c ****                         USBFS_tBuffer[1u]     = 0u;
 220:Generated_Source\PSoC4/USBFS_std.c ****                         USBFS_currentTD.pData = &USBFS_tBuffer[0u];
 221:Generated_Source\PSoC4/USBFS_std.c ****                         
 222:Generated_Source\PSoC4/USBFS_std.c ****                         requestHandled  = USBFS_InitControlRead();
 223:Generated_Source\PSoC4/USBFS_std.c ****                         break;
 224:Generated_Source\PSoC4/USBFS_std.c ****                     case USBFS_RQST_RCPT_DEV:
 225:Generated_Source\PSoC4/USBFS_std.c ****                         USBFS_currentTD.count = USBFS_DEVICE_STATUS_LENGTH;
 226:Generated_Source\PSoC4/USBFS_std.c ****                         USBFS_tBuffer[0u]     = USBFS_deviceStatus;
 227:Generated_Source\PSoC4/USBFS_std.c ****                         USBFS_tBuffer[1u]     = 0u;
 228:Generated_Source\PSoC4/USBFS_std.c ****                         USBFS_currentTD.pData = &USBFS_tBuffer[0u];
 229:Generated_Source\PSoC4/USBFS_std.c ****                         
 230:Generated_Source\PSoC4/USBFS_std.c ****                         requestHandled  = USBFS_InitControlRead();
 231:Generated_Source\PSoC4/USBFS_std.c ****                         break;
 232:Generated_Source\PSoC4/USBFS_std.c ****                     default:    /* requestHandled is initialized as FALSE by default */
 233:Generated_Source\PSoC4/USBFS_std.c ****                         break;
 234:Generated_Source\PSoC4/USBFS_std.c ****                 }
 235:Generated_Source\PSoC4/USBFS_std.c ****                 break;
 236:Generated_Source\PSoC4/USBFS_std.c ****                 
 237:Generated_Source\PSoC4/USBFS_std.c ****             case USBFS_GET_CONFIGURATION:
 238:Generated_Source\PSoC4/USBFS_std.c ****                 USBFS_currentTD.count = 1u;
 239:Generated_Source\PSoC4/USBFS_std.c ****                 USBFS_currentTD.pData = (volatile uint8 *) &USBFS_configuration;
 240:Generated_Source\PSoC4/USBFS_std.c ****                 requestHandled  = USBFS_InitControlRead();
 241:Generated_Source\PSoC4/USBFS_std.c ****                 break;
 242:Generated_Source\PSoC4/USBFS_std.c ****                 
 243:Generated_Source\PSoC4/USBFS_std.c ****             case USBFS_GET_INTERFACE:
 244:Generated_Source\PSoC4/USBFS_std.c ****                 USBFS_currentTD.count = 1u;
 245:Generated_Source\PSoC4/USBFS_std.c ****                 USBFS_currentTD.pData = (volatile uint8 *) &USBFS_interfaceSetting[USBFS_wIndexLoRe
 246:Generated_Source\PSoC4/USBFS_std.c ****                 requestHandled  = USBFS_InitControlRead();
 247:Generated_Source\PSoC4/USBFS_std.c ****                 break;
 248:Generated_Source\PSoC4/USBFS_std.c ****                 
 249:Generated_Source\PSoC4/USBFS_std.c ****             default: /* requestHandled is initialized as FALSE by default */
 250:Generated_Source\PSoC4/USBFS_std.c ****                 break;
 251:Generated_Source\PSoC4/USBFS_std.c ****         }
 252:Generated_Source\PSoC4/USBFS_std.c ****     }
 253:Generated_Source\PSoC4/USBFS_std.c ****     else
 254:Generated_Source\PSoC4/USBFS_std.c ****     {
 255:Generated_Source\PSoC4/USBFS_std.c ****         /* Control Write */
 256:Generated_Source\PSoC4/USBFS_std.c ****         switch (USBFS_bRequestReg)
 257:Generated_Source\PSoC4/USBFS_std.c ****         {
 258:Generated_Source\PSoC4/USBFS_std.c ****             case USBFS_SET_ADDRESS:
ARM GAS  C:\Users\TERENC~1\AppData\Local\Temp\ccVnttLg.s 			page 6


 259:Generated_Source\PSoC4/USBFS_std.c ****                 /* Store address to be set in USBFS_NoDataControlStatusStage(). */
 260:Generated_Source\PSoC4/USBFS_std.c ****                 USBFS_deviceAddress = (uint8) USBFS_wValueLoReg;
 261:Generated_Source\PSoC4/USBFS_std.c ****                 requestHandled = USBFS_InitNoDataControlTransfer();
 262:Generated_Source\PSoC4/USBFS_std.c ****                 break;
 263:Generated_Source\PSoC4/USBFS_std.c ****                 
 264:Generated_Source\PSoC4/USBFS_std.c ****             case USBFS_SET_CONFIGURATION:
 265:Generated_Source\PSoC4/USBFS_std.c ****                 configurationN = USBFS_wValueLoReg;
 266:Generated_Source\PSoC4/USBFS_std.c ****                 
 267:Generated_Source\PSoC4/USBFS_std.c ****                 /* Verify that configuration descriptor exists */
 268:Generated_Source\PSoC4/USBFS_std.c ****                 if(configurationN > 0u)
 269:Generated_Source\PSoC4/USBFS_std.c ****                 {
 270:Generated_Source\PSoC4/USBFS_std.c ****                     pTmp = USBFS_GetConfigTablePtr((uint8) configurationN - 1u);
 271:Generated_Source\PSoC4/USBFS_std.c ****                 }
 272:Generated_Source\PSoC4/USBFS_std.c ****                 
 273:Generated_Source\PSoC4/USBFS_std.c ****                 /* Responds with a Request Error when configuration number is invalid */
 274:Generated_Source\PSoC4/USBFS_std.c ****                 if (((configurationN > 0u) && (pTmp != NULL)) || (configurationN == 0u))
 275:Generated_Source\PSoC4/USBFS_std.c ****                 {
 276:Generated_Source\PSoC4/USBFS_std.c ****                     /* Set new configuration if it has been changed */
 277:Generated_Source\PSoC4/USBFS_std.c ****                     if(configurationN != USBFS_configuration)
 278:Generated_Source\PSoC4/USBFS_std.c ****                     {
 279:Generated_Source\PSoC4/USBFS_std.c ****                         USBFS_configuration = (uint8) configurationN;
 280:Generated_Source\PSoC4/USBFS_std.c ****                         USBFS_configurationChanged = USBFS_TRUE;
 281:Generated_Source\PSoC4/USBFS_std.c ****                         USBFS_Config(USBFS_TRUE);
 282:Generated_Source\PSoC4/USBFS_std.c ****                     }
 283:Generated_Source\PSoC4/USBFS_std.c ****                     requestHandled = USBFS_InitNoDataControlTransfer();
 284:Generated_Source\PSoC4/USBFS_std.c ****                 }
 285:Generated_Source\PSoC4/USBFS_std.c ****                 break;
 286:Generated_Source\PSoC4/USBFS_std.c ****                 
 287:Generated_Source\PSoC4/USBFS_std.c ****             case USBFS_SET_INTERFACE:
 288:Generated_Source\PSoC4/USBFS_std.c ****                 if (0u != USBFS_ValidateAlternateSetting())
 289:Generated_Source\PSoC4/USBFS_std.c ****                 {
 290:Generated_Source\PSoC4/USBFS_std.c ****                     /* Get interface number from the request. */
 291:Generated_Source\PSoC4/USBFS_std.c ****                     interfaceNumber = USBFS_wIndexLoReg;
 292:Generated_Source\PSoC4/USBFS_std.c ****                     USBFS_interfaceNumber = (uint8) USBFS_wIndexLoReg;
 293:Generated_Source\PSoC4/USBFS_std.c ****                      
 294:Generated_Source\PSoC4/USBFS_std.c ****                     /* Check if alternate settings is changed for interface. */
 295:Generated_Source\PSoC4/USBFS_std.c ****                     if (USBFS_interfaceSettingLast[interfaceNumber] != USBFS_interfaceSetting[inter
 296:Generated_Source\PSoC4/USBFS_std.c ****                     {
 297:Generated_Source\PSoC4/USBFS_std.c ****                         USBFS_configurationChanged = USBFS_TRUE;
 298:Generated_Source\PSoC4/USBFS_std.c ****                     
 299:Generated_Source\PSoC4/USBFS_std.c ****                         /* Change alternate setting for the endpoints. */
 300:Generated_Source\PSoC4/USBFS_std.c ****                     #if (USBFS_EP_MANAGEMENT_MANUAL && USBFS_EP_ALLOC_DYNAMIC)
 301:Generated_Source\PSoC4/USBFS_std.c ****                         USBFS_Config(USBFS_FALSE);
 302:Generated_Source\PSoC4/USBFS_std.c ****                     #else
 303:Generated_Source\PSoC4/USBFS_std.c ****                         USBFS_ConfigAltChanged();
 304:Generated_Source\PSoC4/USBFS_std.c ****                     #endif /* (USBFS_EP_MANAGEMENT_MANUAL && USBFS_EP_ALLOC_DYNAMIC) */
 305:Generated_Source\PSoC4/USBFS_std.c ****                     }
 306:Generated_Source\PSoC4/USBFS_std.c ****                     
 307:Generated_Source\PSoC4/USBFS_std.c ****                     requestHandled = USBFS_InitNoDataControlTransfer();
 308:Generated_Source\PSoC4/USBFS_std.c ****                 }
 309:Generated_Source\PSoC4/USBFS_std.c ****                 break;
 310:Generated_Source\PSoC4/USBFS_std.c ****                 
 311:Generated_Source\PSoC4/USBFS_std.c ****             case USBFS_CLEAR_FEATURE:
 312:Generated_Source\PSoC4/USBFS_std.c ****                 switch (bmRequestType & USBFS_RQST_RCPT_MASK)
 313:Generated_Source\PSoC4/USBFS_std.c ****                 {
 314:Generated_Source\PSoC4/USBFS_std.c ****                     case USBFS_RQST_RCPT_EP:
 315:Generated_Source\PSoC4/USBFS_std.c ****                         if (USBFS_wValueLoReg == USBFS_ENDPOINT_HALT)
ARM GAS  C:\Users\TERENC~1\AppData\Local\Temp\ccVnttLg.s 			page 7


 316:Generated_Source\PSoC4/USBFS_std.c ****                         {
 317:Generated_Source\PSoC4/USBFS_std.c ****                             requestHandled = USBFS_ClearEndpointHalt();
 318:Generated_Source\PSoC4/USBFS_std.c ****                         }
 319:Generated_Source\PSoC4/USBFS_std.c ****                         break;
 320:Generated_Source\PSoC4/USBFS_std.c ****                     case USBFS_RQST_RCPT_DEV:
 321:Generated_Source\PSoC4/USBFS_std.c ****                         /* Clear device REMOTE_WAKEUP */
 322:Generated_Source\PSoC4/USBFS_std.c ****                         if (USBFS_wValueLoReg == USBFS_DEVICE_REMOTE_WAKEUP)
 323:Generated_Source\PSoC4/USBFS_std.c ****                         {
 324:Generated_Source\PSoC4/USBFS_std.c ****                             USBFS_deviceStatus &= (uint8)~USBFS_DEVICE_STATUS_REMOTE_WAKEUP;
 325:Generated_Source\PSoC4/USBFS_std.c ****                             requestHandled = USBFS_InitNoDataControlTransfer();
 326:Generated_Source\PSoC4/USBFS_std.c ****                         }
 327:Generated_Source\PSoC4/USBFS_std.c ****                         break;
 328:Generated_Source\PSoC4/USBFS_std.c ****                     case USBFS_RQST_RCPT_IFC:
 329:Generated_Source\PSoC4/USBFS_std.c ****                         /* Validate interfaceNumber */
 330:Generated_Source\PSoC4/USBFS_std.c ****                         if (USBFS_wIndexLoReg < USBFS_MAX_INTERFACES_NUMBER)
 331:Generated_Source\PSoC4/USBFS_std.c ****                         {
 332:Generated_Source\PSoC4/USBFS_std.c ****                             USBFS_interfaceStatus[USBFS_wIndexLoReg] &= (uint8) ~USBFS_wValueLoReg;
 333:Generated_Source\PSoC4/USBFS_std.c ****                             requestHandled = USBFS_InitNoDataControlTransfer();
 334:Generated_Source\PSoC4/USBFS_std.c ****                         }
 335:Generated_Source\PSoC4/USBFS_std.c ****                         break;
 336:Generated_Source\PSoC4/USBFS_std.c ****                     default:    /* requestHandled is initialized as FALSE by default */
 337:Generated_Source\PSoC4/USBFS_std.c ****                         break;
 338:Generated_Source\PSoC4/USBFS_std.c ****                 }
 339:Generated_Source\PSoC4/USBFS_std.c ****                 break;
 340:Generated_Source\PSoC4/USBFS_std.c ****                 
 341:Generated_Source\PSoC4/USBFS_std.c ****             case USBFS_SET_FEATURE:
 342:Generated_Source\PSoC4/USBFS_std.c ****                 switch (bmRequestType & USBFS_RQST_RCPT_MASK)
 343:Generated_Source\PSoC4/USBFS_std.c ****                 {
 344:Generated_Source\PSoC4/USBFS_std.c ****                     case USBFS_RQST_RCPT_EP:
 345:Generated_Source\PSoC4/USBFS_std.c ****                         if (USBFS_wValueLoReg == USBFS_ENDPOINT_HALT)
 346:Generated_Source\PSoC4/USBFS_std.c ****                         {
 347:Generated_Source\PSoC4/USBFS_std.c ****                             requestHandled = USBFS_SetEndpointHalt();
 348:Generated_Source\PSoC4/USBFS_std.c ****                         }
 349:Generated_Source\PSoC4/USBFS_std.c ****                         break;
 350:Generated_Source\PSoC4/USBFS_std.c ****                         
 351:Generated_Source\PSoC4/USBFS_std.c ****                     case USBFS_RQST_RCPT_DEV:
 352:Generated_Source\PSoC4/USBFS_std.c ****                         /* Set device REMOTE_WAKEUP */
 353:Generated_Source\PSoC4/USBFS_std.c ****                         if (USBFS_wValueLoReg == USBFS_DEVICE_REMOTE_WAKEUP)
 354:Generated_Source\PSoC4/USBFS_std.c ****                         {
 355:Generated_Source\PSoC4/USBFS_std.c ****                             USBFS_deviceStatus |= USBFS_DEVICE_STATUS_REMOTE_WAKEUP;
 356:Generated_Source\PSoC4/USBFS_std.c ****                             requestHandled = USBFS_InitNoDataControlTransfer();
 357:Generated_Source\PSoC4/USBFS_std.c ****                         }
 358:Generated_Source\PSoC4/USBFS_std.c ****                         break;
 359:Generated_Source\PSoC4/USBFS_std.c ****                         
 360:Generated_Source\PSoC4/USBFS_std.c ****                     case USBFS_RQST_RCPT_IFC:
 361:Generated_Source\PSoC4/USBFS_std.c ****                         /* Validate interfaceNumber */
 362:Generated_Source\PSoC4/USBFS_std.c ****                         if (USBFS_wIndexLoReg < USBFS_MAX_INTERFACES_NUMBER)
 363:Generated_Source\PSoC4/USBFS_std.c ****                         {
 364:Generated_Source\PSoC4/USBFS_std.c ****                             USBFS_interfaceStatus[USBFS_wIndexLoReg] &= (uint8) ~USBFS_wValueLoReg;
 365:Generated_Source\PSoC4/USBFS_std.c ****                             requestHandled = USBFS_InitNoDataControlTransfer();
 366:Generated_Source\PSoC4/USBFS_std.c ****                         }
 367:Generated_Source\PSoC4/USBFS_std.c ****                         break;
 368:Generated_Source\PSoC4/USBFS_std.c ****                     
 369:Generated_Source\PSoC4/USBFS_std.c ****                     default:    /* requestHandled is initialized as FALSE by default */
 370:Generated_Source\PSoC4/USBFS_std.c ****                         break;
 371:Generated_Source\PSoC4/USBFS_std.c ****                 }
 372:Generated_Source\PSoC4/USBFS_std.c ****                 break;
ARM GAS  C:\Users\TERENC~1\AppData\Local\Temp\ccVnttLg.s 			page 8


 373:Generated_Source\PSoC4/USBFS_std.c ****                 
 374:Generated_Source\PSoC4/USBFS_std.c ****             default:    /* requestHandled is initialized as FALSE by default */
 375:Generated_Source\PSoC4/USBFS_std.c ****                 break;
 376:Generated_Source\PSoC4/USBFS_std.c ****         }
 377:Generated_Source\PSoC4/USBFS_std.c ****     }
 378:Generated_Source\PSoC4/USBFS_std.c ****     
 379:Generated_Source\PSoC4/USBFS_std.c ****     return (requestHandled);
 380:Generated_Source\PSoC4/USBFS_std.c **** }
 381:Generated_Source\PSoC4/USBFS_std.c **** 
 382:Generated_Source\PSoC4/USBFS_std.c **** 
 383:Generated_Source\PSoC4/USBFS_std.c **** #if defined(USBFS_ENABLE_IDSN_STRING)
 384:Generated_Source\PSoC4/USBFS_std.c ****     /***************************************************************************
 385:Generated_Source\PSoC4/USBFS_std.c ****     * Function Name: USBFS_ReadDieID
 386:Generated_Source\PSoC4/USBFS_std.c ****     ************************************************************************//**
 387:Generated_Source\PSoC4/USBFS_std.c ****     *
 388:Generated_Source\PSoC4/USBFS_std.c ****     *  This routine read Die ID and generate Serial Number string descriptor.
 389:Generated_Source\PSoC4/USBFS_std.c ****     *
 390:Generated_Source\PSoC4/USBFS_std.c ****     *  \param descr:  pointer on string descriptor. This string size has to be equal or
 391:Generated_Source\PSoC4/USBFS_std.c ****     *          greater than USBFS_IDSN_DESCR_LENGTH.
 392:Generated_Source\PSoC4/USBFS_std.c ****     *
 393:Generated_Source\PSoC4/USBFS_std.c ****     *
 394:Generated_Source\PSoC4/USBFS_std.c ****     * \reentrant
 395:Generated_Source\PSoC4/USBFS_std.c ****     *  No.
 396:Generated_Source\PSoC4/USBFS_std.c ****     *
 397:Generated_Source\PSoC4/USBFS_std.c ****     ***************************************************************************/
 398:Generated_Source\PSoC4/USBFS_std.c ****     void USBFS_ReadDieID(uint8 descr[]) 
 399:Generated_Source\PSoC4/USBFS_std.c ****     {
  28              		.loc 1 399 0
  29              		.cfi_startproc
  30              		@ args = 0, pretend = 0, frame = 32
  31              		@ frame_needed = 0, uses_anonymous_args = 0
  32              	.LVL0:
  33 0000 F0B5     		push	{r4, r5, r6, r7, lr}
  34              		.cfi_def_cfa_offset 20
  35              		.cfi_offset 4, -20
  36              		.cfi_offset 5, -16
  37              		.cfi_offset 6, -12
  38              		.cfi_offset 7, -8
  39              		.cfi_offset 14, -4
  40 0002 89B0     		sub	sp, sp, #36
  41              		.cfi_def_cfa_offset 56
  42 0004 0400     		movs	r4, r0
 400:Generated_Source\PSoC4/USBFS_std.c ****         const char8 CYCODE hex[] = "0123456789ABCDEF";
  43              		.loc 1 400 0
  44 0006 03AB     		add	r3, sp, #12
  45 0008 154A     		ldr	r2, .L5
  46 000a 23CA     		ldmia	r2!, {r0, r1, r5}
  47 000c 23C3     		stmia	r3!, {r0, r1, r5}
  48              	.LVL1:
  49 000e 1900     		movs	r1, r3
  50 0010 1368     		ldr	r3, [r2]
  51 0012 0B60     		str	r3, [r1]
  52 0014 1379     		ldrb	r3, [r2, #4]
  53 0016 0B71     		strb	r3, [r1, #4]
  54              	.LVL2:
 401:Generated_Source\PSoC4/USBFS_std.c ****         uint32 i;
 402:Generated_Source\PSoC4/USBFS_std.c ****         uint32 j = 0u;
ARM GAS  C:\Users\TERENC~1\AppData\Local\Temp\ccVnttLg.s 			page 9


 403:Generated_Source\PSoC4/USBFS_std.c ****         uint8 uniqueId[8u];
 404:Generated_Source\PSoC4/USBFS_std.c **** 
 405:Generated_Source\PSoC4/USBFS_std.c ****         if (NULL != descr)
  55              		.loc 1 405 0
  56 0018 002C     		cmp	r4, #0
  57 001a 1FD0     		beq	.L1
 406:Generated_Source\PSoC4/USBFS_std.c ****         {
 407:Generated_Source\PSoC4/USBFS_std.c ****             /* Initialize descriptor header. */
 408:Generated_Source\PSoC4/USBFS_std.c ****             descr[0u] = USBFS_IDSN_DESCR_LENGTH;
  58              		.loc 1 408 0
  59 001c 2223     		movs	r3, #34
  60 001e 2370     		strb	r3, [r4]
 409:Generated_Source\PSoC4/USBFS_std.c ****             descr[1u] = USBFS_DESCR_STRING;
  61              		.loc 1 409 0
  62 0020 1F3B     		subs	r3, r3, #31
  63 0022 6370     		strb	r3, [r4, #1]
 410:Generated_Source\PSoC4/USBFS_std.c ****             
 411:Generated_Source\PSoC4/USBFS_std.c ****             /* Unique ID size is 8 bytes. */
 412:Generated_Source\PSoC4/USBFS_std.c ****             CyGetUniqueId((uint32 *) uniqueId);
  64              		.loc 1 412 0
  65 0024 01A8     		add	r0, sp, #4
  66 0026 FFF7FEFF 		bl	CyGetUniqueId
  67              	.LVL3:
 402:Generated_Source\PSoC4/USBFS_std.c ****         uint8 uniqueId[8u];
  68              		.loc 1 402 0
  69 002a 0020     		movs	r0, #0
 413:Generated_Source\PSoC4/USBFS_std.c **** 
 414:Generated_Source\PSoC4/USBFS_std.c ****             /* Fill descriptor with unique device ID. */
 415:Generated_Source\PSoC4/USBFS_std.c ****             for (i = 2u; i < USBFS_IDSN_DESCR_LENGTH; i += 4u)
  70              		.loc 1 415 0
  71 002c 0223     		movs	r3, #2
  72 002e 13E0     		b	.L3
  73              	.LVL4:
  74              	.L4:
 416:Generated_Source\PSoC4/USBFS_std.c ****             {
 417:Generated_Source\PSoC4/USBFS_std.c ****                 descr[i]      = (uint8) hex[(uniqueId[j] >> 4u)];
  75              		.loc 1 417 0 discriminator 3
  76 0030 01AA     		add	r2, sp, #4
  77 0032 125C     		ldrb	r2, [r2, r0]
  78 0034 1109     		lsrs	r1, r2, #4
  79 0036 03AD     		add	r5, sp, #12
  80 0038 695C     		ldrb	r1, [r5, r1]
  81 003a E154     		strb	r1, [r4, r3]
 418:Generated_Source\PSoC4/USBFS_std.c ****                 descr[i + 1u] = 0u;
  82              		.loc 1 418 0 discriminator 3
  83 003c 591C     		adds	r1, r3, #1
  84 003e 6118     		adds	r1, r4, r1
  85 0040 0026     		movs	r6, #0
  86 0042 0E70     		strb	r6, [r1]
 419:Generated_Source\PSoC4/USBFS_std.c ****                 descr[i + 2u] = (uint8) hex[(uniqueId[j] & 0x0Fu)];
  87              		.loc 1 419 0 discriminator 3
  88 0044 991C     		adds	r1, r3, #2
  89 0046 0F27     		movs	r7, #15
  90 0048 3A40     		ands	r2, r7
  91 004a AA5C     		ldrb	r2, [r5, r2]
  92 004c 6254     		strb	r2, [r4, r1]
 420:Generated_Source\PSoC4/USBFS_std.c ****                 descr[i + 3u] = 0u;
ARM GAS  C:\Users\TERENC~1\AppData\Local\Temp\ccVnttLg.s 			page 10


  93              		.loc 1 420 0 discriminator 3
  94 004e DA1C     		adds	r2, r3, #3
  95 0050 A218     		adds	r2, r4, r2
  96 0052 1670     		strb	r6, [r2]
 421:Generated_Source\PSoC4/USBFS_std.c ****                 ++j;
  97              		.loc 1 421 0 discriminator 3
  98 0054 0130     		adds	r0, r0, #1
  99              	.LVL5:
 415:Generated_Source\PSoC4/USBFS_std.c ****             {
 100              		.loc 1 415 0 discriminator 3
 101 0056 0433     		adds	r3, r3, #4
 102              	.LVL6:
 103              	.L3:
 415:Generated_Source\PSoC4/USBFS_std.c ****             {
 104              		.loc 1 415 0 is_stmt 0 discriminator 1
 105 0058 212B     		cmp	r3, #33
 106 005a E9D9     		bls	.L4
 107              	.LVL7:
 108              	.L1:
 422:Generated_Source\PSoC4/USBFS_std.c ****             }
 423:Generated_Source\PSoC4/USBFS_std.c ****         }
 424:Generated_Source\PSoC4/USBFS_std.c ****     }
 109              		.loc 1 424 0 is_stmt 1
 110 005c 09B0     		add	sp, sp, #36
 111              		@ sp needed
 112              	.LVL8:
 113 005e F0BD     		pop	{r4, r5, r6, r7, pc}
 114              	.L6:
 115              		.align	2
 116              	.L5:
 117 0060 00000000 		.word	.LC0
 118              		.cfi_endproc
 119              	.LFE162:
 120              		.size	USBFS_ReadDieID, .-USBFS_ReadDieID
 121              		.section	.text.USBFS_ConfigReg,"ax",%progbits
 122              		.align	2
 123              		.global	USBFS_ConfigReg
 124              		.code	16
 125              		.thumb_func
 126              		.type	USBFS_ConfigReg, %function
 127              	USBFS_ConfigReg:
 128              	.LFB163:
 425:Generated_Source\PSoC4/USBFS_std.c **** #endif /* (USBFS_ENABLE_IDSN_STRING) */
 426:Generated_Source\PSoC4/USBFS_std.c **** 
 427:Generated_Source\PSoC4/USBFS_std.c **** 
 428:Generated_Source\PSoC4/USBFS_std.c **** /*******************************************************************************
 429:Generated_Source\PSoC4/USBFS_std.c **** * Function Name: USBFS_ConfigReg
 430:Generated_Source\PSoC4/USBFS_std.c **** ****************************************************************************//**
 431:Generated_Source\PSoC4/USBFS_std.c **** *
 432:Generated_Source\PSoC4/USBFS_std.c **** *  This routine configures hardware registers from the variables.
 433:Generated_Source\PSoC4/USBFS_std.c **** *  It is called from USBFS_Config() function and from RestoreConfig
 434:Generated_Source\PSoC4/USBFS_std.c **** *  after Wakeup.
 435:Generated_Source\PSoC4/USBFS_std.c **** *
 436:Generated_Source\PSoC4/USBFS_std.c **** *******************************************************************************/
 437:Generated_Source\PSoC4/USBFS_std.c **** void USBFS_ConfigReg(void) 
 438:Generated_Source\PSoC4/USBFS_std.c **** {
 129              		.loc 1 438 0
ARM GAS  C:\Users\TERENC~1\AppData\Local\Temp\ccVnttLg.s 			page 11


 130              		.cfi_startproc
 131              		@ args = 0, pretend = 0, frame = 0
 132              		@ frame_needed = 0, uses_anonymous_args = 0
 133 0000 10B5     		push	{r4, lr}
 134              		.cfi_def_cfa_offset 8
 135              		.cfi_offset 4, -8
 136              		.cfi_offset 14, -4
 137              	.LVL9:
 439:Generated_Source\PSoC4/USBFS_std.c ****     uint32 ep;
 440:Generated_Source\PSoC4/USBFS_std.c **** 
 441:Generated_Source\PSoC4/USBFS_std.c **** #if (USBFS_EP_MANAGEMENT_DMA_AUTO)
 442:Generated_Source\PSoC4/USBFS_std.c ****     uint8 epType = 0u;
 138              		.loc 1 442 0
 139 0002 0020     		movs	r0, #0
 443:Generated_Source\PSoC4/USBFS_std.c **** #endif /* (USBFS_EP_MANAGEMENT_DMA_AUTO) */
 444:Generated_Source\PSoC4/USBFS_std.c **** 
 445:Generated_Source\PSoC4/USBFS_std.c ****     /* Go thought all endpoints and set hardware configuration */
 446:Generated_Source\PSoC4/USBFS_std.c ****     for (ep = USBFS_EP1; ep < USBFS_MAX_EP; ++ep)
 140              		.loc 1 446 0
 141 0004 0123     		movs	r3, #1
 142 0006 35E0     		b	.L8
 143              	.LVL10:
 144              	.L12:
 447:Generated_Source\PSoC4/USBFS_std.c ****     {
 448:Generated_Source\PSoC4/USBFS_std.c ****         USBFS_ARB_EP_BASE.arbEp[ep].epCfg = USBFS_ARB_EPX_CFG_DEFAULT;
 145              		.loc 1 448 0
 146 0008 9A01     		lsls	r2, r3, #6
 147 000a 0C24     		movs	r4, #12
 148 000c 2649     		ldr	r1, .L13
 149 000e 5450     		str	r4, [r2, r1]
 449:Generated_Source\PSoC4/USBFS_std.c ****         
 450:Generated_Source\PSoC4/USBFS_std.c ****     #if (USBFS_EP_MANAGEMENT_DMA)
 451:Generated_Source\PSoC4/USBFS_std.c ****         /* Enable arbiter endpoint interrupt sources */
 452:Generated_Source\PSoC4/USBFS_std.c ****         USBFS_ARB_EP_BASE.arbEp[ep].epIntEn = USBFS_ARB_EPX_INT_MASK;
 150              		.loc 1 452 0
 151 0010 8C46     		mov	ip, r1
 152 0012 6244     		add	r2, r2, ip
 153 0014 3D21     		movs	r1, #61
 154 0016 5160     		str	r1, [r2, #4]
 453:Generated_Source\PSoC4/USBFS_std.c ****     #endif /* (USBFS_EP_MANAGEMENT_DMA) */
 454:Generated_Source\PSoC4/USBFS_std.c ****     
 455:Generated_Source\PSoC4/USBFS_std.c ****         if (USBFS_EP[ep].epMode != USBFS_MODE_DISABLE)
 155              		.loc 1 455 0
 156 0018 5900     		lsls	r1, r3, #1
 157 001a C918     		adds	r1, r1, r3
 158 001c 8A00     		lsls	r2, r1, #2
 159 001e 2349     		ldr	r1, .L13+4
 160 0020 8A18     		adds	r2, r1, r2
 161 0022 5279     		ldrb	r2, [r2, #5]
 162 0024 002A     		cmp	r2, #0
 163 0026 1ED0     		beq	.L9
 456:Generated_Source\PSoC4/USBFS_std.c ****         {
 457:Generated_Source\PSoC4/USBFS_std.c ****             if (0u != (USBFS_EP[ep].addr & USBFS_DIR_IN))
 164              		.loc 1 457 0
 165 0028 5900     		lsls	r1, r3, #1
 166 002a C918     		adds	r1, r1, r3
 167 002c 8A00     		lsls	r2, r1, #2
ARM GAS  C:\Users\TERENC~1\AppData\Local\Temp\ccVnttLg.s 			page 12


 168 002e 1F49     		ldr	r1, .L13+4
 169 0030 8A18     		adds	r2, r1, r2
 170 0032 1279     		ldrb	r2, [r2, #4]
 171 0034 52B2     		sxtb	r2, r2
 172 0036 002A     		cmp	r2, #0
 173 0038 09DA     		bge	.L10
 458:Generated_Source\PSoC4/USBFS_std.c ****             {
 459:Generated_Source\PSoC4/USBFS_std.c ****                 USBFS_SIE_EP_BASE.sieEp[ep].epCr0 = USBFS_MODE_NAK_IN;
 174              		.loc 1 459 0
 175 003a 9A01     		lsls	r2, r3, #6
 176 003c 1C49     		ldr	r1, .L13+8
 177 003e 5118     		adds	r1, r2, r1
 178 0040 8C60     		str	r4, [r1, #8]
 460:Generated_Source\PSoC4/USBFS_std.c ****                 
 461:Generated_Source\PSoC4/USBFS_std.c ****             #if (USBFS_EP_MANAGEMENT_DMA_AUTO && CY_PSOC4)
 462:Generated_Source\PSoC4/USBFS_std.c ****                 /* Clear DMA_TERMIN for IN endpoint. */
 463:Generated_Source\PSoC4/USBFS_std.c ****                 USBFS_ARB_EP_BASE.arbEp[ep].epIntEn &= (uint32) ~USBFS_ARB_EPX_INT_DMA_TERMIN;
 179              		.loc 1 463 0
 180 0042 6244     		add	r2, r2, ip
 181 0044 5168     		ldr	r1, [r2, #4]
 182 0046 1434     		adds	r4, r4, #20
 183 0048 A143     		bics	r1, r4
 184 004a 5160     		str	r1, [r2, #4]
 185 004c 11E0     		b	.L11
 186              	.L10:
 464:Generated_Source\PSoC4/USBFS_std.c ****             #endif /* (USBFS_EP_MANAGEMENT_DMA_AUTO && CY_PSOC4) */
 465:Generated_Source\PSoC4/USBFS_std.c ****             }
 466:Generated_Source\PSoC4/USBFS_std.c ****             else
 467:Generated_Source\PSoC4/USBFS_std.c ****             {
 468:Generated_Source\PSoC4/USBFS_std.c ****                 USBFS_SIE_EP_BASE.sieEp[ep].epCr0 = USBFS_MODE_NAK_OUT;
 187              		.loc 1 468 0
 188 004e 9A01     		lsls	r2, r3, #6
 189 0050 1749     		ldr	r1, .L13+8
 190 0052 8C46     		mov	ip, r1
 191 0054 6244     		add	r2, r2, ip
 192 0056 0821     		movs	r1, #8
 193 0058 9160     		str	r1, [r2, #8]
 469:Generated_Source\PSoC4/USBFS_std.c **** 
 470:Generated_Source\PSoC4/USBFS_std.c ****             #if (USBFS_EP_MANAGEMENT_DMA_AUTO)
 471:Generated_Source\PSoC4/USBFS_std.c ****                 /* (CY_PSOC4): DMA_TERMIN for OUT endpoint is set above. */
 472:Generated_Source\PSoC4/USBFS_std.c ****                 
 473:Generated_Source\PSoC4/USBFS_std.c ****                 /* Prepare endpoint type mask. */
 474:Generated_Source\PSoC4/USBFS_std.c ****                 epType |= (uint8) (0x01u << (ep - USBFS_EP1));
 194              		.loc 1 474 0
 195 005a 591E     		subs	r1, r3, #1
 196 005c 0122     		movs	r2, #1
 197 005e 8A40     		lsls	r2, r2, r1
 198 0060 0243     		orrs	r2, r0
 199 0062 D0B2     		uxtb	r0, r2
 200              	.LVL11:
 201 0064 05E0     		b	.L11
 202              	.L9:
 475:Generated_Source\PSoC4/USBFS_std.c ****             #endif /* (USBFS_EP_MANAGEMENT_DMA_AUTO) */
 476:Generated_Source\PSoC4/USBFS_std.c ****             }
 477:Generated_Source\PSoC4/USBFS_std.c ****         }
 478:Generated_Source\PSoC4/USBFS_std.c ****         else
 479:Generated_Source\PSoC4/USBFS_std.c ****         {
ARM GAS  C:\Users\TERENC~1\AppData\Local\Temp\ccVnttLg.s 			page 13


 480:Generated_Source\PSoC4/USBFS_std.c ****             USBFS_SIE_EP_BASE.sieEp[ep].epCr0 = USBFS_MODE_STALL_DATA_EP;
 203              		.loc 1 480 0
 204 0066 9A01     		lsls	r2, r3, #6
 205 0068 1149     		ldr	r1, .L13+8
 206 006a 8C46     		mov	ip, r1
 207 006c 6244     		add	r2, r2, ip
 208 006e 8021     		movs	r1, #128
 209 0070 9160     		str	r1, [r2, #8]
 210              	.L11:
 446:Generated_Source\PSoC4/USBFS_std.c ****     {
 211              		.loc 1 446 0 discriminator 2
 212 0072 0133     		adds	r3, r3, #1
 213              	.LVL12:
 214              	.L8:
 446:Generated_Source\PSoC4/USBFS_std.c ****     {
 215              		.loc 1 446 0 is_stmt 0 discriminator 1
 216 0074 082B     		cmp	r3, #8
 217 0076 C7D9     		bls	.L12
 481:Generated_Source\PSoC4/USBFS_std.c ****         }
 482:Generated_Source\PSoC4/USBFS_std.c ****         
 483:Generated_Source\PSoC4/USBFS_std.c ****     #if (!USBFS_EP_MANAGEMENT_DMA_AUTO)
 484:Generated_Source\PSoC4/USBFS_std.c ****         #if (CY_PSOC4)
 485:Generated_Source\PSoC4/USBFS_std.c ****             USBFS_ARB_EP16_BASE.arbEp[ep].rwRa16  = (uint32) USBFS_EP[ep].buffOffset;
 486:Generated_Source\PSoC4/USBFS_std.c ****             USBFS_ARB_EP16_BASE.arbEp[ep].rwWa16  = (uint32) USBFS_EP[ep].buffOffset;
 487:Generated_Source\PSoC4/USBFS_std.c ****         #else
 488:Generated_Source\PSoC4/USBFS_std.c ****             USBFS_ARB_EP_BASE.arbEp[ep].rwRa    = LO8(USBFS_EP[ep].buffOffset);
 489:Generated_Source\PSoC4/USBFS_std.c ****             USBFS_ARB_EP_BASE.arbEp[ep].rwRaMsb = HI8(USBFS_EP[ep].buffOffset);
 490:Generated_Source\PSoC4/USBFS_std.c ****             USBFS_ARB_EP_BASE.arbEp[ep].rwWa    = LO8(USBFS_EP[ep].buffOffset);
 491:Generated_Source\PSoC4/USBFS_std.c ****             USBFS_ARB_EP_BASE.arbEp[ep].rwWaMsb = HI8(USBFS_EP[ep].buffOffset);
 492:Generated_Source\PSoC4/USBFS_std.c ****         #endif /* (CY_PSOC4) */
 493:Generated_Source\PSoC4/USBFS_std.c ****     #endif /* (!USBFS_EP_MANAGEMENT_DMA_AUTO) */
 494:Generated_Source\PSoC4/USBFS_std.c ****     }
 495:Generated_Source\PSoC4/USBFS_std.c **** 
 496:Generated_Source\PSoC4/USBFS_std.c **** #if (USBFS_EP_MANAGEMENT_DMA_AUTO)
 497:Generated_Source\PSoC4/USBFS_std.c ****      /* BUF_SIZE depend on DMA_THRESS value:0x55-32 bytes  0x44-16 bytes 0x33-8 bytes 0x22-4 bytes 
 498:Generated_Source\PSoC4/USBFS_std.c ****     USBFS_BUF_SIZE_REG = USBFS_DMA_BUF_SIZE;
 218              		.loc 1 498 0 is_stmt 1
 219 0078 5522     		movs	r2, #85
 220 007a 0E4B     		ldr	r3, .L13+12
 221              	.LVL13:
 222 007c 1A60     		str	r2, [r3]
 499:Generated_Source\PSoC4/USBFS_std.c **** 
 500:Generated_Source\PSoC4/USBFS_std.c ****     /* Configure DMA burst threshold */
 501:Generated_Source\PSoC4/USBFS_std.c **** #if (CY_PSOC4)
 502:Generated_Source\PSoC4/USBFS_std.c ****     USBFS_DMA_THRES16_REG   = USBFS_DMA_BYTES_PER_BURST;
 223              		.loc 1 502 0
 224 007e 353A     		subs	r2, r2, #53
 225 0080 0D4B     		ldr	r3, .L13+16
 226 0082 1A60     		str	r2, [r3]
 503:Generated_Source\PSoC4/USBFS_std.c **** #else
 504:Generated_Source\PSoC4/USBFS_std.c ****     USBFS_DMA_THRES_REG     = USBFS_DMA_BYTES_PER_BURST;
 505:Generated_Source\PSoC4/USBFS_std.c ****     USBFS_DMA_THRES_MSB_REG = 0u;
 506:Generated_Source\PSoC4/USBFS_std.c **** #endif /* (CY_PSOC4) */
 507:Generated_Source\PSoC4/USBFS_std.c ****     USBFS_EP_ACTIVE_REG = USBFS_DEFAULT_ARB_INT_EN;
 227              		.loc 1 507 0
 228 0084 0F32     		adds	r2, r2, #15
 229 0086 0D4B     		ldr	r3, .L13+20
ARM GAS  C:\Users\TERENC~1\AppData\Local\Temp\ccVnttLg.s 			page 14


 230 0088 1A60     		str	r2, [r3]
 508:Generated_Source\PSoC4/USBFS_std.c ****     USBFS_EP_TYPE_REG   = epType;
 231              		.loc 1 508 0
 232 008a 0D4B     		ldr	r3, .L13+24
 233 008c 1860     		str	r0, [r3]
 509:Generated_Source\PSoC4/USBFS_std.c ****     
 510:Generated_Source\PSoC4/USBFS_std.c ****     /* Cfg_cmp bit set to 1 once configuration is complete. */
 511:Generated_Source\PSoC4/USBFS_std.c ****     /* Lock arbiter configtuation */
 512:Generated_Source\PSoC4/USBFS_std.c ****     USBFS_ARB_CFG_REG |= (uint32)  USBFS_ARB_CFG_CFG_CMP;
 234              		.loc 1 512 0
 235 008e 0D4B     		ldr	r3, .L13+28
 236 0090 1A68     		ldr	r2, [r3]
 237 0092 8021     		movs	r1, #128
 238 0094 0A43     		orrs	r2, r1
 239 0096 1A60     		str	r2, [r3]
 513:Generated_Source\PSoC4/USBFS_std.c ****     /* Cfg_cmp bit set to 0 during configuration of PFSUSB Registers. */
 514:Generated_Source\PSoC4/USBFS_std.c ****     USBFS_ARB_CFG_REG &= (uint32) ~USBFS_ARB_CFG_CFG_CMP;
 240              		.loc 1 514 0
 241 0098 1A68     		ldr	r2, [r3]
 242 009a 8A43     		bics	r2, r1
 243 009c 1A60     		str	r2, [r3]
 515:Generated_Source\PSoC4/USBFS_std.c **** 
 516:Generated_Source\PSoC4/USBFS_std.c **** #endif /* (USBFS_EP_MANAGEMENT_DMA_AUTO) */
 517:Generated_Source\PSoC4/USBFS_std.c **** 
 518:Generated_Source\PSoC4/USBFS_std.c ****     /* Enable interrupt SIE interurpt source from EP0-EP1 */
 519:Generated_Source\PSoC4/USBFS_std.c ****     USBFS_SIE_EP_INT_EN_REG = (uint32) USBFS_DEFAULT_SIE_EP_INT_EN;
 244              		.loc 1 519 0
 245 009e FF22     		movs	r2, #255
 246 00a0 094B     		ldr	r3, .L13+32
 247 00a2 1A60     		str	r2, [r3]
 520:Generated_Source\PSoC4/USBFS_std.c **** }
 248              		.loc 1 520 0
 249              		@ sp needed
 250 00a4 10BD     		pop	{r4, pc}
 251              	.L14:
 252 00a6 C046     		.align	2
 253              	.L13:
 254 00a8 C0012C40 		.word	1076625856
 255 00ac 00000000 		.word	USBFS_EP
 256 00b0 F0FF2B40 		.word	1076625392
 257 00b4 30022C40 		.word	1076625968
 258 00b8 F0122C40 		.word	1076630256
 259 00bc 38022C40 		.word	1076625976
 260 00c0 3C022C40 		.word	1076625980
 261 00c4 70022C40 		.word	1076626032
 262 00c8 28002C40 		.word	1076625448
 263              		.cfi_endproc
 264              	.LFE163:
 265              		.size	USBFS_ConfigReg, .-USBFS_ConfigReg
 266              		.section	.text.USBFS_EpStateInit,"ax",%progbits
 267              		.align	2
 268              		.global	USBFS_EpStateInit
 269              		.code	16
 270              		.thumb_func
 271              		.type	USBFS_EpStateInit, %function
 272              	USBFS_EpStateInit:
 273              	.LFB164:
ARM GAS  C:\Users\TERENC~1\AppData\Local\Temp\ccVnttLg.s 			page 15


 521:Generated_Source\PSoC4/USBFS_std.c **** 
 522:Generated_Source\PSoC4/USBFS_std.c **** 
 523:Generated_Source\PSoC4/USBFS_std.c **** /*******************************************************************************
 524:Generated_Source\PSoC4/USBFS_std.c **** * Function Name: USBFS_EpStateInit
 525:Generated_Source\PSoC4/USBFS_std.c **** ****************************************************************************//**
 526:Generated_Source\PSoC4/USBFS_std.c **** *
 527:Generated_Source\PSoC4/USBFS_std.c **** *  This routine initialize state of Data end points based of its type: 
 528:Generated_Source\PSoC4/USBFS_std.c **** *   IN  - USBFS_IN_BUFFER_EMPTY (USBFS_EVENT_PENDING)
 529:Generated_Source\PSoC4/USBFS_std.c **** *   OUT - USBFS_OUT_BUFFER_EMPTY (USBFS_NO_EVENT_PENDING)
 530:Generated_Source\PSoC4/USBFS_std.c **** *
 531:Generated_Source\PSoC4/USBFS_std.c **** *******************************************************************************/
 532:Generated_Source\PSoC4/USBFS_std.c **** void USBFS_EpStateInit(void) 
 533:Generated_Source\PSoC4/USBFS_std.c **** {
 274              		.loc 1 533 0
 275              		.cfi_startproc
 276              		@ args = 0, pretend = 0, frame = 0
 277              		@ frame_needed = 0, uses_anonymous_args = 0
 278              		@ link register save eliminated.
 279              	.LVL14:
 534:Generated_Source\PSoC4/USBFS_std.c ****     uint8 i;
 535:Generated_Source\PSoC4/USBFS_std.c **** 
 536:Generated_Source\PSoC4/USBFS_std.c ****     for (i = USBFS_EP1; i < USBFS_MAX_EP; i++)
 280              		.loc 1 536 0
 281 0000 0123     		movs	r3, #1
 282 0002 19E0     		b	.L16
 283              	.LVL15:
 284              	.L19:
 537:Generated_Source\PSoC4/USBFS_std.c ****     { 
 538:Generated_Source\PSoC4/USBFS_std.c ****         if (0u != (USBFS_EP[i].addr & USBFS_DIR_IN))
 285              		.loc 1 538 0
 286 0004 5900     		lsls	r1, r3, #1
 287 0006 C918     		adds	r1, r1, r3
 288 0008 8A00     		lsls	r2, r1, #2
 289 000a 0D49     		ldr	r1, .L20
 290 000c 8A18     		adds	r2, r1, r2
 291 000e 1279     		ldrb	r2, [r2, #4]
 292 0010 52B2     		sxtb	r2, r2
 293 0012 002A     		cmp	r2, #0
 294 0014 07DA     		bge	.L17
 539:Generated_Source\PSoC4/USBFS_std.c ****         {
 540:Generated_Source\PSoC4/USBFS_std.c ****             /* IN Endpoint */
 541:Generated_Source\PSoC4/USBFS_std.c ****             USBFS_EP[i].apiEpState = USBFS_EVENT_PENDING;
 295              		.loc 1 541 0
 296 0016 5900     		lsls	r1, r3, #1
 297 0018 C918     		adds	r1, r1, r3
 298 001a 8A00     		lsls	r2, r1, #2
 299 001c 0849     		ldr	r1, .L20
 300 001e 8A18     		adds	r2, r1, r2
 301 0020 0121     		movs	r1, #1
 302 0022 5170     		strb	r1, [r2, #1]
 303 0024 06E0     		b	.L18
 304              	.L17:
 542:Generated_Source\PSoC4/USBFS_std.c ****         }
 543:Generated_Source\PSoC4/USBFS_std.c ****         else
 544:Generated_Source\PSoC4/USBFS_std.c ****         {
 545:Generated_Source\PSoC4/USBFS_std.c ****             /* OUT Endpoint */
 546:Generated_Source\PSoC4/USBFS_std.c ****             USBFS_EP[i].apiEpState = USBFS_NO_EVENT_PENDING;
ARM GAS  C:\Users\TERENC~1\AppData\Local\Temp\ccVnttLg.s 			page 16


 305              		.loc 1 546 0
 306 0026 5900     		lsls	r1, r3, #1
 307 0028 C918     		adds	r1, r1, r3
 308 002a 8A00     		lsls	r2, r1, #2
 309 002c 0449     		ldr	r1, .L20
 310 002e 8A18     		adds	r2, r1, r2
 311 0030 0021     		movs	r1, #0
 312 0032 5170     		strb	r1, [r2, #1]
 313              	.L18:
 536:Generated_Source\PSoC4/USBFS_std.c ****     { 
 314              		.loc 1 536 0 discriminator 2
 315 0034 0133     		adds	r3, r3, #1
 316              	.LVL16:
 317 0036 DBB2     		uxtb	r3, r3
 318              	.LVL17:
 319              	.L16:
 536:Generated_Source\PSoC4/USBFS_std.c ****     { 
 320              		.loc 1 536 0 is_stmt 0 discriminator 1
 321 0038 082B     		cmp	r3, #8
 322 003a E3D9     		bls	.L19
 547:Generated_Source\PSoC4/USBFS_std.c ****         }
 548:Generated_Source\PSoC4/USBFS_std.c ****     }
 549:Generated_Source\PSoC4/USBFS_std.c ****                     
 550:Generated_Source\PSoC4/USBFS_std.c **** }
 323              		.loc 1 550 0 is_stmt 1
 324              		@ sp needed
 325 003c 7047     		bx	lr
 326              	.L21:
 327 003e C046     		.align	2
 328              	.L20:
 329 0040 00000000 		.word	USBFS_EP
 330              		.cfi_endproc
 331              	.LFE164:
 332              		.size	USBFS_EpStateInit, .-USBFS_EpStateInit
 333              		.section	.text.USBFS_GetConfigTablePtr,"ax",%progbits
 334              		.align	2
 335              		.global	USBFS_GetConfigTablePtr
 336              		.code	16
 337              		.thumb_func
 338              		.type	USBFS_GetConfigTablePtr, %function
 339              	USBFS_GetConfigTablePtr:
 340              	.LFB167:
 551:Generated_Source\PSoC4/USBFS_std.c **** 
 552:Generated_Source\PSoC4/USBFS_std.c **** 
 553:Generated_Source\PSoC4/USBFS_std.c **** /*******************************************************************************
 554:Generated_Source\PSoC4/USBFS_std.c **** * Function Name: USBFS_Config
 555:Generated_Source\PSoC4/USBFS_std.c **** ****************************************************************************//**
 556:Generated_Source\PSoC4/USBFS_std.c **** *
 557:Generated_Source\PSoC4/USBFS_std.c **** *  This routine configures endpoints for the entire configuration by scanning
 558:Generated_Source\PSoC4/USBFS_std.c **** *  the configuration descriptor.
 559:Generated_Source\PSoC4/USBFS_std.c **** *
 560:Generated_Source\PSoC4/USBFS_std.c **** *  \param clearAltSetting: It configures the bAlternateSetting 0 for each interface.
 561:Generated_Source\PSoC4/USBFS_std.c **** *
 562:Generated_Source\PSoC4/USBFS_std.c **** * USBFS_interfaceClass - Initialized class array for each interface.
 563:Generated_Source\PSoC4/USBFS_std.c **** *   It is used for handling Class specific requests depend on interface class.
 564:Generated_Source\PSoC4/USBFS_std.c **** *   Different classes in multiple Alternate settings does not supported.
 565:Generated_Source\PSoC4/USBFS_std.c **** *
ARM GAS  C:\Users\TERENC~1\AppData\Local\Temp\ccVnttLg.s 			page 17


 566:Generated_Source\PSoC4/USBFS_std.c **** * \reentrant
 567:Generated_Source\PSoC4/USBFS_std.c **** *  No.
 568:Generated_Source\PSoC4/USBFS_std.c **** *
 569:Generated_Source\PSoC4/USBFS_std.c **** *******************************************************************************/
 570:Generated_Source\PSoC4/USBFS_std.c **** void USBFS_Config(uint8 clearAltSetting) 
 571:Generated_Source\PSoC4/USBFS_std.c **** {
 572:Generated_Source\PSoC4/USBFS_std.c ****     uint8 ep;
 573:Generated_Source\PSoC4/USBFS_std.c ****     uint8 curEp;
 574:Generated_Source\PSoC4/USBFS_std.c ****     uint8 i;
 575:Generated_Source\PSoC4/USBFS_std.c ****     uint8 epType;
 576:Generated_Source\PSoC4/USBFS_std.c ****     const uint8 *pDescr;
 577:Generated_Source\PSoC4/USBFS_std.c ****     
 578:Generated_Source\PSoC4/USBFS_std.c ****     #if (!USBFS_EP_MANAGEMENT_DMA_AUTO)
 579:Generated_Source\PSoC4/USBFS_std.c ****         uint16 buffCount = 0u;
 580:Generated_Source\PSoC4/USBFS_std.c ****     #endif /* (!USBFS_EP_MANAGEMENT_DMA_AUTO) */
 581:Generated_Source\PSoC4/USBFS_std.c **** 
 582:Generated_Source\PSoC4/USBFS_std.c ****     const T_USBFS_LUT CYCODE *pTmp;
 583:Generated_Source\PSoC4/USBFS_std.c ****     const T_USBFS_EP_SETTINGS_BLOCK CYCODE *pEP;
 584:Generated_Source\PSoC4/USBFS_std.c **** 
 585:Generated_Source\PSoC4/USBFS_std.c ****     /* Clear endpoints settings */
 586:Generated_Source\PSoC4/USBFS_std.c ****     for (ep = 0u; ep < USBFS_MAX_EP; ++ep)
 587:Generated_Source\PSoC4/USBFS_std.c ****     {
 588:Generated_Source\PSoC4/USBFS_std.c ****         USBFS_EP[ep].attrib     = 0u;
 589:Generated_Source\PSoC4/USBFS_std.c ****         USBFS_EP[ep].hwEpState  = 0u;
 590:Generated_Source\PSoC4/USBFS_std.c ****         USBFS_EP[ep].epToggle   = 0u;
 591:Generated_Source\PSoC4/USBFS_std.c ****         USBFS_EP[ep].bufferSize = 0u;
 592:Generated_Source\PSoC4/USBFS_std.c ****         USBFS_EP[ep].interface  = 0u;
 593:Generated_Source\PSoC4/USBFS_std.c ****         USBFS_EP[ep].apiEpState = USBFS_NO_EVENT_PENDING;
 594:Generated_Source\PSoC4/USBFS_std.c ****         USBFS_EP[ep].epMode     = USBFS_MODE_DISABLE;   
 595:Generated_Source\PSoC4/USBFS_std.c ****     }
 596:Generated_Source\PSoC4/USBFS_std.c **** 
 597:Generated_Source\PSoC4/USBFS_std.c ****     /* Clear Alternate settings for all interfaces. */
 598:Generated_Source\PSoC4/USBFS_std.c ****     if (0u != clearAltSetting)
 599:Generated_Source\PSoC4/USBFS_std.c ****     {
 600:Generated_Source\PSoC4/USBFS_std.c ****         for (i = 0u; i < USBFS_MAX_INTERFACES_NUMBER; ++i)
 601:Generated_Source\PSoC4/USBFS_std.c ****         {
 602:Generated_Source\PSoC4/USBFS_std.c ****             USBFS_interfaceSetting[i]     = 0u;
 603:Generated_Source\PSoC4/USBFS_std.c ****             USBFS_interfaceSettingLast[i] = 0u;
 604:Generated_Source\PSoC4/USBFS_std.c ****         }
 605:Generated_Source\PSoC4/USBFS_std.c ****     }
 606:Generated_Source\PSoC4/USBFS_std.c **** 
 607:Generated_Source\PSoC4/USBFS_std.c ****     /* Init Endpoints and Device Status if configured */
 608:Generated_Source\PSoC4/USBFS_std.c ****     if (USBFS_configuration > 0u)
 609:Generated_Source\PSoC4/USBFS_std.c ****     {
 610:Generated_Source\PSoC4/USBFS_std.c ****         #if defined(USBFS_ENABLE_CDC_CLASS)
 611:Generated_Source\PSoC4/USBFS_std.c ****             uint8 cdcComNums = 0u;
 612:Generated_Source\PSoC4/USBFS_std.c ****         #endif  /* (USBFS_ENABLE_CDC_CLASS) */  
 613:Generated_Source\PSoC4/USBFS_std.c **** 
 614:Generated_Source\PSoC4/USBFS_std.c ****         pTmp = USBFS_GetConfigTablePtr(USBFS_configuration - 1u);
 615:Generated_Source\PSoC4/USBFS_std.c ****         
 616:Generated_Source\PSoC4/USBFS_std.c ****         /* Set Power status for current configuration */
 617:Generated_Source\PSoC4/USBFS_std.c ****         pDescr = (const uint8 *)pTmp->p_list;
 618:Generated_Source\PSoC4/USBFS_std.c ****         if ((pDescr[USBFS_CONFIG_DESCR_ATTRIB] & USBFS_CONFIG_DESCR_ATTRIB_SELF_POWERED) != 0u)
 619:Generated_Source\PSoC4/USBFS_std.c ****         {
 620:Generated_Source\PSoC4/USBFS_std.c ****             USBFS_deviceStatus |= (uint8)  USBFS_DEVICE_STATUS_SELF_POWERED;
 621:Generated_Source\PSoC4/USBFS_std.c ****         }
 622:Generated_Source\PSoC4/USBFS_std.c ****         else
ARM GAS  C:\Users\TERENC~1\AppData\Local\Temp\ccVnttLg.s 			page 18


 623:Generated_Source\PSoC4/USBFS_std.c ****         {
 624:Generated_Source\PSoC4/USBFS_std.c ****             USBFS_deviceStatus &= (uint8) ~USBFS_DEVICE_STATUS_SELF_POWERED;
 625:Generated_Source\PSoC4/USBFS_std.c ****         }
 626:Generated_Source\PSoC4/USBFS_std.c ****         
 627:Generated_Source\PSoC4/USBFS_std.c ****         /* Move to next element */
 628:Generated_Source\PSoC4/USBFS_std.c ****         pTmp = &pTmp[1u];
 629:Generated_Source\PSoC4/USBFS_std.c ****         ep = pTmp->c;  /* For this table, c is the number of endpoints configurations  */
 630:Generated_Source\PSoC4/USBFS_std.c **** 
 631:Generated_Source\PSoC4/USBFS_std.c ****         #if (USBFS_EP_MANAGEMENT_MANUAL && USBFS_EP_ALLOC_DYNAMIC)
 632:Generated_Source\PSoC4/USBFS_std.c ****             /* Configure for dynamic EP memory allocation */
 633:Generated_Source\PSoC4/USBFS_std.c ****             /* p_list points the endpoint setting table. */
 634:Generated_Source\PSoC4/USBFS_std.c ****             pEP = (T_USBFS_EP_SETTINGS_BLOCK *) pTmp->p_list;
 635:Generated_Source\PSoC4/USBFS_std.c ****             
 636:Generated_Source\PSoC4/USBFS_std.c ****             for (i = 0u; i < ep; i++)
 637:Generated_Source\PSoC4/USBFS_std.c ****             {     
 638:Generated_Source\PSoC4/USBFS_std.c ****                 /* Compare current Alternate setting with EP Alt */
 639:Generated_Source\PSoC4/USBFS_std.c ****                 if (USBFS_interfaceSetting[pEP->interface] == pEP->altSetting)
 640:Generated_Source\PSoC4/USBFS_std.c ****                 {                                                          
 641:Generated_Source\PSoC4/USBFS_std.c ****                     curEp  = pEP->addr & USBFS_DIR_UNUSED;
 642:Generated_Source\PSoC4/USBFS_std.c ****                     epType = pEP->attributes & USBFS_EP_TYPE_MASK;
 643:Generated_Source\PSoC4/USBFS_std.c ****                     
 644:Generated_Source\PSoC4/USBFS_std.c ****                     USBFS_EP[curEp].addr       = pEP->addr;
 645:Generated_Source\PSoC4/USBFS_std.c ****                     USBFS_EP[curEp].attrib     = pEP->attributes;
 646:Generated_Source\PSoC4/USBFS_std.c ****                     USBFS_EP[curEp].bufferSize = pEP->bufferSize;
 647:Generated_Source\PSoC4/USBFS_std.c **** 
 648:Generated_Source\PSoC4/USBFS_std.c ****                     if (0u != (pEP->addr & USBFS_DIR_IN))
 649:Generated_Source\PSoC4/USBFS_std.c ****                     {
 650:Generated_Source\PSoC4/USBFS_std.c ****                         /* IN Endpoint */
 651:Generated_Source\PSoC4/USBFS_std.c ****                         USBFS_EP[curEp].epMode     = USBFS_GET_ACTIVE_IN_EP_CR0_MODE(epType);
 652:Generated_Source\PSoC4/USBFS_std.c ****                         USBFS_EP[curEp].apiEpState = USBFS_EVENT_PENDING;
 653:Generated_Source\PSoC4/USBFS_std.c ****                     
 654:Generated_Source\PSoC4/USBFS_std.c ****                     #if (defined(USBFS_ENABLE_MIDI_STREAMING) && (USBFS_MIDI_IN_BUFF_SIZE > 0))
 655:Generated_Source\PSoC4/USBFS_std.c ****                         if ((pEP->bMisc == USBFS_CLASS_AUDIO) && (epType == USBFS_EP_TYPE_BULK))
 656:Generated_Source\PSoC4/USBFS_std.c ****                         {
 657:Generated_Source\PSoC4/USBFS_std.c ****                             USBFS_midi_in_ep = curEp;
 658:Generated_Source\PSoC4/USBFS_std.c ****                         }
 659:Generated_Source\PSoC4/USBFS_std.c ****                     #endif  /* (USBFS_ENABLE_MIDI_STREAMING) */
 660:Generated_Source\PSoC4/USBFS_std.c ****                     }
 661:Generated_Source\PSoC4/USBFS_std.c ****                     else
 662:Generated_Source\PSoC4/USBFS_std.c ****                     {
 663:Generated_Source\PSoC4/USBFS_std.c ****                         /* OUT Endpoint */
 664:Generated_Source\PSoC4/USBFS_std.c ****                         USBFS_EP[curEp].epMode     = USBFS_GET_ACTIVE_OUT_EP_CR0_MODE(epType);
 665:Generated_Source\PSoC4/USBFS_std.c ****                         USBFS_EP[curEp].apiEpState = USBFS_NO_EVENT_PENDING;
 666:Generated_Source\PSoC4/USBFS_std.c ****                         
 667:Generated_Source\PSoC4/USBFS_std.c ****                     #if (defined(USBFS_ENABLE_MIDI_STREAMING) && (USBFS_MIDI_OUT_BUFF_SIZE > 0))
 668:Generated_Source\PSoC4/USBFS_std.c ****                         if ((pEP->bMisc == USBFS_CLASS_AUDIO) && (epType == USBFS_EP_TYPE_BULK))
 669:Generated_Source\PSoC4/USBFS_std.c ****                         {
 670:Generated_Source\PSoC4/USBFS_std.c ****                             USBFS_midi_out_ep = curEp;
 671:Generated_Source\PSoC4/USBFS_std.c ****                         }
 672:Generated_Source\PSoC4/USBFS_std.c ****                     #endif  /* (USBFS_ENABLE_MIDI_STREAMING) */
 673:Generated_Source\PSoC4/USBFS_std.c ****                     }
 674:Generated_Source\PSoC4/USBFS_std.c **** 
 675:Generated_Source\PSoC4/USBFS_std.c ****                 #if(defined (USBFS_ENABLE_CDC_CLASS))
 676:Generated_Source\PSoC4/USBFS_std.c ****                     if((pEP->bMisc == USBFS_CLASS_CDC_DATA) ||(pEP->bMisc == USBFS_CLASS_CDC))
 677:Generated_Source\PSoC4/USBFS_std.c ****                     {
 678:Generated_Source\PSoC4/USBFS_std.c ****                         cdcComNums = USBFS_Cdc_EpInit(pEP, curEp, cdcComNums);
 679:Generated_Source\PSoC4/USBFS_std.c ****                     }
ARM GAS  C:\Users\TERENC~1\AppData\Local\Temp\ccVnttLg.s 			page 19


 680:Generated_Source\PSoC4/USBFS_std.c ****                 #endif  /* (USBFS_ENABLE_CDC_CLASS) */
 681:Generated_Source\PSoC4/USBFS_std.c ****                 }
 682:Generated_Source\PSoC4/USBFS_std.c ****                 
 683:Generated_Source\PSoC4/USBFS_std.c ****                 pEP = &pEP[1u];
 684:Generated_Source\PSoC4/USBFS_std.c ****             }
 685:Generated_Source\PSoC4/USBFS_std.c ****             
 686:Generated_Source\PSoC4/USBFS_std.c ****         #else
 687:Generated_Source\PSoC4/USBFS_std.c ****             for (i = USBFS_EP1; i < USBFS_MAX_EP; ++i)
 688:Generated_Source\PSoC4/USBFS_std.c ****             {
 689:Generated_Source\PSoC4/USBFS_std.c ****                 /* p_list points the endpoint setting table. */
 690:Generated_Source\PSoC4/USBFS_std.c ****                 pEP = (const T_USBFS_EP_SETTINGS_BLOCK CYCODE *) pTmp->p_list;
 691:Generated_Source\PSoC4/USBFS_std.c ****                 /* Find max length for each EP and select it (length could be different in differen
 692:Generated_Source\PSoC4/USBFS_std.c ****                 /* but other settings should be correct with regards to Interface alt Setting */
 693:Generated_Source\PSoC4/USBFS_std.c ****                 
 694:Generated_Source\PSoC4/USBFS_std.c ****                 for (curEp = 0u; curEp < ep; ++curEp)
 695:Generated_Source\PSoC4/USBFS_std.c ****                 {
 696:Generated_Source\PSoC4/USBFS_std.c ****                     if (i == (pEP->addr & USBFS_DIR_UNUSED))
 697:Generated_Source\PSoC4/USBFS_std.c ****                     {
 698:Generated_Source\PSoC4/USBFS_std.c ****                         /* Compare endpoint buffers size with current size to find greater. */
 699:Generated_Source\PSoC4/USBFS_std.c ****                         if (USBFS_EP[i].bufferSize < pEP->bufferSize)
 700:Generated_Source\PSoC4/USBFS_std.c ****                         {
 701:Generated_Source\PSoC4/USBFS_std.c ****                             USBFS_EP[i].bufferSize = pEP->bufferSize;
 702:Generated_Source\PSoC4/USBFS_std.c ****                         }
 703:Generated_Source\PSoC4/USBFS_std.c ****                         
 704:Generated_Source\PSoC4/USBFS_std.c ****                         /* Compare current Alternate setting with EP Alt */
 705:Generated_Source\PSoC4/USBFS_std.c ****                         if (USBFS_interfaceSetting[pEP->interface] == pEP->altSetting)
 706:Generated_Source\PSoC4/USBFS_std.c ****                         {                            
 707:Generated_Source\PSoC4/USBFS_std.c ****                             USBFS_EP[i].addr = pEP->addr;
 708:Generated_Source\PSoC4/USBFS_std.c ****                             USBFS_EP[i].attrib = pEP->attributes;
 709:Generated_Source\PSoC4/USBFS_std.c ****                             
 710:Generated_Source\PSoC4/USBFS_std.c ****                             epType = pEP->attributes & USBFS_EP_TYPE_MASK;
 711:Generated_Source\PSoC4/USBFS_std.c ****                             
 712:Generated_Source\PSoC4/USBFS_std.c ****                             if (0u != (pEP->addr & USBFS_DIR_IN))
 713:Generated_Source\PSoC4/USBFS_std.c ****                             {
 714:Generated_Source\PSoC4/USBFS_std.c ****                                 /* IN Endpoint */
 715:Generated_Source\PSoC4/USBFS_std.c ****                                 USBFS_EP[i].epMode     = USBFS_GET_ACTIVE_IN_EP_CR0_MODE(epType);
 716:Generated_Source\PSoC4/USBFS_std.c ****                                 USBFS_EP[i].apiEpState = USBFS_EVENT_PENDING;
 717:Generated_Source\PSoC4/USBFS_std.c ****                                 
 718:Generated_Source\PSoC4/USBFS_std.c ****                             #if (defined(USBFS_ENABLE_MIDI_STREAMING) && (USBFS_MIDI_IN_BUFF_SIZE >
 719:Generated_Source\PSoC4/USBFS_std.c ****                                 if ((pEP->bMisc == USBFS_CLASS_AUDIO) && (epType == USBFS_EP_TYPE_B
 720:Generated_Source\PSoC4/USBFS_std.c ****                                 {
 721:Generated_Source\PSoC4/USBFS_std.c ****                                     USBFS_midi_in_ep = i;
 722:Generated_Source\PSoC4/USBFS_std.c ****                                 }
 723:Generated_Source\PSoC4/USBFS_std.c ****                             #endif  /* (USBFS_ENABLE_MIDI_STREAMING) */
 724:Generated_Source\PSoC4/USBFS_std.c ****                             }
 725:Generated_Source\PSoC4/USBFS_std.c ****                             else
 726:Generated_Source\PSoC4/USBFS_std.c ****                             {
 727:Generated_Source\PSoC4/USBFS_std.c ****                                 /* OUT Endpoint */
 728:Generated_Source\PSoC4/USBFS_std.c ****                                 USBFS_EP[i].epMode     = USBFS_GET_ACTIVE_OUT_EP_CR0_MODE(epType);
 729:Generated_Source\PSoC4/USBFS_std.c ****                                 USBFS_EP[i].apiEpState = USBFS_NO_EVENT_PENDING;
 730:Generated_Source\PSoC4/USBFS_std.c ****                                 
 731:Generated_Source\PSoC4/USBFS_std.c ****                             #if (defined(USBFS_ENABLE_MIDI_STREAMING) && (USBFS_MIDI_OUT_BUFF_SIZE 
 732:Generated_Source\PSoC4/USBFS_std.c ****                                 if ((pEP->bMisc == USBFS_CLASS_AUDIO) && (epType == USBFS_EP_TYPE_B
 733:Generated_Source\PSoC4/USBFS_std.c ****                                 {
 734:Generated_Source\PSoC4/USBFS_std.c ****                                     USBFS_midi_out_ep = i;
 735:Generated_Source\PSoC4/USBFS_std.c ****                                 }
 736:Generated_Source\PSoC4/USBFS_std.c ****                             #endif  /* (USBFS_ENABLE_MIDI_STREAMING) */
ARM GAS  C:\Users\TERENC~1\AppData\Local\Temp\ccVnttLg.s 			page 20


 737:Generated_Source\PSoC4/USBFS_std.c ****                             }
 738:Generated_Source\PSoC4/USBFS_std.c **** 
 739:Generated_Source\PSoC4/USBFS_std.c ****                         #if (defined(USBFS_ENABLE_CDC_CLASS))
 740:Generated_Source\PSoC4/USBFS_std.c ****                             if((pEP->bMisc == USBFS_CLASS_CDC_DATA) ||(pEP->bMisc == USBFS_CLASS_CD
 741:Generated_Source\PSoC4/USBFS_std.c ****                             {
 742:Generated_Source\PSoC4/USBFS_std.c ****                                 cdcComNums = USBFS_Cdc_EpInit(pEP, i, cdcComNums);
 743:Generated_Source\PSoC4/USBFS_std.c ****                             }
 744:Generated_Source\PSoC4/USBFS_std.c ****                         #endif  /* (USBFS_ENABLE_CDC_CLASS) */
 745:Generated_Source\PSoC4/USBFS_std.c **** 
 746:Generated_Source\PSoC4/USBFS_std.c ****                             #if (USBFS_EP_MANAGEMENT_DMA_AUTO)
 747:Generated_Source\PSoC4/USBFS_std.c ****                                 break;  /* Use first EP setting in Auto memory management */
 748:Generated_Source\PSoC4/USBFS_std.c ****                             #endif /* (USBFS_EP_MANAGEMENT_DMA_AUTO) */
 749:Generated_Source\PSoC4/USBFS_std.c ****                         }
 750:Generated_Source\PSoC4/USBFS_std.c ****                     }
 751:Generated_Source\PSoC4/USBFS_std.c ****                     
 752:Generated_Source\PSoC4/USBFS_std.c ****                     pEP = &pEP[1u];
 753:Generated_Source\PSoC4/USBFS_std.c ****                 }
 754:Generated_Source\PSoC4/USBFS_std.c ****             }
 755:Generated_Source\PSoC4/USBFS_std.c ****         #endif /*  (USBFS_EP_MANAGEMENT_MANUAL && USBFS_EP_ALLOC_DYNAMIC) */
 756:Generated_Source\PSoC4/USBFS_std.c **** 
 757:Generated_Source\PSoC4/USBFS_std.c ****         /* Init class array for each interface and interface number for each EP.
 758:Generated_Source\PSoC4/USBFS_std.c ****         *  It is used for handling Class specific requests directed to either an
 759:Generated_Source\PSoC4/USBFS_std.c ****         *  interface or the endpoint.
 760:Generated_Source\PSoC4/USBFS_std.c ****         */
 761:Generated_Source\PSoC4/USBFS_std.c ****         /* p_list points the endpoint setting table. */
 762:Generated_Source\PSoC4/USBFS_std.c ****         pEP = (const T_USBFS_EP_SETTINGS_BLOCK CYCODE *) pTmp->p_list;
 763:Generated_Source\PSoC4/USBFS_std.c ****         for (i = 0u; i < ep; i++)
 764:Generated_Source\PSoC4/USBFS_std.c ****         {
 765:Generated_Source\PSoC4/USBFS_std.c ****             /* Configure interface number for each EP */
 766:Generated_Source\PSoC4/USBFS_std.c ****             USBFS_EP[pEP->addr & USBFS_DIR_UNUSED].interface = pEP->interface;
 767:Generated_Source\PSoC4/USBFS_std.c ****             pEP = &pEP[1u];
 768:Generated_Source\PSoC4/USBFS_std.c ****         }
 769:Generated_Source\PSoC4/USBFS_std.c ****         
 770:Generated_Source\PSoC4/USBFS_std.c ****         /* Init pointer on interface class table */
 771:Generated_Source\PSoC4/USBFS_std.c ****         USBFS_interfaceClass = USBFS_GetInterfaceClassTablePtr();
 772:Generated_Source\PSoC4/USBFS_std.c ****         
 773:Generated_Source\PSoC4/USBFS_std.c ****     /* Set the endpoint buffer addresses */
 774:Generated_Source\PSoC4/USBFS_std.c ****     #if (!USBFS_EP_MANAGEMENT_DMA_AUTO)
 775:Generated_Source\PSoC4/USBFS_std.c ****         buffCount = 0u;
 776:Generated_Source\PSoC4/USBFS_std.c ****         for (ep = USBFS_EP1; ep < USBFS_MAX_EP; ++ep)
 777:Generated_Source\PSoC4/USBFS_std.c ****         {
 778:Generated_Source\PSoC4/USBFS_std.c ****             USBFS_EP[ep].buffOffset = buffCount;        
 779:Generated_Source\PSoC4/USBFS_std.c ****             buffCount += USBFS_EP[ep].bufferSize;
 780:Generated_Source\PSoC4/USBFS_std.c ****             
 781:Generated_Source\PSoC4/USBFS_std.c ****         #if (USBFS_GEN_16BITS_EP_ACCESS)
 782:Generated_Source\PSoC4/USBFS_std.c ****             /* Align EP buffers to be event size to access 16-bits DR register. */
 783:Generated_Source\PSoC4/USBFS_std.c ****             buffCount += (0u != (buffCount & 0x01u)) ? 1u : 0u;
 784:Generated_Source\PSoC4/USBFS_std.c ****         #endif /* (USBFS_GEN_16BITS_EP_ACCESS) */            
 785:Generated_Source\PSoC4/USBFS_std.c ****         }
 786:Generated_Source\PSoC4/USBFS_std.c ****     #endif /* (!USBFS_EP_MANAGEMENT_DMA_AUTO) */
 787:Generated_Source\PSoC4/USBFS_std.c **** 
 788:Generated_Source\PSoC4/USBFS_std.c ****         /* Configure hardware registers */
 789:Generated_Source\PSoC4/USBFS_std.c ****         USBFS_ConfigReg();
 790:Generated_Source\PSoC4/USBFS_std.c ****     }
 791:Generated_Source\PSoC4/USBFS_std.c **** }
 792:Generated_Source\PSoC4/USBFS_std.c **** 
 793:Generated_Source\PSoC4/USBFS_std.c **** 
ARM GAS  C:\Users\TERENC~1\AppData\Local\Temp\ccVnttLg.s 			page 21


 794:Generated_Source\PSoC4/USBFS_std.c **** /*******************************************************************************
 795:Generated_Source\PSoC4/USBFS_std.c **** * Function Name: USBFS_ConfigAltChanged
 796:Generated_Source\PSoC4/USBFS_std.c **** ****************************************************************************//**
 797:Generated_Source\PSoC4/USBFS_std.c **** *
 798:Generated_Source\PSoC4/USBFS_std.c **** *  This routine update configuration for the required endpoints only.
 799:Generated_Source\PSoC4/USBFS_std.c **** *  It is called after SET_INTERFACE request when Static memory allocation used.
 800:Generated_Source\PSoC4/USBFS_std.c **** *
 801:Generated_Source\PSoC4/USBFS_std.c **** * \reentrant
 802:Generated_Source\PSoC4/USBFS_std.c **** *  No.
 803:Generated_Source\PSoC4/USBFS_std.c **** *
 804:Generated_Source\PSoC4/USBFS_std.c **** *******************************************************************************/
 805:Generated_Source\PSoC4/USBFS_std.c **** void USBFS_ConfigAltChanged(void) 
 806:Generated_Source\PSoC4/USBFS_std.c **** {
 807:Generated_Source\PSoC4/USBFS_std.c ****     uint32 ep;
 808:Generated_Source\PSoC4/USBFS_std.c ****     uint32 curEp;
 809:Generated_Source\PSoC4/USBFS_std.c ****     uint32 epType;
 810:Generated_Source\PSoC4/USBFS_std.c ****     uint32 i;
 811:Generated_Source\PSoC4/USBFS_std.c ****     uint8 interfaceNum;
 812:Generated_Source\PSoC4/USBFS_std.c **** 
 813:Generated_Source\PSoC4/USBFS_std.c ****     const T_USBFS_LUT CYCODE *pTmp;
 814:Generated_Source\PSoC4/USBFS_std.c ****     const T_USBFS_EP_SETTINGS_BLOCK CYCODE *pEP;
 815:Generated_Source\PSoC4/USBFS_std.c **** 
 816:Generated_Source\PSoC4/USBFS_std.c ****     /* Init Endpoints and Device Status if configured */
 817:Generated_Source\PSoC4/USBFS_std.c ****     if (USBFS_configuration > 0u)
 818:Generated_Source\PSoC4/USBFS_std.c ****     {
 819:Generated_Source\PSoC4/USBFS_std.c ****         /* Get number of endpoints configurations (ep). */
 820:Generated_Source\PSoC4/USBFS_std.c ****         pTmp = USBFS_GetConfigTablePtr(USBFS_configuration - 1u);
 821:Generated_Source\PSoC4/USBFS_std.c ****         pTmp = &pTmp[1u];
 822:Generated_Source\PSoC4/USBFS_std.c ****         ep = pTmp->c;
 823:Generated_Source\PSoC4/USBFS_std.c **** 
 824:Generated_Source\PSoC4/USBFS_std.c ****         /* Get pointer to endpoints setting table (pEP). */
 825:Generated_Source\PSoC4/USBFS_std.c ****         pEP = (const T_USBFS_EP_SETTINGS_BLOCK CYCODE *) pTmp->p_list;
 826:Generated_Source\PSoC4/USBFS_std.c ****         
 827:Generated_Source\PSoC4/USBFS_std.c ****         /* Look through all possible endpoint configurations. Find endpoints 
 828:Generated_Source\PSoC4/USBFS_std.c ****         * which belong to current interface and alternate settings for 
 829:Generated_Source\PSoC4/USBFS_std.c ****         * re-configuration.
 830:Generated_Source\PSoC4/USBFS_std.c ****         */
 831:Generated_Source\PSoC4/USBFS_std.c ****         interfaceNum = USBFS_interfaceNumber;
 832:Generated_Source\PSoC4/USBFS_std.c ****         for (i = 0u; i < ep; i++)
 833:Generated_Source\PSoC4/USBFS_std.c ****         {
 834:Generated_Source\PSoC4/USBFS_std.c ****             /* Find endpoints which belong to current interface and alternate settings. */
 835:Generated_Source\PSoC4/USBFS_std.c ****             if ((interfaceNum == pEP->interface) && 
 836:Generated_Source\PSoC4/USBFS_std.c ****                 (USBFS_interfaceSetting[interfaceNum] == pEP->altSetting))
 837:Generated_Source\PSoC4/USBFS_std.c ****             {
 838:Generated_Source\PSoC4/USBFS_std.c ****                 curEp  = ((uint32) pEP->addr & USBFS_DIR_UNUSED);
 839:Generated_Source\PSoC4/USBFS_std.c ****                 epType = ((uint32) pEP->attributes & USBFS_EP_TYPE_MASK);
 840:Generated_Source\PSoC4/USBFS_std.c ****                 
 841:Generated_Source\PSoC4/USBFS_std.c ****                 /* Change the SIE mode for the selected EP to NAK ALL */
 842:Generated_Source\PSoC4/USBFS_std.c ****                 USBFS_EP[curEp].epToggle   = 0u;
 843:Generated_Source\PSoC4/USBFS_std.c ****                 USBFS_EP[curEp].addr       = pEP->addr;
 844:Generated_Source\PSoC4/USBFS_std.c ****                 USBFS_EP[curEp].attrib     = pEP->attributes;
 845:Generated_Source\PSoC4/USBFS_std.c ****                 USBFS_EP[curEp].bufferSize = pEP->bufferSize;
 846:Generated_Source\PSoC4/USBFS_std.c **** 
 847:Generated_Source\PSoC4/USBFS_std.c ****                 if (0u != (pEP->addr & USBFS_DIR_IN))
 848:Generated_Source\PSoC4/USBFS_std.c ****                 {
 849:Generated_Source\PSoC4/USBFS_std.c ****                     /* IN Endpoint */
 850:Generated_Source\PSoC4/USBFS_std.c ****                     USBFS_EP[curEp].epMode     = USBFS_GET_ACTIVE_IN_EP_CR0_MODE(epType);
ARM GAS  C:\Users\TERENC~1\AppData\Local\Temp\ccVnttLg.s 			page 22


 851:Generated_Source\PSoC4/USBFS_std.c ****                     USBFS_EP[curEp].apiEpState = USBFS_EVENT_PENDING;
 852:Generated_Source\PSoC4/USBFS_std.c ****                 }
 853:Generated_Source\PSoC4/USBFS_std.c ****                 else
 854:Generated_Source\PSoC4/USBFS_std.c ****                 {
 855:Generated_Source\PSoC4/USBFS_std.c ****                     /* OUT Endpoint */
 856:Generated_Source\PSoC4/USBFS_std.c ****                     USBFS_EP[curEp].epMode     = USBFS_GET_ACTIVE_OUT_EP_CR0_MODE(epType);
 857:Generated_Source\PSoC4/USBFS_std.c ****                     USBFS_EP[curEp].apiEpState = USBFS_NO_EVENT_PENDING;
 858:Generated_Source\PSoC4/USBFS_std.c ****                 }
 859:Generated_Source\PSoC4/USBFS_std.c ****                 
 860:Generated_Source\PSoC4/USBFS_std.c ****                 /* Make SIE to NAK any endpoint requests */
 861:Generated_Source\PSoC4/USBFS_std.c ****                 USBFS_SIE_EP_BASE.sieEp[curEp].epCr0 = USBFS_MODE_NAK_IN_OUT;
 862:Generated_Source\PSoC4/USBFS_std.c **** 
 863:Generated_Source\PSoC4/USBFS_std.c ****             #if (USBFS_EP_MANAGEMENT_DMA_AUTO)
 864:Generated_Source\PSoC4/USBFS_std.c ****                 /* Clear IN data ready. */
 865:Generated_Source\PSoC4/USBFS_std.c ****                 USBFS_ARB_EP_BASE.arbEp[curEp].epCfg &= (uint32) ~USBFS_ARB_EPX_CFG_IN_DATA_RDY;
 866:Generated_Source\PSoC4/USBFS_std.c **** 
 867:Generated_Source\PSoC4/USBFS_std.c ****                 /* Select endpoint number of reconfiguration */
 868:Generated_Source\PSoC4/USBFS_std.c ****                 USBFS_DYN_RECONFIG_REG = (uint32) ((curEp - 1u) << USBFS_DYN_RECONFIG_EP_SHIFT);
 869:Generated_Source\PSoC4/USBFS_std.c ****                 
 870:Generated_Source\PSoC4/USBFS_std.c ****                 /* Request for dynamic re-configuration of endpoint. */
 871:Generated_Source\PSoC4/USBFS_std.c ****                 USBFS_DYN_RECONFIG_REG |= USBFS_DYN_RECONFIG_ENABLE;
 872:Generated_Source\PSoC4/USBFS_std.c ****                 
 873:Generated_Source\PSoC4/USBFS_std.c ****                 /* Wait until block is ready for re-configuration */
 874:Generated_Source\PSoC4/USBFS_std.c ****                 while (0u == (USBFS_DYN_RECONFIG_REG & USBFS_DYN_RECONFIG_RDY_STS))
 875:Generated_Source\PSoC4/USBFS_std.c ****                 {
 876:Generated_Source\PSoC4/USBFS_std.c ****                 }
 877:Generated_Source\PSoC4/USBFS_std.c ****                 
 878:Generated_Source\PSoC4/USBFS_std.c ****                 /* Once DYN_RECONFIG_RDY_STS bit is set, FW can change the EP configuration. */
 879:Generated_Source\PSoC4/USBFS_std.c ****                 /* Change EP Type with new direction */
 880:Generated_Source\PSoC4/USBFS_std.c ****                 if (0u != (pEP->addr & USBFS_DIR_IN))
 881:Generated_Source\PSoC4/USBFS_std.c ****                 {
 882:Generated_Source\PSoC4/USBFS_std.c ****                     /* Set endpoint type: 0 - IN and 1 - OUT. */
 883:Generated_Source\PSoC4/USBFS_std.c ****                     USBFS_EP_TYPE_REG &= (uint32) ~(uint32)((uint32) 0x01u << (curEp - 1u));
 884:Generated_Source\PSoC4/USBFS_std.c ****                     
 885:Generated_Source\PSoC4/USBFS_std.c ****                 #if (CY_PSOC4)
 886:Generated_Source\PSoC4/USBFS_std.c ****                     /* Clear DMA_TERMIN for IN endpoint */
 887:Generated_Source\PSoC4/USBFS_std.c ****                     USBFS_ARB_EP_BASE.arbEp[curEp].epIntEn &= (uint32) ~USBFS_ARB_EPX_INT_DMA_TERMI
 888:Generated_Source\PSoC4/USBFS_std.c ****                 #endif /* (CY_PSOC4) */
 889:Generated_Source\PSoC4/USBFS_std.c ****                 }
 890:Generated_Source\PSoC4/USBFS_std.c ****                 else
 891:Generated_Source\PSoC4/USBFS_std.c ****                 {
 892:Generated_Source\PSoC4/USBFS_std.c ****                     /* Set endpoint type: 0 - IN and 1- OUT. */
 893:Generated_Source\PSoC4/USBFS_std.c ****                     USBFS_EP_TYPE_REG |= (uint32) ((uint32) 0x01u << (curEp - 1u));
 894:Generated_Source\PSoC4/USBFS_std.c ****                     
 895:Generated_Source\PSoC4/USBFS_std.c ****                 #if (CY_PSOC4)
 896:Generated_Source\PSoC4/USBFS_std.c ****                     /* Set DMA_TERMIN for OUT endpoint */
 897:Generated_Source\PSoC4/USBFS_std.c ****                     USBFS_ARB_EP_BASE.arbEp[curEp].epIntEn |= (uint32) USBFS_ARB_EPX_INT_DMA_TERMIN
 898:Generated_Source\PSoC4/USBFS_std.c ****                 #endif /* (CY_PSOC4) */
 899:Generated_Source\PSoC4/USBFS_std.c ****                 }
 900:Generated_Source\PSoC4/USBFS_std.c ****                 
 901:Generated_Source\PSoC4/USBFS_std.c ****                 /* Complete dynamic re-configuration: all endpoint related status and signals 
 902:Generated_Source\PSoC4/USBFS_std.c ****                 * are set into the default state.
 903:Generated_Source\PSoC4/USBFS_std.c ****                 */
 904:Generated_Source\PSoC4/USBFS_std.c ****                 USBFS_DYN_RECONFIG_REG &= (uint32) ~USBFS_DYN_RECONFIG_ENABLE;
 905:Generated_Source\PSoC4/USBFS_std.c **** 
 906:Generated_Source\PSoC4/USBFS_std.c ****             #else
 907:Generated_Source\PSoC4/USBFS_std.c ****                 USBFS_SIE_EP_BASE.sieEp[curEp].epCnt0 = HI8(USBFS_EP[curEp].bufferSize);
ARM GAS  C:\Users\TERENC~1\AppData\Local\Temp\ccVnttLg.s 			page 23


 908:Generated_Source\PSoC4/USBFS_std.c ****                 USBFS_SIE_EP_BASE.sieEp[curEp].epCnt1 = LO8(USBFS_EP[curEp].bufferSize);
 909:Generated_Source\PSoC4/USBFS_std.c ****                 
 910:Generated_Source\PSoC4/USBFS_std.c ****                 #if (CY_PSOC4)
 911:Generated_Source\PSoC4/USBFS_std.c ****                     USBFS_ARB_EP16_BASE.arbEp[curEp].rwRa16  = (uint32) USBFS_EP[curEp].buffOffset;
 912:Generated_Source\PSoC4/USBFS_std.c ****                     USBFS_ARB_EP16_BASE.arbEp[curEp].rwWa16  = (uint32) USBFS_EP[curEp].buffOffset;
 913:Generated_Source\PSoC4/USBFS_std.c ****                 #else
 914:Generated_Source\PSoC4/USBFS_std.c ****                     USBFS_ARB_EP_BASE.arbEp[curEp].rwRa    = LO8(USBFS_EP[curEp].buffOffset);
 915:Generated_Source\PSoC4/USBFS_std.c ****                     USBFS_ARB_EP_BASE.arbEp[curEp].rwRaMsb = HI8(USBFS_EP[curEp].buffOffset);
 916:Generated_Source\PSoC4/USBFS_std.c ****                     USBFS_ARB_EP_BASE.arbEp[curEp].rwWa    = LO8(USBFS_EP[curEp].buffOffset);
 917:Generated_Source\PSoC4/USBFS_std.c ****                     USBFS_ARB_EP_BASE.arbEp[curEp].rwWaMsb = HI8(USBFS_EP[curEp].buffOffset);
 918:Generated_Source\PSoC4/USBFS_std.c ****                 #endif /* (CY_PSOC4) */                
 919:Generated_Source\PSoC4/USBFS_std.c ****             #endif /* (USBFS_EP_MANAGEMENT_DMA_AUTO) */
 920:Generated_Source\PSoC4/USBFS_std.c ****             }
 921:Generated_Source\PSoC4/USBFS_std.c ****             
 922:Generated_Source\PSoC4/USBFS_std.c ****             pEP = &pEP[1u]; /* Get next EP element */
 923:Generated_Source\PSoC4/USBFS_std.c ****         }
 924:Generated_Source\PSoC4/USBFS_std.c ****         
 925:Generated_Source\PSoC4/USBFS_std.c ****         /* The main loop has to re-enable DMA and OUT endpoint */
 926:Generated_Source\PSoC4/USBFS_std.c ****     }
 927:Generated_Source\PSoC4/USBFS_std.c **** }
 928:Generated_Source\PSoC4/USBFS_std.c **** 
 929:Generated_Source\PSoC4/USBFS_std.c **** 
 930:Generated_Source\PSoC4/USBFS_std.c **** /*******************************************************************************
 931:Generated_Source\PSoC4/USBFS_std.c **** * Function Name: USBFS_GetConfigTablePtr
 932:Generated_Source\PSoC4/USBFS_std.c **** ****************************************************************************//**
 933:Generated_Source\PSoC4/USBFS_std.c **** *
 934:Generated_Source\PSoC4/USBFS_std.c **** *  This routine returns a pointer a configuration table entry
 935:Generated_Source\PSoC4/USBFS_std.c **** *
 936:Generated_Source\PSoC4/USBFS_std.c **** *  \param confIndex:  Configuration Index
 937:Generated_Source\PSoC4/USBFS_std.c **** *
 938:Generated_Source\PSoC4/USBFS_std.c **** * \return
 939:Generated_Source\PSoC4/USBFS_std.c **** *  Device Descriptor pointer or NULL when descriptor does not exist.
 940:Generated_Source\PSoC4/USBFS_std.c **** *
 941:Generated_Source\PSoC4/USBFS_std.c **** *******************************************************************************/
 942:Generated_Source\PSoC4/USBFS_std.c **** const T_USBFS_LUT CYCODE *USBFS_GetConfigTablePtr(uint8 confIndex)
 943:Generated_Source\PSoC4/USBFS_std.c ****                                                         
 944:Generated_Source\PSoC4/USBFS_std.c **** {
 341              		.loc 1 944 0
 342              		.cfi_startproc
 343              		@ args = 0, pretend = 0, frame = 0
 344              		@ frame_needed = 0, uses_anonymous_args = 0
 345              		@ link register save eliminated.
 346              	.LVL18:
 945:Generated_Source\PSoC4/USBFS_std.c ****     /* Device Table */
 946:Generated_Source\PSoC4/USBFS_std.c ****     const T_USBFS_LUT CYCODE *pTmp;
 947:Generated_Source\PSoC4/USBFS_std.c **** 
 948:Generated_Source\PSoC4/USBFS_std.c ****     pTmp = (const T_USBFS_LUT CYCODE *) USBFS_TABLE[USBFS_device].p_list;
 347              		.loc 1 948 0
 348 0000 074B     		ldr	r3, .L25
 349 0002 1B78     		ldrb	r3, [r3]
 350 0004 DB00     		lsls	r3, r3, #3
 351 0006 074A     		ldr	r2, .L25+4
 352 0008 D318     		adds	r3, r2, r3
 353 000a 5B68     		ldr	r3, [r3, #4]
 354              	.LVL19:
 949:Generated_Source\PSoC4/USBFS_std.c **** 
 950:Generated_Source\PSoC4/USBFS_std.c ****     /* The first entry points to the Device Descriptor,
ARM GAS  C:\Users\TERENC~1\AppData\Local\Temp\ccVnttLg.s 			page 24


 951:Generated_Source\PSoC4/USBFS_std.c ****     *  the second entry point to the BOS Descriptor
 952:Generated_Source\PSoC4/USBFS_std.c ****     *  the rest configuration entries.
 953:Generated_Source\PSoC4/USBFS_std.c ****     *  Set pointer to the first Configuration Descriptor
 954:Generated_Source\PSoC4/USBFS_std.c ****     */
 955:Generated_Source\PSoC4/USBFS_std.c ****     pTmp = &pTmp[2u];
 956:Generated_Source\PSoC4/USBFS_std.c ****     /* For this table, c is the number of configuration descriptors  */
 957:Generated_Source\PSoC4/USBFS_std.c ****     if(confIndex >= pTmp->c)   /* Verify that required configuration descriptor exists */
 355              		.loc 1 957 0
 356 000c 1A7C     		ldrb	r2, [r3, #16]
 357 000e 8242     		cmp	r2, r0
 358 0010 04D9     		bls	.L24
 958:Generated_Source\PSoC4/USBFS_std.c ****     {
 959:Generated_Source\PSoC4/USBFS_std.c ****         pTmp = (const T_USBFS_LUT CYCODE *) NULL;
 960:Generated_Source\PSoC4/USBFS_std.c ****     }
 961:Generated_Source\PSoC4/USBFS_std.c ****     else
 962:Generated_Source\PSoC4/USBFS_std.c ****     {
 963:Generated_Source\PSoC4/USBFS_std.c ****         pTmp = (const T_USBFS_LUT CYCODE *) pTmp[confIndex].p_list;
 359              		.loc 1 963 0
 360 0012 C000     		lsls	r0, r0, #3
 361              	.LVL20:
 362 0014 1030     		adds	r0, r0, #16
 363 0016 1818     		adds	r0, r3, r0
 364 0018 4068     		ldr	r0, [r0, #4]
 365              	.LVL21:
 366 001a 00E0     		b	.L23
 367              	.LVL22:
 368              	.L24:
 959:Generated_Source\PSoC4/USBFS_std.c ****     }
 369              		.loc 1 959 0
 370 001c 0020     		movs	r0, #0
 371              	.LVL23:
 372              	.L23:
 964:Generated_Source\PSoC4/USBFS_std.c ****     }
 965:Generated_Source\PSoC4/USBFS_std.c **** 
 966:Generated_Source\PSoC4/USBFS_std.c ****     return (pTmp);
 967:Generated_Source\PSoC4/USBFS_std.c **** }
 373              		.loc 1 967 0
 374              		@ sp needed
 375 001e 7047     		bx	lr
 376              	.L26:
 377              		.align	2
 378              	.L25:
 379 0020 00000000 		.word	USBFS_device
 380 0024 00000000 		.word	USBFS_TABLE
 381              		.cfi_endproc
 382              	.LFE167:
 383              		.size	USBFS_GetConfigTablePtr, .-USBFS_GetConfigTablePtr
 384              		.section	.text.USBFS_ConfigAltChanged,"ax",%progbits
 385              		.align	2
 386              		.global	USBFS_ConfigAltChanged
 387              		.code	16
 388              		.thumb_func
 389              		.type	USBFS_ConfigAltChanged, %function
 390              	USBFS_ConfigAltChanged:
 391              	.LFB166:
 806:Generated_Source\PSoC4/USBFS_std.c ****     uint32 ep;
 392              		.loc 1 806 0
ARM GAS  C:\Users\TERENC~1\AppData\Local\Temp\ccVnttLg.s 			page 25


 393              		.cfi_startproc
 394              		@ args = 0, pretend = 0, frame = 0
 395              		@ frame_needed = 0, uses_anonymous_args = 0
 396 0000 F0B5     		push	{r4, r5, r6, r7, lr}
 397              		.cfi_def_cfa_offset 20
 398              		.cfi_offset 4, -20
 399              		.cfi_offset 5, -16
 400              		.cfi_offset 6, -12
 401              		.cfi_offset 7, -8
 402              		.cfi_offset 14, -4
 403 0002 5746     		mov	r7, r10
 404 0004 4E46     		mov	r6, r9
 405 0006 4546     		mov	r5, r8
 406 0008 E0B4     		push	{r5, r6, r7}
 407              		.cfi_def_cfa_offset 32
 408              		.cfi_offset 8, -32
 409              		.cfi_offset 9, -28
 410              		.cfi_offset 10, -24
 817:Generated_Source\PSoC4/USBFS_std.c ****     {
 411              		.loc 1 817 0
 412 000a 544B     		ldr	r3, .L41
 413 000c 1B78     		ldrb	r3, [r3]
 414 000e 002B     		cmp	r3, #0
 415 0010 00D1     		bne	.LCB384
 416 0012 9EE0     		b	.L27	@long jump
 417              	.LCB384:
 820:Generated_Source\PSoC4/USBFS_std.c ****         pTmp = &pTmp[1u];
 418              		.loc 1 820 0
 419 0014 514B     		ldr	r3, .L41
 420 0016 1878     		ldrb	r0, [r3]
 421 0018 0138     		subs	r0, r0, #1
 422 001a C0B2     		uxtb	r0, r0
 423 001c FFF7FEFF 		bl	USBFS_GetConfigTablePtr
 424              	.LVL24:
 822:Generated_Source\PSoC4/USBFS_std.c **** 
 425              		.loc 1 822 0
 426 0020 057A     		ldrb	r5, [r0, #8]
 427              	.LVL25:
 825:Generated_Source\PSoC4/USBFS_std.c ****         
 428              		.loc 1 825 0
 429 0022 C368     		ldr	r3, [r0, #12]
 430              	.LVL26:
 831:Generated_Source\PSoC4/USBFS_std.c ****         for (i = 0u; i < ep; i++)
 431              		.loc 1 831 0
 432 0024 4E4A     		ldr	r2, .L41+4
 433 0026 1078     		ldrb	r0, [r2]
 434              	.LVL27:
 435 0028 C0B2     		uxtb	r0, r0
 436              	.LVL28:
 832:Generated_Source\PSoC4/USBFS_std.c ****         {
 437              		.loc 1 832 0
 438 002a 0022     		movs	r2, #0
 439 002c 8EE0     		b	.L29
 440              	.LVL29:
 441              	.L38:
 835:Generated_Source\PSoC4/USBFS_std.c ****                 (USBFS_interfaceSetting[interfaceNum] == pEP->altSetting))
 442              		.loc 1 835 0
ARM GAS  C:\Users\TERENC~1\AppData\Local\Temp\ccVnttLg.s 			page 26


 443 002e 1978     		ldrb	r1, [r3]
 444 0030 8842     		cmp	r0, r1
 445 0032 00D0     		beq	.LCB412
 446 0034 88E0     		b	.L30	@long jump
 447              	.LCB412:
 836:Generated_Source\PSoC4/USBFS_std.c ****             {
 448              		.loc 1 836 0 discriminator 1
 449 0036 4B49     		ldr	r1, .L41+8
 450 0038 095C     		ldrb	r1, [r1, r0]
 451 003a C9B2     		uxtb	r1, r1
 452 003c 5C78     		ldrb	r4, [r3, #1]
 835:Generated_Source\PSoC4/USBFS_std.c ****                 (USBFS_interfaceSetting[interfaceNum] == pEP->altSetting))
 453              		.loc 1 835 0 discriminator 1
 454 003e A142     		cmp	r1, r4
 455 0040 00D0     		beq	.LCB419
 456 0042 81E0     		b	.L30	@long jump
 457              	.LCB419:
 838:Generated_Source\PSoC4/USBFS_std.c ****                 epType = ((uint32) pEP->attributes & USBFS_EP_TYPE_MASK);
 458              		.loc 1 838 0
 459 0044 9978     		ldrb	r1, [r3, #2]
 460 0046 7F24     		movs	r4, #127
 461 0048 0C40     		ands	r4, r1
 462              	.LVL30:
 839:Generated_Source\PSoC4/USBFS_std.c ****                 
 463              		.loc 1 839 0
 464 004a D978     		ldrb	r1, [r3, #3]
 465 004c 0326     		movs	r6, #3
 466 004e 0E40     		ands	r6, r1
 467 0050 B446     		mov	ip, r6
 468              	.LVL31:
 842:Generated_Source\PSoC4/USBFS_std.c ****                 USBFS_EP[curEp].addr       = pEP->addr;
 469              		.loc 1 842 0
 470 0052 4549     		ldr	r1, .L41+12
 471 0054 8846     		mov	r8, r1
 472 0056 6600     		lsls	r6, r4, #1
 473              	.LVL32:
 474 0058 3719     		adds	r7, r6, r4
 475 005a B900     		lsls	r1, r7, #2
 476 005c 4144     		add	r1, r1, r8
 477 005e 8A46     		mov	r10, r1
 478 0060 0027     		movs	r7, #0
 479 0062 CF70     		strb	r7, [r1, #3]
 843:Generated_Source\PSoC4/USBFS_std.c ****                 USBFS_EP[curEp].attrib     = pEP->attributes;
 480              		.loc 1 843 0
 481 0064 9F78     		ldrb	r7, [r3, #2]
 482 0066 0F71     		strb	r7, [r1, #4]
 844:Generated_Source\PSoC4/USBFS_std.c ****                 USBFS_EP[curEp].bufferSize = pEP->bufferSize;
 483              		.loc 1 844 0
 484 0068 DF78     		ldrb	r7, [r3, #3]
 485 006a B946     		mov	r9, r7
 486 006c 3619     		adds	r6, r6, r4
 487 006e B700     		lsls	r7, r6, #2
 488 0070 4646     		mov	r6, r8
 489 0072 4946     		mov	r1, r9
 490 0074 B955     		strb	r1, [r7, r6]
 845:Generated_Source\PSoC4/USBFS_std.c **** 
 491              		.loc 1 845 0
ARM GAS  C:\Users\TERENC~1\AppData\Local\Temp\ccVnttLg.s 			page 27


 492 0076 9E88     		ldrh	r6, [r3, #4]
 493 0078 5146     		mov	r1, r10
 494 007a 0E81     		strh	r6, [r1, #8]
 847:Generated_Source\PSoC4/USBFS_std.c ****                 {
 495              		.loc 1 847 0
 496 007c 0221     		movs	r1, #2
 497 007e 5956     		ldrsb	r1, [r3, r1]
 498 0080 0029     		cmp	r1, #0
 499 0082 0EDA     		bge	.L31
 850:Generated_Source\PSoC4/USBFS_std.c ****                     USBFS_EP[curEp].apiEpState = USBFS_EVENT_PENDING;
 500              		.loc 1 850 0
 501 0084 6146     		mov	r1, ip
 502 0086 0129     		cmp	r1, #1
 503 0088 01D1     		bne	.L39
 504 008a 0727     		movs	r7, #7
 505 008c 00E0     		b	.L32
 506              	.L39:
 507 008e 0D27     		movs	r7, #13
 508              	.L32:
 850:Generated_Source\PSoC4/USBFS_std.c ****                     USBFS_EP[curEp].apiEpState = USBFS_EVENT_PENDING;
 509              		.loc 1 850 0 is_stmt 0 discriminator 4
 510 0090 6600     		lsls	r6, r4, #1
 511 0092 3619     		adds	r6, r6, r4
 512 0094 B100     		lsls	r1, r6, #2
 513 0096 344E     		ldr	r6, .L41+12
 514 0098 7118     		adds	r1, r6, r1
 515 009a 4F71     		strb	r7, [r1, #5]
 851:Generated_Source\PSoC4/USBFS_std.c ****                 }
 516              		.loc 1 851 0 is_stmt 1 discriminator 4
 517 009c 0126     		movs	r6, #1
 518 009e 4E70     		strb	r6, [r1, #1]
 519 00a0 0DE0     		b	.L33
 520              	.L31:
 856:Generated_Source\PSoC4/USBFS_std.c ****                     USBFS_EP[curEp].apiEpState = USBFS_NO_EVENT_PENDING;
 521              		.loc 1 856 0
 522 00a2 6146     		mov	r1, ip
 523 00a4 0129     		cmp	r1, #1
 524 00a6 01D1     		bne	.L40
 525              	.LVL33:
 526 00a8 0527     		movs	r7, #5
 527 00aa 00E0     		b	.L34
 528              	.L40:
 529 00ac 0927     		movs	r7, #9
 530              	.L34:
 856:Generated_Source\PSoC4/USBFS_std.c ****                     USBFS_EP[curEp].apiEpState = USBFS_NO_EVENT_PENDING;
 531              		.loc 1 856 0 is_stmt 0 discriminator 4
 532 00ae 6600     		lsls	r6, r4, #1
 533 00b0 3619     		adds	r6, r6, r4
 534 00b2 B100     		lsls	r1, r6, #2
 535              	.LVL34:
 536 00b4 2C4E     		ldr	r6, .L41+12
 537 00b6 7118     		adds	r1, r6, r1
 538 00b8 4F71     		strb	r7, [r1, #5]
 857:Generated_Source\PSoC4/USBFS_std.c ****                 }
 539              		.loc 1 857 0 is_stmt 1 discriminator 4
 540 00ba 0026     		movs	r6, #0
 541 00bc 4E70     		strb	r6, [r1, #1]
ARM GAS  C:\Users\TERENC~1\AppData\Local\Temp\ccVnttLg.s 			page 28


 542              	.L33:
 861:Generated_Source\PSoC4/USBFS_std.c **** 
 543              		.loc 1 861 0
 544 00be A601     		lsls	r6, r4, #6
 545 00c0 2A49     		ldr	r1, .L41+16
 546 00c2 7118     		adds	r1, r6, r1
 547 00c4 0127     		movs	r7, #1
 548 00c6 BC46     		mov	ip, r7
 549              	.LVL35:
 550 00c8 8F60     		str	r7, [r1, #8]
 865:Generated_Source\PSoC4/USBFS_std.c **** 
 551              		.loc 1 865 0
 552 00ca 2949     		ldr	r1, .L41+20
 553 00cc 8846     		mov	r8, r1
 554 00ce 7758     		ldr	r7, [r6, r1]
 555 00d0 6146     		mov	r1, ip
 556 00d2 8F43     		bics	r7, r1
 557 00d4 4146     		mov	r1, r8
 558 00d6 7750     		str	r7, [r6, r1]
 868:Generated_Source\PSoC4/USBFS_std.c ****                 
 559              		.loc 1 868 0
 560 00d8 671E     		subs	r7, r4, #1
 561 00da 7900     		lsls	r1, r7, #1
 562 00dc 254E     		ldr	r6, .L41+24
 563 00de B046     		mov	r8, r6
 564 00e0 3160     		str	r1, [r6]
 871:Generated_Source\PSoC4/USBFS_std.c ****                 
 565              		.loc 1 871 0
 566 00e2 3168     		ldr	r1, [r6]
 567 00e4 6646     		mov	r6, ip
 568 00e6 3143     		orrs	r1, r6
 569 00e8 4646     		mov	r6, r8
 570 00ea 3160     		str	r1, [r6]
 571              	.L35:
 874:Generated_Source\PSoC4/USBFS_std.c ****                 {
 572              		.loc 1 874 0 discriminator 1
 573 00ec 2149     		ldr	r1, .L41+24
 574 00ee 0968     		ldr	r1, [r1]
 575 00f0 C906     		lsls	r1, r1, #27
 576 00f2 FBD5     		bpl	.L35
 880:Generated_Source\PSoC4/USBFS_std.c ****                 {
 577              		.loc 1 880 0
 578 00f4 0221     		movs	r1, #2
 579 00f6 5956     		ldrsb	r1, [r3, r1]
 580 00f8 0029     		cmp	r1, #0
 581 00fa 10DA     		bge	.L36
 883:Generated_Source\PSoC4/USBFS_std.c ****                     
 582              		.loc 1 883 0
 583 00fc 1E49     		ldr	r1, .L41+28
 584 00fe 8C46     		mov	ip, r1
 585 0100 0968     		ldr	r1, [r1]
 586 0102 0126     		movs	r6, #1
 587 0104 BE40     		lsls	r6, r6, r7
 588 0106 B143     		bics	r1, r6
 589 0108 6646     		mov	r6, ip
 590 010a 3160     		str	r1, [r6]
 887:Generated_Source\PSoC4/USBFS_std.c ****                 #endif /* (CY_PSOC4) */
ARM GAS  C:\Users\TERENC~1\AppData\Local\Temp\ccVnttLg.s 			page 29


 591              		.loc 1 887 0
 592 010c A401     		lsls	r4, r4, #6
 593              	.LVL36:
 594 010e 1849     		ldr	r1, .L41+20
 595 0110 8C46     		mov	ip, r1
 596 0112 6444     		add	r4, r4, ip
 597 0114 6168     		ldr	r1, [r4, #4]
 598 0116 2026     		movs	r6, #32
 599 0118 B143     		bics	r1, r6
 600 011a 6160     		str	r1, [r4, #4]
 601 011c 0FE0     		b	.L37
 602              	.LVL37:
 603              	.L36:
 893:Generated_Source\PSoC4/USBFS_std.c ****                     
 604              		.loc 1 893 0
 605 011e 164E     		ldr	r6, .L41+28
 606 0120 3168     		ldr	r1, [r6]
 607 0122 8C46     		mov	ip, r1
 608 0124 0121     		movs	r1, #1
 609 0126 B940     		lsls	r1, r1, r7
 610 0128 6746     		mov	r7, ip
 611 012a 3943     		orrs	r1, r7
 612 012c 3160     		str	r1, [r6]
 897:Generated_Source\PSoC4/USBFS_std.c ****                 #endif /* (CY_PSOC4) */
 613              		.loc 1 897 0
 614 012e A401     		lsls	r4, r4, #6
 615              	.LVL38:
 616 0130 0F49     		ldr	r1, .L41+20
 617 0132 8C46     		mov	ip, r1
 618 0134 6444     		add	r4, r4, ip
 619 0136 6668     		ldr	r6, [r4, #4]
 620 0138 2021     		movs	r1, #32
 621 013a 3143     		orrs	r1, r6
 622 013c 6160     		str	r1, [r4, #4]
 623              	.L37:
 904:Generated_Source\PSoC4/USBFS_std.c **** 
 624              		.loc 1 904 0
 625 013e 0D4C     		ldr	r4, .L41+24
 626 0140 2168     		ldr	r1, [r4]
 627 0142 0126     		movs	r6, #1
 628 0144 B143     		bics	r1, r6
 629 0146 2160     		str	r1, [r4]
 630              	.L30:
 922:Generated_Source\PSoC4/USBFS_std.c ****         }
 631              		.loc 1 922 0 discriminator 2
 632 0148 0833     		adds	r3, r3, #8
 633              	.LVL39:
 832:Generated_Source\PSoC4/USBFS_std.c ****         {
 634              		.loc 1 832 0 discriminator 2
 635 014a 0132     		adds	r2, r2, #1
 636              	.LVL40:
 637              	.L29:
 832:Generated_Source\PSoC4/USBFS_std.c ****         {
 638              		.loc 1 832 0 is_stmt 0 discriminator 1
 639 014c AA42     		cmp	r2, r5
 640 014e 00D2     		bcs	.LCB618
 641 0150 6DE7     		b	.L38	@long jump
ARM GAS  C:\Users\TERENC~1\AppData\Local\Temp\ccVnttLg.s 			page 30


 642              	.LCB618:
 643              	.LVL41:
 644              	.L27:
 927:Generated_Source\PSoC4/USBFS_std.c **** 
 645              		.loc 1 927 0 is_stmt 1
 646              		@ sp needed
 647 0152 1CBC     		pop	{r2, r3, r4}
 648 0154 9046     		mov	r8, r2
 649 0156 9946     		mov	r9, r3
 650 0158 A246     		mov	r10, r4
 651 015a F0BD     		pop	{r4, r5, r6, r7, pc}
 652              	.L42:
 653              		.align	2
 654              	.L41:
 655 015c 00000000 		.word	USBFS_configuration
 656 0160 00000000 		.word	USBFS_interfaceNumber
 657 0164 00000000 		.word	USBFS_interfaceSetting
 658 0168 00000000 		.word	USBFS_EP
 659 016c F0FF2B40 		.word	1076625392
 660 0170 C0012C40 		.word	1076625856
 661 0174 50002C40 		.word	1076625488
 662 0178 3C022C40 		.word	1076625980
 663              		.cfi_endproc
 664              	.LFE166:
 665              		.size	USBFS_ConfigAltChanged, .-USBFS_ConfigAltChanged
 666              		.section	.text.USBFS_GetDeviceTablePtr,"ax",%progbits
 667              		.align	2
 668              		.global	USBFS_GetDeviceTablePtr
 669              		.code	16
 670              		.thumb_func
 671              		.type	USBFS_GetDeviceTablePtr, %function
 672              	USBFS_GetDeviceTablePtr:
 673              	.LFB168:
 968:Generated_Source\PSoC4/USBFS_std.c **** 
 969:Generated_Source\PSoC4/USBFS_std.c **** 
 970:Generated_Source\PSoC4/USBFS_std.c **** #if (USBFS_BOS_ENABLE)
 971:Generated_Source\PSoC4/USBFS_std.c ****     /*******************************************************************************
 972:Generated_Source\PSoC4/USBFS_std.c ****     * Function Name: USBFS_GetBOSPtr
 973:Generated_Source\PSoC4/USBFS_std.c ****     ****************************************************************************//**
 974:Generated_Source\PSoC4/USBFS_std.c ****     *
 975:Generated_Source\PSoC4/USBFS_std.c ****     *  This routine returns a pointer a BOS table entry
 976:Generated_Source\PSoC4/USBFS_std.c ****     *
 977:Generated_Source\PSoC4/USBFS_std.c ****     *  
 978:Generated_Source\PSoC4/USBFS_std.c ****     *
 979:Generated_Source\PSoC4/USBFS_std.c ****     * \return
 980:Generated_Source\PSoC4/USBFS_std.c ****     *  BOS Descriptor pointer or NULL when descriptor does not exist.
 981:Generated_Source\PSoC4/USBFS_std.c ****     *
 982:Generated_Source\PSoC4/USBFS_std.c ****     *******************************************************************************/
 983:Generated_Source\PSoC4/USBFS_std.c ****     const T_USBFS_LUT CYCODE *USBFS_GetBOSPtr(void)
 984:Generated_Source\PSoC4/USBFS_std.c ****                                                             
 985:Generated_Source\PSoC4/USBFS_std.c ****     {
 986:Generated_Source\PSoC4/USBFS_std.c ****         /* Device Table */
 987:Generated_Source\PSoC4/USBFS_std.c ****         const T_USBFS_LUT CYCODE *pTmp;
 988:Generated_Source\PSoC4/USBFS_std.c **** 
 989:Generated_Source\PSoC4/USBFS_std.c ****         pTmp = (const T_USBFS_LUT CYCODE *) USBFS_TABLE[USBFS_device].p_list;
 990:Generated_Source\PSoC4/USBFS_std.c **** 
 991:Generated_Source\PSoC4/USBFS_std.c ****         /* The first entry points to the Device Descriptor,
ARM GAS  C:\Users\TERENC~1\AppData\Local\Temp\ccVnttLg.s 			page 31


 992:Generated_Source\PSoC4/USBFS_std.c ****         *  the second entry points to the BOS Descriptor
 993:Generated_Source\PSoC4/USBFS_std.c ****         */
 994:Generated_Source\PSoC4/USBFS_std.c ****         pTmp = &pTmp[1u];
 995:Generated_Source\PSoC4/USBFS_std.c ****         pTmp = (const T_USBFS_LUT CYCODE *) pTmp->p_list;
 996:Generated_Source\PSoC4/USBFS_std.c ****         return (pTmp);
 997:Generated_Source\PSoC4/USBFS_std.c ****     }
 998:Generated_Source\PSoC4/USBFS_std.c **** #endif /* (USBFS_BOS_ENABLE) */
 999:Generated_Source\PSoC4/USBFS_std.c **** 
1000:Generated_Source\PSoC4/USBFS_std.c **** 
1001:Generated_Source\PSoC4/USBFS_std.c **** /*******************************************************************************
1002:Generated_Source\PSoC4/USBFS_std.c **** * Function Name: USBFS_GetDeviceTablePtr
1003:Generated_Source\PSoC4/USBFS_std.c **** ****************************************************************************//**
1004:Generated_Source\PSoC4/USBFS_std.c **** *
1005:Generated_Source\PSoC4/USBFS_std.c **** *  This routine returns a pointer to the Device table
1006:Generated_Source\PSoC4/USBFS_std.c **** *
1007:Generated_Source\PSoC4/USBFS_std.c **** * \return
1008:Generated_Source\PSoC4/USBFS_std.c **** *  Device Table pointer
1009:Generated_Source\PSoC4/USBFS_std.c **** *
1010:Generated_Source\PSoC4/USBFS_std.c **** *******************************************************************************/
1011:Generated_Source\PSoC4/USBFS_std.c **** const T_USBFS_LUT CYCODE *USBFS_GetDeviceTablePtr(void)
1012:Generated_Source\PSoC4/USBFS_std.c ****                                                             
1013:Generated_Source\PSoC4/USBFS_std.c **** {
 674              		.loc 1 1013 0
 675              		.cfi_startproc
 676              		@ args = 0, pretend = 0, frame = 0
 677              		@ frame_needed = 0, uses_anonymous_args = 0
 678              		@ link register save eliminated.
1014:Generated_Source\PSoC4/USBFS_std.c ****     /* Device Table */
1015:Generated_Source\PSoC4/USBFS_std.c ****     return( (const T_USBFS_LUT CYCODE *) USBFS_TABLE[USBFS_device].p_list );
 679              		.loc 1 1015 0
 680 0000 034B     		ldr	r3, .L44
 681 0002 1B78     		ldrb	r3, [r3]
 682 0004 DB00     		lsls	r3, r3, #3
 683 0006 034A     		ldr	r2, .L44+4
 684 0008 D318     		adds	r3, r2, r3
 685 000a 5868     		ldr	r0, [r3, #4]
1016:Generated_Source\PSoC4/USBFS_std.c **** }
 686              		.loc 1 1016 0
 687              		@ sp needed
 688 000c 7047     		bx	lr
 689              	.L45:
 690 000e C046     		.align	2
 691              	.L44:
 692 0010 00000000 		.word	USBFS_device
 693 0014 00000000 		.word	USBFS_TABLE
 694              		.cfi_endproc
 695              	.LFE168:
 696              		.size	USBFS_GetDeviceTablePtr, .-USBFS_GetDeviceTablePtr
 697              		.section	.text.USBFS_GetInterfaceClassTablePtr,"ax",%progbits
 698              		.align	2
 699              		.global	USBFS_GetInterfaceClassTablePtr
 700              		.code	16
 701              		.thumb_func
 702              		.type	USBFS_GetInterfaceClassTablePtr, %function
 703              	USBFS_GetInterfaceClassTablePtr:
 704              	.LFB169:
1017:Generated_Source\PSoC4/USBFS_std.c **** 
ARM GAS  C:\Users\TERENC~1\AppData\Local\Temp\ccVnttLg.s 			page 32


1018:Generated_Source\PSoC4/USBFS_std.c **** 
1019:Generated_Source\PSoC4/USBFS_std.c **** /*******************************************************************************
1020:Generated_Source\PSoC4/USBFS_std.c **** * Function Name: USB_GetInterfaceClassTablePtr
1021:Generated_Source\PSoC4/USBFS_std.c **** ****************************************************************************//**
1022:Generated_Source\PSoC4/USBFS_std.c **** *
1023:Generated_Source\PSoC4/USBFS_std.c **** *  This routine returns Interface Class table pointer, which contains
1024:Generated_Source\PSoC4/USBFS_std.c **** *  the relation between interface number and interface class.
1025:Generated_Source\PSoC4/USBFS_std.c **** *
1026:Generated_Source\PSoC4/USBFS_std.c **** * \return
1027:Generated_Source\PSoC4/USBFS_std.c **** *  Interface Class table pointer.
1028:Generated_Source\PSoC4/USBFS_std.c **** *
1029:Generated_Source\PSoC4/USBFS_std.c **** *******************************************************************************/
1030:Generated_Source\PSoC4/USBFS_std.c **** const uint8 CYCODE *USBFS_GetInterfaceClassTablePtr(void)
1031:Generated_Source\PSoC4/USBFS_std.c ****                                                         
1032:Generated_Source\PSoC4/USBFS_std.c **** {
 705              		.loc 1 1032 0
 706              		.cfi_startproc
 707              		@ args = 0, pretend = 0, frame = 0
 708              		@ frame_needed = 0, uses_anonymous_args = 0
 709 0000 10B5     		push	{r4, lr}
 710              		.cfi_def_cfa_offset 8
 711              		.cfi_offset 4, -8
 712              		.cfi_offset 14, -4
1033:Generated_Source\PSoC4/USBFS_std.c ****     const T_USBFS_LUT CYCODE *pTmp;
1034:Generated_Source\PSoC4/USBFS_std.c ****     const uint8 CYCODE *pInterfaceClass;
1035:Generated_Source\PSoC4/USBFS_std.c ****     uint8 currentInterfacesNum;
1036:Generated_Source\PSoC4/USBFS_std.c **** 
1037:Generated_Source\PSoC4/USBFS_std.c ****     pTmp = USBFS_GetConfigTablePtr(USBFS_configuration - 1u);
 713              		.loc 1 1037 0
 714 0002 084B     		ldr	r3, .L49
 715 0004 1878     		ldrb	r0, [r3]
 716 0006 0138     		subs	r0, r0, #1
 717 0008 C0B2     		uxtb	r0, r0
 718 000a FFF7FEFF 		bl	USBFS_GetConfigTablePtr
 719              	.LVL42:
1038:Generated_Source\PSoC4/USBFS_std.c ****     if (pTmp != NULL)
 720              		.loc 1 1038 0
 721 000e 0028     		cmp	r0, #0
 722 0010 06D0     		beq	.L48
1039:Generated_Source\PSoC4/USBFS_std.c ****     {
1040:Generated_Source\PSoC4/USBFS_std.c ****         currentInterfacesNum  = ((const uint8 *) pTmp->p_list)[USBFS_CONFIG_DESCR_NUM_INTERFACES];
 723              		.loc 1 1040 0
 724 0012 4368     		ldr	r3, [r0, #4]
 725 0014 1B79     		ldrb	r3, [r3, #4]
 726              	.LVL43:
1041:Generated_Source\PSoC4/USBFS_std.c ****         /* Third entry in the LUT starts the Interface Table pointers */
1042:Generated_Source\PSoC4/USBFS_std.c ****         /* The INTERFACE_CLASS table is located after all interfaces */
1043:Generated_Source\PSoC4/USBFS_std.c ****         pTmp = &pTmp[currentInterfacesNum + 2u];
 727              		.loc 1 1043 0
 728 0016 0233     		adds	r3, r3, #2
 729              	.LVL44:
 730 0018 DB00     		lsls	r3, r3, #3
 731              	.LVL45:
 732 001a C018     		adds	r0, r0, r3
 733              	.LVL46:
1044:Generated_Source\PSoC4/USBFS_std.c ****         pInterfaceClass = (const uint8 CYCODE *) pTmp->p_list;
 734              		.loc 1 1044 0
ARM GAS  C:\Users\TERENC~1\AppData\Local\Temp\ccVnttLg.s 			page 33


 735 001c 4068     		ldr	r0, [r0, #4]
 736              	.LVL47:
 737 001e 00E0     		b	.L47
 738              	.LVL48:
 739              	.L48:
1045:Generated_Source\PSoC4/USBFS_std.c ****     }
1046:Generated_Source\PSoC4/USBFS_std.c ****     else
1047:Generated_Source\PSoC4/USBFS_std.c ****     {
1048:Generated_Source\PSoC4/USBFS_std.c ****         pInterfaceClass = (const uint8 CYCODE *) NULL;
 740              		.loc 1 1048 0
 741 0020 0020     		movs	r0, #0
 742              	.LVL49:
 743              	.L47:
1049:Generated_Source\PSoC4/USBFS_std.c ****     }
1050:Generated_Source\PSoC4/USBFS_std.c **** 
1051:Generated_Source\PSoC4/USBFS_std.c ****     return (pInterfaceClass);
1052:Generated_Source\PSoC4/USBFS_std.c **** }
 744              		.loc 1 1052 0
 745              		@ sp needed
 746 0022 10BD     		pop	{r4, pc}
 747              	.L50:
 748              		.align	2
 749              	.L49:
 750 0024 00000000 		.word	USBFS_configuration
 751              		.cfi_endproc
 752              	.LFE169:
 753              		.size	USBFS_GetInterfaceClassTablePtr, .-USBFS_GetInterfaceClassTablePtr
 754              		.section	.text.USBFS_Config,"ax",%progbits
 755              		.align	2
 756              		.global	USBFS_Config
 757              		.code	16
 758              		.thumb_func
 759              		.type	USBFS_Config, %function
 760              	USBFS_Config:
 761              	.LFB165:
 571:Generated_Source\PSoC4/USBFS_std.c ****     uint8 ep;
 762              		.loc 1 571 0
 763              		.cfi_startproc
 764              		@ args = 0, pretend = 0, frame = 8
 765              		@ frame_needed = 0, uses_anonymous_args = 0
 766              	.LVL50:
 767 0000 F0B5     		push	{r4, r5, r6, r7, lr}
 768              		.cfi_def_cfa_offset 20
 769              		.cfi_offset 4, -20
 770              		.cfi_offset 5, -16
 771              		.cfi_offset 6, -12
 772              		.cfi_offset 7, -8
 773              		.cfi_offset 14, -4
 774 0002 4F46     		mov	r7, r9
 775 0004 4646     		mov	r6, r8
 776 0006 C0B4     		push	{r6, r7}
 777              		.cfi_def_cfa_offset 28
 778              		.cfi_offset 8, -28
 779              		.cfi_offset 9, -24
 780 0008 83B0     		sub	sp, sp, #12
 781              		.cfi_def_cfa_offset 40
 782              	.LVL51:
ARM GAS  C:\Users\TERENC~1\AppData\Local\Temp\ccVnttLg.s 			page 34


 586:Generated_Source\PSoC4/USBFS_std.c ****     {
 783              		.loc 1 586 0
 784 000a 0023     		movs	r3, #0
 785 000c 12E0     		b	.L52
 786              	.LVL52:
 787              	.L53:
 588:Generated_Source\PSoC4/USBFS_std.c ****         USBFS_EP[ep].hwEpState  = 0u;
 788              		.loc 1 588 0 discriminator 3
 789 000e 664E     		ldr	r6, .L75
 790 0010 5900     		lsls	r1, r3, #1
 791 0012 CC18     		adds	r4, r1, r3
 792 0014 A200     		lsls	r2, r4, #2
 793 0016 0024     		movs	r4, #0
 794 0018 9455     		strb	r4, [r2, r6]
 589:Generated_Source\PSoC4/USBFS_std.c ****         USBFS_EP[ep].epToggle   = 0u;
 795              		.loc 1 589 0 discriminator 3
 796 001a B218     		adds	r2, r6, r2
 797 001c 9470     		strb	r4, [r2, #2]
 590:Generated_Source\PSoC4/USBFS_std.c ****         USBFS_EP[ep].bufferSize = 0u;
 798              		.loc 1 590 0 discriminator 3
 799 001e D470     		strb	r4, [r2, #3]
 591:Generated_Source\PSoC4/USBFS_std.c ****         USBFS_EP[ep].interface  = 0u;
 800              		.loc 1 591 0 discriminator 3
 801 0020 0025     		movs	r5, #0
 802 0022 1481     		strh	r4, [r2, #8]
 592:Generated_Source\PSoC4/USBFS_std.c ****         USBFS_EP[ep].apiEpState = USBFS_NO_EVENT_PENDING;
 803              		.loc 1 592 0 discriminator 3
 804 0024 9572     		strb	r5, [r2, #10]
 593:Generated_Source\PSoC4/USBFS_std.c ****         USBFS_EP[ep].epMode     = USBFS_MODE_DISABLE;   
 805              		.loc 1 593 0 discriminator 3
 806 0026 5570     		strb	r5, [r2, #1]
 594:Generated_Source\PSoC4/USBFS_std.c ****     }
 807              		.loc 1 594 0 discriminator 3
 808 0028 C918     		adds	r1, r1, r3
 809 002a 8A00     		lsls	r2, r1, #2
 810 002c B218     		adds	r2, r6, r2
 811 002e 5571     		strb	r5, [r2, #5]
 586:Generated_Source\PSoC4/USBFS_std.c ****     {
 812              		.loc 1 586 0 discriminator 3
 813 0030 0133     		adds	r3, r3, #1
 814              	.LVL53:
 815 0032 DBB2     		uxtb	r3, r3
 816              	.LVL54:
 817              	.L52:
 586:Generated_Source\PSoC4/USBFS_std.c ****     {
 818              		.loc 1 586 0 is_stmt 0 discriminator 1
 819 0034 082B     		cmp	r3, #8
 820 0036 EAD9     		bls	.L53
 598:Generated_Source\PSoC4/USBFS_std.c ****     {
 821              		.loc 1 598 0 is_stmt 1
 822 0038 0028     		cmp	r0, #0
 823 003a 08D1     		bne	.L72
 824 003c 0AE0     		b	.L55
 825              	.LVL55:
 826              	.L56:
 602:Generated_Source\PSoC4/USBFS_std.c ****             USBFS_interfaceSettingLast[i] = 0u;
 827              		.loc 1 602 0 discriminator 3
ARM GAS  C:\Users\TERENC~1\AppData\Local\Temp\ccVnttLg.s 			page 35


 828 003e 0022     		movs	r2, #0
 829 0040 5A49     		ldr	r1, .L75+4
 830 0042 CA54     		strb	r2, [r1, r3]
 603:Generated_Source\PSoC4/USBFS_std.c ****         }
 831              		.loc 1 603 0 discriminator 3
 832 0044 5A49     		ldr	r1, .L75+8
 833 0046 CA54     		strb	r2, [r1, r3]
 600:Generated_Source\PSoC4/USBFS_std.c ****         {
 834              		.loc 1 600 0 discriminator 3
 835 0048 0133     		adds	r3, r3, #1
 836              	.LVL56:
 837 004a DBB2     		uxtb	r3, r3
 838              	.LVL57:
 839 004c 00E0     		b	.L54
 840              	.LVL58:
 841              	.L72:
 842 004e 0023     		movs	r3, #0
 843              	.LVL59:
 844              	.L54:
 600:Generated_Source\PSoC4/USBFS_std.c ****         {
 845              		.loc 1 600 0 is_stmt 0 discriminator 1
 846 0050 032B     		cmp	r3, #3
 847 0052 F4D9     		bls	.L56
 848              	.LVL60:
 849              	.L55:
 608:Generated_Source\PSoC4/USBFS_std.c ****     {
 850              		.loc 1 608 0 is_stmt 1
 851 0054 574B     		ldr	r3, .L75+12
 852 0056 1B78     		ldrb	r3, [r3]
 853 0058 002B     		cmp	r3, #0
 854 005a 00D1     		bne	.LCB827
 855 005c 9FE0     		b	.L51	@long jump
 856              	.LCB827:
 614:Generated_Source\PSoC4/USBFS_std.c ****         
 857              		.loc 1 614 0
 858 005e 554B     		ldr	r3, .L75+12
 859 0060 1878     		ldrb	r0, [r3]
 860              	.LVL61:
 861 0062 0138     		subs	r0, r0, #1
 862 0064 C0B2     		uxtb	r0, r0
 863 0066 FFF7FEFF 		bl	USBFS_GetConfigTablePtr
 864              	.LVL62:
 618:Generated_Source\PSoC4/USBFS_std.c ****         {
 865              		.loc 1 618 0
 866 006a 4368     		ldr	r3, [r0, #4]
 867 006c DB79     		ldrb	r3, [r3, #7]
 868 006e 5B06     		lsls	r3, r3, #25
 869 0070 06D5     		bpl	.L58
 620:Generated_Source\PSoC4/USBFS_std.c ****         }
 870              		.loc 1 620 0
 871 0072 514A     		ldr	r2, .L75+16
 872 0074 1178     		ldrb	r1, [r2]
 873 0076 0123     		movs	r3, #1
 874 0078 0B43     		orrs	r3, r1
 875 007a DBB2     		uxtb	r3, r3
 876 007c 1370     		strb	r3, [r2]
 877 007e 04E0     		b	.L59
ARM GAS  C:\Users\TERENC~1\AppData\Local\Temp\ccVnttLg.s 			page 36


 878              	.L58:
 624:Generated_Source\PSoC4/USBFS_std.c ****         }
 879              		.loc 1 624 0
 880 0080 4D4A     		ldr	r2, .L75+16
 881 0082 1378     		ldrb	r3, [r2]
 882 0084 0121     		movs	r1, #1
 883 0086 8B43     		bics	r3, r1
 884 0088 1370     		strb	r3, [r2]
 885              	.L59:
 886              	.LVL63:
 629:Generated_Source\PSoC4/USBFS_std.c **** 
 887              		.loc 1 629 0
 888 008a 067A     		ldrb	r6, [r0, #8]
 889              	.LVL64:
 687:Generated_Source\PSoC4/USBFS_std.c ****             {
 890              		.loc 1 687 0
 891 008c 0125     		movs	r5, #1
 892 008e 6CE0     		b	.L60
 893              	.LVL65:
 894              	.L69:
 690:Generated_Source\PSoC4/USBFS_std.c ****                 /* Find max length for each EP and select it (length could be different in differen
 895              		.loc 1 690 0
 896 0090 C468     		ldr	r4, [r0, #12]
 897              	.LVL66:
 694:Generated_Source\PSoC4/USBFS_std.c ****                 {
 898              		.loc 1 694 0
 899 0092 0023     		movs	r3, #0
 900 0094 65E0     		b	.L61
 901              	.LVL67:
 902              	.L68:
 696:Generated_Source\PSoC4/USBFS_std.c ****                     {
 903              		.loc 1 696 0
 904 0096 A278     		ldrb	r2, [r4, #2]
 905 0098 7F21     		movs	r1, #127
 906 009a 0A40     		ands	r2, r1
 907 009c 9542     		cmp	r5, r2
 908 009e 5DD1     		bne	.L62
 699:Generated_Source\PSoC4/USBFS_std.c ****                         {
 909              		.loc 1 699 0
 910 00a0 0195     		str	r5, [sp, #4]
 911 00a2 6900     		lsls	r1, r5, #1
 912 00a4 4919     		adds	r1, r1, r5
 913 00a6 8A00     		lsls	r2, r1, #2
 914 00a8 3F49     		ldr	r1, .L75
 915 00aa 8A18     		adds	r2, r1, r2
 916 00ac 1289     		ldrh	r2, [r2, #8]
 917 00ae 92B2     		uxth	r2, r2
 918 00b0 A188     		ldrh	r1, [r4, #4]
 919 00b2 8A42     		cmp	r2, r1
 920 00b4 05D2     		bcs	.L63
 701:Generated_Source\PSoC4/USBFS_std.c ****                         }
 921              		.loc 1 701 0
 922 00b6 6A00     		lsls	r2, r5, #1
 923 00b8 5719     		adds	r7, r2, r5
 924 00ba BA00     		lsls	r2, r7, #2
 925 00bc 3A4F     		ldr	r7, .L75
 926 00be BA18     		adds	r2, r7, r2
ARM GAS  C:\Users\TERENC~1\AppData\Local\Temp\ccVnttLg.s 			page 37


 927 00c0 1181     		strh	r1, [r2, #8]
 928              	.L63:
 705:Generated_Source\PSoC4/USBFS_std.c ****                         {                            
 929              		.loc 1 705 0
 930 00c2 2278     		ldrb	r2, [r4]
 931 00c4 3949     		ldr	r1, .L75+4
 932 00c6 8A5C     		ldrb	r2, [r1, r2]
 933 00c8 D2B2     		uxtb	r2, r2
 934 00ca 6178     		ldrb	r1, [r4, #1]
 935 00cc 8A42     		cmp	r2, r1
 936 00ce 45D1     		bne	.L62
 707:Generated_Source\PSoC4/USBFS_std.c ****                             USBFS_EP[i].attrib = pEP->attributes;
 937              		.loc 1 707 0
 938 00d0 A378     		ldrb	r3, [r4, #2]
 939              	.LVL68:
 940 00d2 9846     		mov	r8, r3
 941 00d4 344B     		ldr	r3, .L75
 942 00d6 9946     		mov	r9, r3
 943 00d8 019F     		ldr	r7, [sp, #4]
 944 00da 7B00     		lsls	r3, r7, #1
 945 00dc BC46     		mov	ip, r7
 946 00de 9C44     		add	ip, ip, r3
 947 00e0 6246     		mov	r2, ip
 948 00e2 9200     		lsls	r2, r2, #2
 949 00e4 4A44     		add	r2, r2, r9
 950 00e6 4146     		mov	r1, r8
 951 00e8 1171     		strb	r1, [r2, #4]
 708:Generated_Source\PSoC4/USBFS_std.c ****                             
 952              		.loc 1 708 0
 953 00ea E278     		ldrb	r2, [r4, #3]
 954 00ec 9446     		mov	ip, r2
 955 00ee B846     		mov	r8, r7
 956 00f0 4344     		add	r3, r3, r8
 957 00f2 9A00     		lsls	r2, r3, #2
 958 00f4 6346     		mov	r3, ip
 959 00f6 4946     		mov	r1, r9
 960 00f8 5354     		strb	r3, [r2, r1]
 710:Generated_Source\PSoC4/USBFS_std.c ****                             
 961              		.loc 1 710 0
 962 00fa E378     		ldrb	r3, [r4, #3]
 963 00fc 0322     		movs	r2, #3
 964 00fe 1340     		ands	r3, r2
 965              	.LVL69:
 712:Generated_Source\PSoC4/USBFS_std.c ****                             {
 966              		.loc 1 712 0
 967 0100 0222     		movs	r2, #2
 968 0102 A256     		ldrsb	r2, [r4, r2]
 969 0104 002A     		cmp	r2, #0
 970 0106 14DA     		bge	.L64
 715:Generated_Source\PSoC4/USBFS_std.c ****                                 USBFS_EP[i].apiEpState = USBFS_EVENT_PENDING;
 971              		.loc 1 715 0
 972 0108 012B     		cmp	r3, #1
 973 010a 02D1     		bne	.L73
 974 010c 0633     		adds	r3, r3, #6
 975              	.LVL70:
 976 010e 9C46     		mov	ip, r3
 977 0110 01E0     		b	.L65
ARM GAS  C:\Users\TERENC~1\AppData\Local\Temp\ccVnttLg.s 			page 38


 978              	.LVL71:
 979              	.L73:
 980 0112 0D23     		movs	r3, #13
 981              	.LVL72:
 982 0114 9C46     		mov	ip, r3
 983              	.L65:
 715:Generated_Source\PSoC4/USBFS_std.c ****                                 USBFS_EP[i].apiEpState = USBFS_EVENT_PENDING;
 984              		.loc 1 715 0 is_stmt 0 discriminator 4
 985 0116 2449     		ldr	r1, .L75
 986 0118 019F     		ldr	r7, [sp, #4]
 987 011a 7B00     		lsls	r3, r7, #1
 988 011c DC19     		adds	r4, r3, r7
 989              	.LVL73:
 990 011e A200     		lsls	r2, r4, #2
 991 0120 8A18     		adds	r2, r1, r2
 992 0122 6446     		mov	r4, ip
 993 0124 5471     		strb	r4, [r2, #5]
 716:Generated_Source\PSoC4/USBFS_std.c ****                                 
 994              		.loc 1 716 0 is_stmt 1 discriminator 4
 995 0126 DF19     		adds	r7, r3, r7
 996 0128 BB00     		lsls	r3, r7, #2
 997 012a CB18     		adds	r3, r1, r3
 998 012c 0122     		movs	r2, #1
 999 012e 5A70     		strb	r2, [r3, #1]
 1000 0130 19E0     		b	.L66
 1001              	.LVL74:
 1002              	.L64:
 728:Generated_Source\PSoC4/USBFS_std.c ****                                 USBFS_EP[i].apiEpState = USBFS_NO_EVENT_PENDING;
 1003              		.loc 1 728 0
 1004 0132 012B     		cmp	r3, #1
 1005 0134 02D1     		bne	.L74
 1006 0136 0433     		adds	r3, r3, #4
 1007              	.LVL75:
 1008 0138 9C46     		mov	ip, r3
 1009 013a 01E0     		b	.L67
 1010              	.LVL76:
 1011              	.L74:
 1012 013c 0923     		movs	r3, #9
 1013              	.LVL77:
 1014 013e 9C46     		mov	ip, r3
 1015              	.L67:
 728:Generated_Source\PSoC4/USBFS_std.c ****                                 USBFS_EP[i].apiEpState = USBFS_NO_EVENT_PENDING;
 1016              		.loc 1 728 0 is_stmt 0 discriminator 4
 1017 0140 1949     		ldr	r1, .L75
 1018 0142 019F     		ldr	r7, [sp, #4]
 1019 0144 7B00     		lsls	r3, r7, #1
 1020 0146 DC19     		adds	r4, r3, r7
 1021              	.LVL78:
 1022 0148 A200     		lsls	r2, r4, #2
 1023 014a 8A18     		adds	r2, r1, r2
 1024 014c 6446     		mov	r4, ip
 1025 014e 5471     		strb	r4, [r2, #5]
 729:Generated_Source\PSoC4/USBFS_std.c ****                                 
 1026              		.loc 1 729 0 is_stmt 1 discriminator 4
 1027 0150 DF19     		adds	r7, r3, r7
 1028 0152 BB00     		lsls	r3, r7, #2
 1029 0154 CB18     		adds	r3, r1, r3
ARM GAS  C:\Users\TERENC~1\AppData\Local\Temp\ccVnttLg.s 			page 39


 1030 0156 0022     		movs	r2, #0
 1031 0158 5A70     		strb	r2, [r3, #1]
 1032 015a 04E0     		b	.L66
 1033              	.LVL79:
 1034              	.L62:
 752:Generated_Source\PSoC4/USBFS_std.c ****                 }
 1035              		.loc 1 752 0 discriminator 2
 1036 015c 0834     		adds	r4, r4, #8
 1037              	.LVL80:
 694:Generated_Source\PSoC4/USBFS_std.c ****                 {
 1038              		.loc 1 694 0 discriminator 2
 1039 015e 0133     		adds	r3, r3, #1
 1040              	.LVL81:
 1041 0160 DBB2     		uxtb	r3, r3
 1042              	.LVL82:
 1043              	.L61:
 694:Generated_Source\PSoC4/USBFS_std.c ****                 {
 1044              		.loc 1 694 0 is_stmt 0 discriminator 1
 1045 0162 B342     		cmp	r3, r6
 1046 0164 97D3     		bcc	.L68
 1047              	.LVL83:
 1048              	.L66:
 687:Generated_Source\PSoC4/USBFS_std.c ****             {
 1049              		.loc 1 687 0 is_stmt 1 discriminator 2
 1050 0166 0135     		adds	r5, r5, #1
 1051              	.LVL84:
 1052 0168 EDB2     		uxtb	r5, r5
 1053              	.LVL85:
 1054              	.L60:
 687:Generated_Source\PSoC4/USBFS_std.c ****             {
 1055              		.loc 1 687 0 is_stmt 0 discriminator 1
 1056 016a 082D     		cmp	r5, #8
 1057 016c 90D9     		bls	.L69
 762:Generated_Source\PSoC4/USBFS_std.c ****         for (i = 0u; i < ep; i++)
 1058              		.loc 1 762 0 is_stmt 1
 1059 016e C068     		ldr	r0, [r0, #12]
 1060              	.LVL86:
 763:Generated_Source\PSoC4/USBFS_std.c ****         {
 1061              		.loc 1 763 0
 1062 0170 0022     		movs	r2, #0
 1063 0172 0CE0     		b	.L70
 1064              	.LVL87:
 1065              	.L71:
 766:Generated_Source\PSoC4/USBFS_std.c ****             pEP = &pEP[1u];
 1066              		.loc 1 766 0 discriminator 3
 1067 0174 8378     		ldrb	r3, [r0, #2]
 1068 0176 7F21     		movs	r1, #127
 1069 0178 0B40     		ands	r3, r1
 1070 017a 0478     		ldrb	r4, [r0]
 1071 017c 5900     		lsls	r1, r3, #1
 1072 017e CB18     		adds	r3, r1, r3
 1073 0180 9900     		lsls	r1, r3, #2
 1074 0182 094B     		ldr	r3, .L75
 1075 0184 5918     		adds	r1, r3, r1
 1076 0186 8C72     		strb	r4, [r1, #10]
 767:Generated_Source\PSoC4/USBFS_std.c ****         }
 1077              		.loc 1 767 0 discriminator 3
ARM GAS  C:\Users\TERENC~1\AppData\Local\Temp\ccVnttLg.s 			page 40


 1078 0188 0830     		adds	r0, r0, #8
 1079              	.LVL88:
 763:Generated_Source\PSoC4/USBFS_std.c ****         {
 1080              		.loc 1 763 0 discriminator 3
 1081 018a 0132     		adds	r2, r2, #1
 1082              	.LVL89:
 1083 018c D2B2     		uxtb	r2, r2
 1084              	.LVL90:
 1085              	.L70:
 763:Generated_Source\PSoC4/USBFS_std.c ****         {
 1086              		.loc 1 763 0 is_stmt 0 discriminator 1
 1087 018e B242     		cmp	r2, r6
 1088 0190 F0D3     		bcc	.L71
 771:Generated_Source\PSoC4/USBFS_std.c ****         
 1089              		.loc 1 771 0 is_stmt 1
 1090 0192 FFF7FEFF 		bl	USBFS_GetInterfaceClassTablePtr
 1091              	.LVL91:
 1092 0196 094B     		ldr	r3, .L75+20
 1093 0198 1860     		str	r0, [r3]
 789:Generated_Source\PSoC4/USBFS_std.c ****     }
 1094              		.loc 1 789 0
 1095 019a FFF7FEFF 		bl	USBFS_ConfigReg
 1096              	.LVL92:
 1097              	.L51:
 791:Generated_Source\PSoC4/USBFS_std.c **** 
 1098              		.loc 1 791 0
 1099 019e 03B0     		add	sp, sp, #12
 1100              		@ sp needed
 1101 01a0 0CBC     		pop	{r2, r3}
 1102 01a2 9046     		mov	r8, r2
 1103 01a4 9946     		mov	r9, r3
 1104 01a6 F0BD     		pop	{r4, r5, r6, r7, pc}
 1105              	.L76:
 1106              		.align	2
 1107              	.L75:
 1108 01a8 00000000 		.word	USBFS_EP
 1109 01ac 00000000 		.word	USBFS_interfaceSetting
 1110 01b0 00000000 		.word	USBFS_interfaceSettingLast
 1111 01b4 00000000 		.word	USBFS_configuration
 1112 01b8 00000000 		.word	USBFS_deviceStatus
 1113 01bc 00000000 		.word	USBFS_interfaceClass
 1114              		.cfi_endproc
 1115              	.LFE165:
 1116              		.size	USBFS_Config, .-USBFS_Config
 1117              		.section	.text.USBFS_TerminateEP,"ax",%progbits
 1118              		.align	2
 1119              		.global	USBFS_TerminateEP
 1120              		.code	16
 1121              		.thumb_func
 1122              		.type	USBFS_TerminateEP, %function
 1123              	USBFS_TerminateEP:
 1124              	.LFB170:
1053:Generated_Source\PSoC4/USBFS_std.c **** 
1054:Generated_Source\PSoC4/USBFS_std.c **** 
1055:Generated_Source\PSoC4/USBFS_std.c **** /*******************************************************************************
1056:Generated_Source\PSoC4/USBFS_std.c **** * Function Name: USBFS_TerminateEP
1057:Generated_Source\PSoC4/USBFS_std.c **** ****************************************************************************//**
ARM GAS  C:\Users\TERENC~1\AppData\Local\Temp\ccVnttLg.s 			page 41


1058:Generated_Source\PSoC4/USBFS_std.c **** *
1059:Generated_Source\PSoC4/USBFS_std.c **** *  This function terminates the specified USBFS endpoint.
1060:Generated_Source\PSoC4/USBFS_std.c **** *  This function should be used before endpoint reconfiguration.
1061:Generated_Source\PSoC4/USBFS_std.c **** *
1062:Generated_Source\PSoC4/USBFS_std.c **** *  \param ep Contains the data endpoint number.
1063:Generated_Source\PSoC4/USBFS_std.c **** *
1064:Generated_Source\PSoC4/USBFS_std.c **** *  \reentrant
1065:Generated_Source\PSoC4/USBFS_std.c **** *  No.
1066:Generated_Source\PSoC4/USBFS_std.c **** *
1067:Generated_Source\PSoC4/USBFS_std.c **** * \sideeffect
1068:Generated_Source\PSoC4/USBFS_std.c **** * 
1069:Generated_Source\PSoC4/USBFS_std.c **** * The device responds with a NAK for any transactions on the selected endpoint.
1070:Generated_Source\PSoC4/USBFS_std.c **** *   
1071:Generated_Source\PSoC4/USBFS_std.c **** *******************************************************************************/
1072:Generated_Source\PSoC4/USBFS_std.c **** void USBFS_TerminateEP(uint8 epNumber) 
1073:Generated_Source\PSoC4/USBFS_std.c **** {
 1125              		.loc 1 1073 0
 1126              		.cfi_startproc
 1127              		@ args = 0, pretend = 0, frame = 0
 1128              		@ frame_needed = 0, uses_anonymous_args = 0
 1129              		@ link register save eliminated.
 1130              	.LVL93:
1074:Generated_Source\PSoC4/USBFS_std.c ****     /* Get endpoint number */
1075:Generated_Source\PSoC4/USBFS_std.c ****     epNumber &= USBFS_DIR_UNUSED;
 1131              		.loc 1 1075 0
 1132 0000 7F23     		movs	r3, #127
 1133 0002 1840     		ands	r0, r3
 1134              	.LVL94:
1076:Generated_Source\PSoC4/USBFS_std.c **** 
1077:Generated_Source\PSoC4/USBFS_std.c ****     if ((epNumber > USBFS_EP0) && (epNumber < USBFS_MAX_EP))
 1135              		.loc 1 1077 0
 1136 0004 431E     		subs	r3, r0, #1
 1137 0006 DBB2     		uxtb	r3, r3
 1138 0008 072B     		cmp	r3, #7
 1139 000a 1ED8     		bhi	.L77
1078:Generated_Source\PSoC4/USBFS_std.c ****     {
1079:Generated_Source\PSoC4/USBFS_std.c ****         /* Set the endpoint Halt */
1080:Generated_Source\PSoC4/USBFS_std.c ****         USBFS_EP[epNumber].hwEpState |= USBFS_ENDPOINT_STATUS_HALT;
 1140              		.loc 1 1080 0
 1141 000c 4200     		lsls	r2, r0, #1
 1142 000e 1218     		adds	r2, r2, r0
 1143 0010 9300     		lsls	r3, r2, #2
 1144 0012 0E4A     		ldr	r2, .L80
 1145 0014 D318     		adds	r3, r2, r3
 1146 0016 9978     		ldrb	r1, [r3, #2]
 1147 0018 0122     		movs	r2, #1
 1148 001a 0A43     		orrs	r2, r1
 1149 001c D2B2     		uxtb	r2, r2
 1150 001e 9A70     		strb	r2, [r3, #2]
1081:Generated_Source\PSoC4/USBFS_std.c **** 
1082:Generated_Source\PSoC4/USBFS_std.c ****         /* Clear the data toggle */
1083:Generated_Source\PSoC4/USBFS_std.c ****         USBFS_EP[epNumber].epToggle = 0u;
 1151              		.loc 1 1083 0
 1152 0020 0022     		movs	r2, #0
 1153 0022 DA70     		strb	r2, [r3, #3]
1084:Generated_Source\PSoC4/USBFS_std.c ****         USBFS_EP[epNumber].apiEpState = USBFS_NO_EVENT_ALLOWED;
 1154              		.loc 1 1084 0
ARM GAS  C:\Users\TERENC~1\AppData\Local\Temp\ccVnttLg.s 			page 42


 1155 0024 0232     		adds	r2, r2, #2
 1156 0026 5A70     		strb	r2, [r3, #1]
1085:Generated_Source\PSoC4/USBFS_std.c **** 
1086:Generated_Source\PSoC4/USBFS_std.c ****         if ((USBFS_EP[epNumber].addr & USBFS_DIR_IN) != 0u)
 1157              		.loc 1 1086 0
 1158 0028 1B79     		ldrb	r3, [r3, #4]
 1159 002a 5BB2     		sxtb	r3, r3
 1160 002c 002B     		cmp	r3, #0
 1161 002e 06DA     		bge	.L79
1087:Generated_Source\PSoC4/USBFS_std.c ****         {   
1088:Generated_Source\PSoC4/USBFS_std.c ****             /* IN Endpoint */
1089:Generated_Source\PSoC4/USBFS_std.c ****             USBFS_SIE_EP_BASE.sieEp[epNumber].epCr0 = USBFS_MODE_NAK_IN;
 1162              		.loc 1 1089 0
 1163 0030 8001     		lsls	r0, r0, #6
 1164              	.LVL95:
 1165 0032 074B     		ldr	r3, .L80+4
 1166 0034 9C46     		mov	ip, r3
 1167 0036 6044     		add	r0, r0, ip
 1168 0038 0C23     		movs	r3, #12
 1169 003a 8360     		str	r3, [r0, #8]
 1170 003c 05E0     		b	.L77
 1171              	.LVL96:
 1172              	.L79:
1090:Generated_Source\PSoC4/USBFS_std.c ****         }
1091:Generated_Source\PSoC4/USBFS_std.c ****         else
1092:Generated_Source\PSoC4/USBFS_std.c ****         {
1093:Generated_Source\PSoC4/USBFS_std.c ****             /* OUT Endpoint */
1094:Generated_Source\PSoC4/USBFS_std.c ****             USBFS_SIE_EP_BASE.sieEp[epNumber].epCr0 = USBFS_MODE_NAK_OUT;
 1173              		.loc 1 1094 0
 1174 003e 8001     		lsls	r0, r0, #6
 1175              	.LVL97:
 1176 0040 034B     		ldr	r3, .L80+4
 1177 0042 9C46     		mov	ip, r3
 1178 0044 6044     		add	r0, r0, ip
 1179 0046 0823     		movs	r3, #8
 1180 0048 8360     		str	r3, [r0, #8]
 1181              	.L77:
1095:Generated_Source\PSoC4/USBFS_std.c ****         }
1096:Generated_Source\PSoC4/USBFS_std.c ****     }
1097:Generated_Source\PSoC4/USBFS_std.c **** }
 1182              		.loc 1 1097 0
 1183              		@ sp needed
 1184 004a 7047     		bx	lr
 1185              	.L81:
 1186              		.align	2
 1187              	.L80:
 1188 004c 00000000 		.word	USBFS_EP
 1189 0050 F0FF2B40 		.word	1076625392
 1190              		.cfi_endproc
 1191              	.LFE170:
 1192              		.size	USBFS_TerminateEP, .-USBFS_TerminateEP
 1193              		.section	.text.USBFS_SetEndpointHalt,"ax",%progbits
 1194              		.align	2
 1195              		.global	USBFS_SetEndpointHalt
 1196              		.code	16
 1197              		.thumb_func
 1198              		.type	USBFS_SetEndpointHalt, %function
ARM GAS  C:\Users\TERENC~1\AppData\Local\Temp\ccVnttLg.s 			page 43


 1199              	USBFS_SetEndpointHalt:
 1200              	.LFB171:
1098:Generated_Source\PSoC4/USBFS_std.c **** 
1099:Generated_Source\PSoC4/USBFS_std.c **** 
1100:Generated_Source\PSoC4/USBFS_std.c **** /*******************************************************************************
1101:Generated_Source\PSoC4/USBFS_std.c **** * Function Name: USBFS_SetEndpointHalt
1102:Generated_Source\PSoC4/USBFS_std.c **** ****************************************************************************//**
1103:Generated_Source\PSoC4/USBFS_std.c **** *
1104:Generated_Source\PSoC4/USBFS_std.c **** *  This routine handles set endpoint halt.
1105:Generated_Source\PSoC4/USBFS_std.c **** *
1106:Generated_Source\PSoC4/USBFS_std.c **** * \return
1107:Generated_Source\PSoC4/USBFS_std.c **** *  requestHandled.
1108:Generated_Source\PSoC4/USBFS_std.c **** *
1109:Generated_Source\PSoC4/USBFS_std.c **** * \reentrant
1110:Generated_Source\PSoC4/USBFS_std.c **** *  No.
1111:Generated_Source\PSoC4/USBFS_std.c **** *
1112:Generated_Source\PSoC4/USBFS_std.c **** *******************************************************************************/
1113:Generated_Source\PSoC4/USBFS_std.c **** uint8 USBFS_SetEndpointHalt(void) 
1114:Generated_Source\PSoC4/USBFS_std.c **** {
 1201              		.loc 1 1114 0
 1202              		.cfi_startproc
 1203              		@ args = 0, pretend = 0, frame = 0
 1204              		@ frame_needed = 0, uses_anonymous_args = 0
 1205 0000 10B5     		push	{r4, lr}
 1206              		.cfi_def_cfa_offset 8
 1207              		.cfi_offset 4, -8
 1208              		.cfi_offset 14, -4
 1209              	.LVL98:
1115:Generated_Source\PSoC4/USBFS_std.c ****     uint8 requestHandled = USBFS_FALSE;
1116:Generated_Source\PSoC4/USBFS_std.c ****     uint32 ep;
1117:Generated_Source\PSoC4/USBFS_std.c ****     
1118:Generated_Source\PSoC4/USBFS_std.c ****     /* Set endpoint halt */
1119:Generated_Source\PSoC4/USBFS_std.c ****     ep = USBFS_wIndexLoReg & USBFS_DIR_UNUSED;
 1210              		.loc 1 1119 0
 1211 0002 174B     		ldr	r3, .L87
 1212 0004 1B69     		ldr	r3, [r3, #16]
 1213 0006 7F22     		movs	r2, #127
 1214 0008 1340     		ands	r3, r2
 1215              	.LVL99:
1120:Generated_Source\PSoC4/USBFS_std.c **** 
1121:Generated_Source\PSoC4/USBFS_std.c ****     if ((ep > USBFS_EP0) && (ep < USBFS_MAX_EP))
 1216              		.loc 1 1121 0
 1217 000a 5A1E     		subs	r2, r3, #1
 1218 000c 072A     		cmp	r2, #7
 1219 000e 24D8     		bhi	.L86
1122:Generated_Source\PSoC4/USBFS_std.c ****     {
1123:Generated_Source\PSoC4/USBFS_std.c ****         /* Set the endpoint Halt */
1124:Generated_Source\PSoC4/USBFS_std.c ****         USBFS_EP[ep].hwEpState |= (USBFS_ENDPOINT_STATUS_HALT);
 1220              		.loc 1 1124 0
 1221 0010 5900     		lsls	r1, r3, #1
 1222 0012 C918     		adds	r1, r1, r3
 1223 0014 8A00     		lsls	r2, r1, #2
 1224 0016 1349     		ldr	r1, .L87+4
 1225 0018 8A18     		adds	r2, r1, r2
 1226 001a 9078     		ldrb	r0, [r2, #2]
 1227 001c 0121     		movs	r1, #1
 1228 001e 0143     		orrs	r1, r0
ARM GAS  C:\Users\TERENC~1\AppData\Local\Temp\ccVnttLg.s 			page 44


 1229 0020 C9B2     		uxtb	r1, r1
 1230 0022 9170     		strb	r1, [r2, #2]
1125:Generated_Source\PSoC4/USBFS_std.c **** 
1126:Generated_Source\PSoC4/USBFS_std.c ****         /* Clear the data toggle */
1127:Generated_Source\PSoC4/USBFS_std.c ****         USBFS_EP[ep].epToggle = 0u;
 1231              		.loc 1 1127 0
 1232 0024 0021     		movs	r1, #0
 1233 0026 D170     		strb	r1, [r2, #3]
1128:Generated_Source\PSoC4/USBFS_std.c ****         USBFS_EP[ep].apiEpState |= USBFS_NO_EVENT_ALLOWED;
 1234              		.loc 1 1128 0
 1235 0028 5078     		ldrb	r0, [r2, #1]
 1236 002a 0221     		movs	r1, #2
 1237 002c 0143     		orrs	r1, r0
 1238 002e C9B2     		uxtb	r1, r1
 1239 0030 5170     		strb	r1, [r2, #1]
1129:Generated_Source\PSoC4/USBFS_std.c **** 
1130:Generated_Source\PSoC4/USBFS_std.c ****         if ((USBFS_EP[ep].addr & USBFS_DIR_IN) != 0u)
 1240              		.loc 1 1130 0
 1241 0032 1279     		ldrb	r2, [r2, #4]
 1242 0034 52B2     		sxtb	r2, r2
 1243 0036 002A     		cmp	r2, #0
 1244 0038 06DA     		bge	.L84
1131:Generated_Source\PSoC4/USBFS_std.c ****         {
1132:Generated_Source\PSoC4/USBFS_std.c ****             /* IN Endpoint */
1133:Generated_Source\PSoC4/USBFS_std.c ****             USBFS_SIE_EP_BASE.sieEp[ep].epCr0 = (USBFS_MODE_STALL_DATA_EP | 
 1245              		.loc 1 1133 0
 1246 003a 9B01     		lsls	r3, r3, #6
 1247              	.LVL100:
 1248 003c 0A4A     		ldr	r2, .L87+8
 1249 003e 9446     		mov	ip, r2
 1250 0040 6344     		add	r3, r3, ip
 1251 0042 8D22     		movs	r2, #141
 1252 0044 9A60     		str	r2, [r3, #8]
 1253 0046 05E0     		b	.L85
 1254              	.LVL101:
 1255              	.L84:
1134:Generated_Source\PSoC4/USBFS_std.c ****                                                             USBFS_MODE_ACK_IN);
1135:Generated_Source\PSoC4/USBFS_std.c ****         }
1136:Generated_Source\PSoC4/USBFS_std.c ****         else
1137:Generated_Source\PSoC4/USBFS_std.c ****         {
1138:Generated_Source\PSoC4/USBFS_std.c ****             /* OUT Endpoint */
1139:Generated_Source\PSoC4/USBFS_std.c ****             USBFS_SIE_EP_BASE.sieEp[ep].epCr0 = (USBFS_MODE_STALL_DATA_EP | 
 1256              		.loc 1 1139 0
 1257 0048 9B01     		lsls	r3, r3, #6
 1258              	.LVL102:
 1259 004a 074A     		ldr	r2, .L87+8
 1260 004c 9446     		mov	ip, r2
 1261 004e 6344     		add	r3, r3, ip
 1262 0050 8922     		movs	r2, #137
 1263 0052 9A60     		str	r2, [r3, #8]
 1264              	.L85:
1140:Generated_Source\PSoC4/USBFS_std.c ****                                                             USBFS_MODE_ACK_OUT);
1141:Generated_Source\PSoC4/USBFS_std.c ****         }
1142:Generated_Source\PSoC4/USBFS_std.c ****         requestHandled = USBFS_InitNoDataControlTransfer();
 1265              		.loc 1 1142 0
 1266 0054 FFF7FEFF 		bl	USBFS_InitNoDataControlTransfer
 1267              	.LVL103:
ARM GAS  C:\Users\TERENC~1\AppData\Local\Temp\ccVnttLg.s 			page 45


 1268 0058 00E0     		b	.L83
 1269              	.LVL104:
 1270              	.L86:
1115:Generated_Source\PSoC4/USBFS_std.c ****     uint32 ep;
 1271              		.loc 1 1115 0
 1272 005a 0020     		movs	r0, #0
 1273              	.LVL105:
 1274              	.L83:
1143:Generated_Source\PSoC4/USBFS_std.c ****     }
1144:Generated_Source\PSoC4/USBFS_std.c **** 
1145:Generated_Source\PSoC4/USBFS_std.c ****     return (requestHandled);
1146:Generated_Source\PSoC4/USBFS_std.c **** }
 1275              		.loc 1 1146 0
 1276              		@ sp needed
 1277 005c 10BD     		pop	{r4, pc}
 1278              	.L88:
 1279 005e C046     		.align	2
 1280              	.L87:
 1281 0060 00002C40 		.word	1076625408
 1282 0064 00000000 		.word	USBFS_EP
 1283 0068 F0FF2B40 		.word	1076625392
 1284              		.cfi_endproc
 1285              	.LFE171:
 1286              		.size	USBFS_SetEndpointHalt, .-USBFS_SetEndpointHalt
 1287              		.section	.text.USBFS_ClearEndpointHalt,"ax",%progbits
 1288              		.align	2
 1289              		.global	USBFS_ClearEndpointHalt
 1290              		.code	16
 1291              		.thumb_func
 1292              		.type	USBFS_ClearEndpointHalt, %function
 1293              	USBFS_ClearEndpointHalt:
 1294              	.LFB172:
1147:Generated_Source\PSoC4/USBFS_std.c **** 
1148:Generated_Source\PSoC4/USBFS_std.c **** 
1149:Generated_Source\PSoC4/USBFS_std.c **** /*******************************************************************************
1150:Generated_Source\PSoC4/USBFS_std.c **** * Function Name: USBFS_ClearEndpointHalt
1151:Generated_Source\PSoC4/USBFS_std.c **** ****************************************************************************//**
1152:Generated_Source\PSoC4/USBFS_std.c **** *
1153:Generated_Source\PSoC4/USBFS_std.c **** *  This routine handles clear endpoint halt.
1154:Generated_Source\PSoC4/USBFS_std.c **** *
1155:Generated_Source\PSoC4/USBFS_std.c **** * \return
1156:Generated_Source\PSoC4/USBFS_std.c **** *  requestHandled.
1157:Generated_Source\PSoC4/USBFS_std.c **** *
1158:Generated_Source\PSoC4/USBFS_std.c **** * \reentrant
1159:Generated_Source\PSoC4/USBFS_std.c **** *  No.
1160:Generated_Source\PSoC4/USBFS_std.c **** *
1161:Generated_Source\PSoC4/USBFS_std.c **** *******************************************************************************/
1162:Generated_Source\PSoC4/USBFS_std.c **** uint8 USBFS_ClearEndpointHalt(void) 
1163:Generated_Source\PSoC4/USBFS_std.c **** {
 1295              		.loc 1 1163 0
 1296              		.cfi_startproc
 1297              		@ args = 0, pretend = 0, frame = 0
 1298              		@ frame_needed = 0, uses_anonymous_args = 0
 1299 0000 70B5     		push	{r4, r5, r6, lr}
 1300              		.cfi_def_cfa_offset 16
 1301              		.cfi_offset 4, -16
 1302              		.cfi_offset 5, -12
ARM GAS  C:\Users\TERENC~1\AppData\Local\Temp\ccVnttLg.s 			page 46


 1303              		.cfi_offset 6, -8
 1304              		.cfi_offset 14, -4
 1305              	.LVL106:
1164:Generated_Source\PSoC4/USBFS_std.c ****     uint8 requestHandled = USBFS_FALSE;
1165:Generated_Source\PSoC4/USBFS_std.c ****     uint32 ep;
1166:Generated_Source\PSoC4/USBFS_std.c **** 
1167:Generated_Source\PSoC4/USBFS_std.c ****     /* Clear endpoint halt */
1168:Generated_Source\PSoC4/USBFS_std.c ****     ep = USBFS_wIndexLoReg & USBFS_DIR_UNUSED;
 1306              		.loc 1 1168 0
 1307 0002 284B     		ldr	r3, .L96
 1308 0004 1B69     		ldr	r3, [r3, #16]
 1309 0006 7F22     		movs	r2, #127
 1310 0008 1340     		ands	r3, r2
 1311              	.LVL107:
1169:Generated_Source\PSoC4/USBFS_std.c **** 
1170:Generated_Source\PSoC4/USBFS_std.c ****     if ((ep > USBFS_EP0) && (ep < USBFS_MAX_EP))
 1312              		.loc 1 1170 0
 1313 000a 5A1E     		subs	r2, r3, #1
 1314 000c 072A     		cmp	r2, #7
 1315 000e 46D8     		bhi	.L95
1171:Generated_Source\PSoC4/USBFS_std.c ****     {
1172:Generated_Source\PSoC4/USBFS_std.c ****         /* Clear the endpoint Halt */
1173:Generated_Source\PSoC4/USBFS_std.c ****         USBFS_EP[ep].hwEpState &= (uint8) ~USBFS_ENDPOINT_STATUS_HALT;
 1316              		.loc 1 1173 0
 1317 0010 5900     		lsls	r1, r3, #1
 1318 0012 C918     		adds	r1, r1, r3
 1319 0014 8A00     		lsls	r2, r1, #2
 1320 0016 2449     		ldr	r1, .L96+4
 1321 0018 8A18     		adds	r2, r1, r2
 1322 001a 9178     		ldrb	r1, [r2, #2]
 1323 001c 0120     		movs	r0, #1
 1324 001e 8143     		bics	r1, r0
 1325 0020 9170     		strb	r1, [r2, #2]
1174:Generated_Source\PSoC4/USBFS_std.c **** 
1175:Generated_Source\PSoC4/USBFS_std.c ****         /* Clear the data toggle */
1176:Generated_Source\PSoC4/USBFS_std.c ****         USBFS_EP[ep].epToggle = 0u;
 1326              		.loc 1 1176 0
 1327 0022 0021     		movs	r1, #0
 1328 0024 D170     		strb	r1, [r2, #3]
1177:Generated_Source\PSoC4/USBFS_std.c ****         
1178:Generated_Source\PSoC4/USBFS_std.c ****         /* Clear toggle bit for already armed packet */
1179:Generated_Source\PSoC4/USBFS_std.c ****         USBFS_SIE_EP_BASE.sieEp[ep].epCnt0 &= (uint32) ~(uint32)USBFS_EPX_CNT_DATA_TOGGLE;
 1329              		.loc 1 1179 0
 1330 0026 2148     		ldr	r0, .L96+8
 1331 0028 9C01     		lsls	r4, r3, #6
 1332 002a 2158     		ldr	r1, [r4, r0]
 1333 002c 8025     		movs	r5, #128
 1334 002e A943     		bics	r1, r5
 1335 0030 2150     		str	r1, [r4, r0]
1180:Generated_Source\PSoC4/USBFS_std.c ****         
1181:Generated_Source\PSoC4/USBFS_std.c ****         /* Return API State as it was defined before */
1182:Generated_Source\PSoC4/USBFS_std.c ****         USBFS_EP[ep].apiEpState &= (uint8) ~USBFS_NO_EVENT_ALLOWED;
 1336              		.loc 1 1182 0
 1337 0032 5178     		ldrb	r1, [r2, #1]
 1338 0034 0220     		movs	r0, #2
 1339 0036 8143     		bics	r1, r0
 1340 0038 5170     		strb	r1, [r2, #1]
ARM GAS  C:\Users\TERENC~1\AppData\Local\Temp\ccVnttLg.s 			page 47


1183:Generated_Source\PSoC4/USBFS_std.c **** 
1184:Generated_Source\PSoC4/USBFS_std.c ****         if ((USBFS_EP[ep].addr & USBFS_DIR_IN) != 0u)
 1341              		.loc 1 1184 0
 1342 003a 1279     		ldrb	r2, [r2, #4]
 1343 003c 52B2     		sxtb	r2, r2
 1344 003e 002A     		cmp	r2, #0
 1345 0040 15DA     		bge	.L91
1185:Generated_Source\PSoC4/USBFS_std.c ****         {
1186:Generated_Source\PSoC4/USBFS_std.c ****             /* IN Endpoint */
1187:Generated_Source\PSoC4/USBFS_std.c ****             if(USBFS_EP[ep].apiEpState == USBFS_IN_BUFFER_EMPTY)
 1346              		.loc 1 1187 0
 1347 0042 5900     		lsls	r1, r3, #1
 1348 0044 C918     		adds	r1, r1, r3
 1349 0046 8A00     		lsls	r2, r1, #2
 1350 0048 1749     		ldr	r1, .L96+4
 1351 004a 8A18     		adds	r2, r1, r2
 1352 004c 5278     		ldrb	r2, [r2, #1]
 1353 004e 012A     		cmp	r2, #1
 1354 0050 06D1     		bne	.L92
1188:Generated_Source\PSoC4/USBFS_std.c ****             {       
1189:Generated_Source\PSoC4/USBFS_std.c ****                 /* Wait for next packet from application */
1190:Generated_Source\PSoC4/USBFS_std.c ****                 USBFS_SIE_EP_BASE.sieEp[ep].epCr0 = USBFS_MODE_NAK_IN;
 1355              		.loc 1 1190 0
 1356 0052 2300     		movs	r3, r4
 1357              	.LVL108:
 1358 0054 154A     		ldr	r2, .L96+8
 1359 0056 9446     		mov	ip, r2
 1360 0058 6344     		add	r3, r3, ip
 1361 005a 0C22     		movs	r2, #12
 1362 005c 9A60     		str	r2, [r3, #8]
 1363 005e 1BE0     		b	.L93
 1364              	.LVL109:
 1365              	.L92:
1191:Generated_Source\PSoC4/USBFS_std.c ****             }
1192:Generated_Source\PSoC4/USBFS_std.c ****             else    /* Continue armed transfer */
1193:Generated_Source\PSoC4/USBFS_std.c ****             {
1194:Generated_Source\PSoC4/USBFS_std.c ****                 USBFS_SIE_EP_BASE.sieEp[ep].epCr0 = USBFS_MODE_ACK_IN;
 1366              		.loc 1 1194 0
 1367 0060 9B01     		lsls	r3, r3, #6
 1368              	.LVL110:
 1369 0062 124A     		ldr	r2, .L96+8
 1370 0064 9446     		mov	ip, r2
 1371 0066 6344     		add	r3, r3, ip
 1372 0068 0D22     		movs	r2, #13
 1373 006a 9A60     		str	r2, [r3, #8]
 1374 006c 14E0     		b	.L93
 1375              	.LVL111:
 1376              	.L91:
1195:Generated_Source\PSoC4/USBFS_std.c ****             }
1196:Generated_Source\PSoC4/USBFS_std.c ****         }
1197:Generated_Source\PSoC4/USBFS_std.c ****         else
1198:Generated_Source\PSoC4/USBFS_std.c ****         {
1199:Generated_Source\PSoC4/USBFS_std.c ****             /* OUT Endpoint */
1200:Generated_Source\PSoC4/USBFS_std.c ****             if (USBFS_EP[ep].apiEpState == USBFS_OUT_BUFFER_FULL)
 1377              		.loc 1 1200 0
 1378 006e 5900     		lsls	r1, r3, #1
 1379 0070 C918     		adds	r1, r1, r3
ARM GAS  C:\Users\TERENC~1\AppData\Local\Temp\ccVnttLg.s 			page 48


 1380 0072 8A00     		lsls	r2, r1, #2
 1381 0074 0C49     		ldr	r1, .L96+4
 1382 0076 8A18     		adds	r2, r1, r2
 1383 0078 5278     		ldrb	r2, [r2, #1]
 1384 007a 012A     		cmp	r2, #1
 1385 007c 06D1     		bne	.L94
1201:Generated_Source\PSoC4/USBFS_std.c ****             {       
1202:Generated_Source\PSoC4/USBFS_std.c ****                 /* Allow application to read full buffer */
1203:Generated_Source\PSoC4/USBFS_std.c ****                 USBFS_SIE_EP_BASE.sieEp[ep].epCr0 = USBFS_MODE_NAK_OUT;
 1386              		.loc 1 1203 0
 1387 007e 9B01     		lsls	r3, r3, #6
 1388              	.LVL112:
 1389 0080 0A4A     		ldr	r2, .L96+8
 1390 0082 9446     		mov	ip, r2
 1391 0084 6344     		add	r3, r3, ip
 1392 0086 0822     		movs	r2, #8
 1393 0088 9A60     		str	r2, [r3, #8]
 1394 008a 05E0     		b	.L93
 1395              	.LVL113:
 1396              	.L94:
1204:Generated_Source\PSoC4/USBFS_std.c ****             }
1205:Generated_Source\PSoC4/USBFS_std.c ****             else    /* Mark endpoint as empty, so it will be reloaded */
1206:Generated_Source\PSoC4/USBFS_std.c ****             {
1207:Generated_Source\PSoC4/USBFS_std.c ****                 USBFS_SIE_EP_BASE.sieEp[ep].epCr0 = USBFS_MODE_ACK_OUT;
 1397              		.loc 1 1207 0
 1398 008c 9B01     		lsls	r3, r3, #6
 1399              	.LVL114:
 1400 008e 074A     		ldr	r2, .L96+8
 1401 0090 9446     		mov	ip, r2
 1402 0092 6344     		add	r3, r3, ip
 1403 0094 0922     		movs	r2, #9
 1404 0096 9A60     		str	r2, [r3, #8]
 1405              	.L93:
1208:Generated_Source\PSoC4/USBFS_std.c ****             }
1209:Generated_Source\PSoC4/USBFS_std.c ****         }
1210:Generated_Source\PSoC4/USBFS_std.c ****         
1211:Generated_Source\PSoC4/USBFS_std.c ****         requestHandled = USBFS_InitNoDataControlTransfer();
 1406              		.loc 1 1211 0
 1407 0098 FFF7FEFF 		bl	USBFS_InitNoDataControlTransfer
 1408              	.LVL115:
 1409 009c 00E0     		b	.L90
 1410              	.LVL116:
 1411              	.L95:
1164:Generated_Source\PSoC4/USBFS_std.c ****     uint32 ep;
 1412              		.loc 1 1164 0
 1413 009e 0020     		movs	r0, #0
 1414              	.LVL117:
 1415              	.L90:
1212:Generated_Source\PSoC4/USBFS_std.c ****     }
1213:Generated_Source\PSoC4/USBFS_std.c **** 
1214:Generated_Source\PSoC4/USBFS_std.c ****     return(requestHandled);
1215:Generated_Source\PSoC4/USBFS_std.c **** }
 1416              		.loc 1 1215 0
 1417              		@ sp needed
 1418 00a0 70BD     		pop	{r4, r5, r6, pc}
 1419              	.L97:
 1420 00a2 C046     		.align	2
ARM GAS  C:\Users\TERENC~1\AppData\Local\Temp\ccVnttLg.s 			page 49


 1421              	.L96:
 1422 00a4 00002C40 		.word	1076625408
 1423 00a8 00000000 		.word	USBFS_EP
 1424 00ac F0FF2B40 		.word	1076625392
 1425              		.cfi_endproc
 1426              	.LFE172:
 1427              		.size	USBFS_ClearEndpointHalt, .-USBFS_ClearEndpointHalt
 1428              		.section	.text.USBFS_ValidateAlternateSetting,"ax",%progbits
 1429              		.align	2
 1430              		.global	USBFS_ValidateAlternateSetting
 1431              		.code	16
 1432              		.thumb_func
 1433              		.type	USBFS_ValidateAlternateSetting, %function
 1434              	USBFS_ValidateAlternateSetting:
 1435              	.LFB173:
1216:Generated_Source\PSoC4/USBFS_std.c **** 
1217:Generated_Source\PSoC4/USBFS_std.c **** 
1218:Generated_Source\PSoC4/USBFS_std.c **** /*******************************************************************************
1219:Generated_Source\PSoC4/USBFS_std.c **** * Function Name: USBFS_ValidateAlternateSetting
1220:Generated_Source\PSoC4/USBFS_std.c **** ****************************************************************************//**
1221:Generated_Source\PSoC4/USBFS_std.c **** *
1222:Generated_Source\PSoC4/USBFS_std.c **** *  Validates (and records) a SET INTERFACE request.
1223:Generated_Source\PSoC4/USBFS_std.c **** *
1224:Generated_Source\PSoC4/USBFS_std.c **** * \return
1225:Generated_Source\PSoC4/USBFS_std.c **** *  requestHandled.
1226:Generated_Source\PSoC4/USBFS_std.c **** *
1227:Generated_Source\PSoC4/USBFS_std.c **** * \reentrant
1228:Generated_Source\PSoC4/USBFS_std.c **** *  No.
1229:Generated_Source\PSoC4/USBFS_std.c **** *
1230:Generated_Source\PSoC4/USBFS_std.c **** *******************************************************************************/
1231:Generated_Source\PSoC4/USBFS_std.c **** uint8 USBFS_ValidateAlternateSetting(void) 
1232:Generated_Source\PSoC4/USBFS_std.c **** {
 1436              		.loc 1 1232 0
 1437              		.cfi_startproc
 1438              		@ args = 0, pretend = 0, frame = 0
 1439              		@ frame_needed = 0, uses_anonymous_args = 0
 1440 0000 70B5     		push	{r4, r5, r6, lr}
 1441              		.cfi_def_cfa_offset 16
 1442              		.cfi_offset 4, -16
 1443              		.cfi_offset 5, -12
 1444              		.cfi_offset 6, -8
 1445              		.cfi_offset 14, -4
 1446              	.LVL118:
1233:Generated_Source\PSoC4/USBFS_std.c ****     uint8 requestHandled = USBFS_FALSE;
1234:Generated_Source\PSoC4/USBFS_std.c ****     
1235:Generated_Source\PSoC4/USBFS_std.c ****     uint8 interfaceNum;
1236:Generated_Source\PSoC4/USBFS_std.c ****     uint8 curInterfacesNum;
1237:Generated_Source\PSoC4/USBFS_std.c ****     const T_USBFS_LUT CYCODE *pTmp;
1238:Generated_Source\PSoC4/USBFS_std.c ****     
1239:Generated_Source\PSoC4/USBFS_std.c ****     /* Get interface number from the request. */
1240:Generated_Source\PSoC4/USBFS_std.c ****     interfaceNum = (uint8) USBFS_wIndexLoReg;
 1447              		.loc 1 1240 0
 1448 0002 0F4B     		ldr	r3, .L102
 1449 0004 1C69     		ldr	r4, [r3, #16]
 1450 0006 E5B2     		uxtb	r5, r4
 1451              	.LVL119:
1241:Generated_Source\PSoC4/USBFS_std.c ****     
ARM GAS  C:\Users\TERENC~1\AppData\Local\Temp\ccVnttLg.s 			page 50


1242:Generated_Source\PSoC4/USBFS_std.c ****     /* Get number of interfaces for current configuration. */
1243:Generated_Source\PSoC4/USBFS_std.c ****     pTmp = USBFS_GetConfigTablePtr(USBFS_configuration - 1u);
 1452              		.loc 1 1243 0
 1453 0008 0E4B     		ldr	r3, .L102+4
 1454 000a 1878     		ldrb	r0, [r3]
 1455 000c 0138     		subs	r0, r0, #1
 1456 000e C0B2     		uxtb	r0, r0
 1457 0010 FFF7FEFF 		bl	USBFS_GetConfigTablePtr
 1458              	.LVL120:
1244:Generated_Source\PSoC4/USBFS_std.c ****     curInterfacesNum  = ((const uint8 *) pTmp->p_list)[USBFS_CONFIG_DESCR_NUM_INTERFACES];
 1459              		.loc 1 1244 0
 1460 0014 4368     		ldr	r3, [r0, #4]
 1461 0016 1B79     		ldrb	r3, [r3, #4]
 1462              	.LVL121:
1245:Generated_Source\PSoC4/USBFS_std.c **** 
1246:Generated_Source\PSoC4/USBFS_std.c ****     /* Validate that interface number is within range. */
1247:Generated_Source\PSoC4/USBFS_std.c ****     if ((interfaceNum <= curInterfacesNum) || (interfaceNum <= USBFS_MAX_INTERFACES_NUMBER))
 1463              		.loc 1 1247 0
 1464 0018 9D42     		cmp	r5, r3
 1465 001a 01D9     		bls	.L99
 1466              		.loc 1 1247 0 is_stmt 0 discriminator 1
 1467 001c 042D     		cmp	r5, #4
 1468 001e 0CD8     		bhi	.L101
 1469              	.L99:
1248:Generated_Source\PSoC4/USBFS_std.c ****     {
1249:Generated_Source\PSoC4/USBFS_std.c ****         /* Save current and new alternate settings (come with request) to make 
1250:Generated_Source\PSoC4/USBFS_std.c ****         * desicion about following endpoint re-configuration.
1251:Generated_Source\PSoC4/USBFS_std.c ****         */
1252:Generated_Source\PSoC4/USBFS_std.c ****         USBFS_interfaceSettingLast[interfaceNum] = USBFS_interfaceSetting[interfaceNum];
 1470              		.loc 1 1252 0 is_stmt 1
 1471 0020 FF23     		movs	r3, #255
 1472              	.LVL122:
 1473 0022 2340     		ands	r3, r4
 1474 0024 0849     		ldr	r1, .L102+8
 1475 0026 CA5C     		ldrb	r2, [r1, r3]
 1476 0028 D2B2     		uxtb	r2, r2
 1477 002a 0848     		ldr	r0, .L102+12
 1478              	.LVL123:
 1479 002c C254     		strb	r2, [r0, r3]
1253:Generated_Source\PSoC4/USBFS_std.c ****         USBFS_interfaceSetting[interfaceNum]     = (uint8) USBFS_wValueLoReg;
 1480              		.loc 1 1253 0
 1481 002e 044A     		ldr	r2, .L102
 1482 0030 9268     		ldr	r2, [r2, #8]
 1483 0032 D2B2     		uxtb	r2, r2
 1484 0034 CA54     		strb	r2, [r1, r3]
 1485              	.LVL124:
1254:Generated_Source\PSoC4/USBFS_std.c ****         
1255:Generated_Source\PSoC4/USBFS_std.c ****         requestHandled = USBFS_TRUE;
 1486              		.loc 1 1255 0
 1487 0036 0120     		movs	r0, #1
 1488 0038 00E0     		b	.L100
 1489              	.LVL125:
 1490              	.L101:
1233:Generated_Source\PSoC4/USBFS_std.c ****     
 1491              		.loc 1 1233 0
 1492 003a 0020     		movs	r0, #0
 1493              	.LVL126:
ARM GAS  C:\Users\TERENC~1\AppData\Local\Temp\ccVnttLg.s 			page 51


 1494              	.L100:
1256:Generated_Source\PSoC4/USBFS_std.c ****     }
1257:Generated_Source\PSoC4/USBFS_std.c **** 
1258:Generated_Source\PSoC4/USBFS_std.c ****     return (requestHandled);
1259:Generated_Source\PSoC4/USBFS_std.c **** }
 1495              		.loc 1 1259 0
 1496              		@ sp needed
 1497              	.LVL127:
 1498 003c 70BD     		pop	{r4, r5, r6, pc}
 1499              	.L103:
 1500 003e C046     		.align	2
 1501              	.L102:
 1502 0040 00002C40 		.word	1076625408
 1503 0044 00000000 		.word	USBFS_configuration
 1504 0048 00000000 		.word	USBFS_interfaceSetting
 1505 004c 00000000 		.word	USBFS_interfaceSettingLast
 1506              		.cfi_endproc
 1507              	.LFE173:
 1508              		.size	USBFS_ValidateAlternateSetting, .-USBFS_ValidateAlternateSetting
 1509              		.section	.text.USBFS_HandleStandardRqst,"ax",%progbits
 1510              		.align	2
 1511              		.global	USBFS_HandleStandardRqst
 1512              		.code	16
 1513              		.thumb_func
 1514              		.type	USBFS_HandleStandardRqst, %function
 1515              	USBFS_HandleStandardRqst:
 1516              	.LFB161:
  85:Generated_Source\PSoC4/USBFS_std.c ****     uint8 requestHandled = USBFS_FALSE;
 1517              		.loc 1 85 0
 1518              		.cfi_startproc
 1519              		@ args = 0, pretend = 0, frame = 0
 1520              		@ frame_needed = 0, uses_anonymous_args = 0
 1521 0000 10B5     		push	{r4, lr}
 1522              		.cfi_def_cfa_offset 8
 1523              		.cfi_offset 4, -8
 1524              		.cfi_offset 14, -4
 1525              	.LVL128:
  89:Generated_Source\PSoC4/USBFS_std.c **** 
 1526              		.loc 1 89 0
 1527 0002 B34B     		ldr	r3, .L158
 1528 0004 1B68     		ldr	r3, [r3]
 1529              	.LVL129:
 102:Generated_Source\PSoC4/USBFS_std.c **** 
 1530              		.loc 1 102 0
 1531 0006 0021     		movs	r1, #0
 1532 0008 B24A     		ldr	r2, .L158+4
 1533 000a 1180     		strh	r1, [r2]
 104:Generated_Source\PSoC4/USBFS_std.c ****     {
 1534              		.loc 1 104 0
 1535 000c 1A06     		lsls	r2, r3, #24
 1536 000e 00D4     		bmi	.LCB1553
 1537 0010 A1E0     		b	.L105	@long jump
 1538              	.LCB1553:
 107:Generated_Source\PSoC4/USBFS_std.c ****         {
 1539              		.loc 1 107 0
 1540 0012 AF4A     		ldr	r2, .L158
 1541 0014 5268     		ldr	r2, [r2, #4]
ARM GAS  C:\Users\TERENC~1\AppData\Local\Temp\ccVnttLg.s 			page 52


 1542 0016 062A     		cmp	r2, #6
 1543 0018 0AD0     		beq	.L107
 1544 001a 02D8     		bhi	.L108
 1545 001c 002A     		cmp	r2, #0
 1546 001e 5ED0     		beq	.L109
 1547 0020 37E1     		b	.L138
 1548              	.L108:
 1549 0022 082A     		cmp	r2, #8
 1550 0024 00D1     		bne	.LCB1567
 1551 0026 83E0     		b	.L110	@long jump
 1552              	.LCB1567:
 1553 0028 0A2A     		cmp	r2, #10
 1554 002a 00D1     		bne	.LCB1569
 1555 002c 88E0     		b	.L111	@long jump
 1556              	.LCB1569:
 1557 002e 30E1     		b	.L138
 1558              	.L107:
 110:Generated_Source\PSoC4/USBFS_std.c ****                 {
 1559              		.loc 1 110 0
 1560 0030 A74B     		ldr	r3, .L158
 1561              	.LVL130:
 1562 0032 DB68     		ldr	r3, [r3, #12]
 1563 0034 012B     		cmp	r3, #1
 1564 0036 09D1     		bne	.L112
 112:Generated_Source\PSoC4/USBFS_std.c ****                     USBFS_currentTD.pData = (volatile uint8 *)pTmp->p_list;
 1565              		.loc 1 112 0
 1566 0038 FFF7FEFF 		bl	USBFS_GetDeviceTablePtr
 1567              	.LVL131:
 113:Generated_Source\PSoC4/USBFS_std.c ****                     USBFS_currentTD.count = USBFS_DEVICE_DESCR_LENGTH;
 1568              		.loc 1 113 0
 1569 003c 4268     		ldr	r2, [r0, #4]
 1570 003e A54B     		ldr	r3, .L158+4
 1571 0040 5A60     		str	r2, [r3, #4]
 114:Generated_Source\PSoC4/USBFS_std.c ****                     
 1572              		.loc 1 114 0
 1573 0042 1222     		movs	r2, #18
 1574 0044 1A80     		strh	r2, [r3]
 116:Generated_Source\PSoC4/USBFS_std.c ****                 }
 1575              		.loc 1 116 0
 1576 0046 FFF7FEFF 		bl	USBFS_InitControlRead
 1577              	.LVL132:
 1578 004a 3FE1     		b	.L106
 1579              	.LVL133:
 1580              	.L112:
 118:Generated_Source\PSoC4/USBFS_std.c ****                 {
 1581              		.loc 1 118 0
 1582 004c A04B     		ldr	r3, .L158
 1583 004e DB68     		ldr	r3, [r3, #12]
 1584 0050 022B     		cmp	r3, #2
 1585 0052 14D1     		bne	.L113
 120:Generated_Source\PSoC4/USBFS_std.c ****                     
 1586              		.loc 1 120 0
 1587 0054 9E4B     		ldr	r3, .L158
 1588 0056 9868     		ldr	r0, [r3, #8]
 1589 0058 C0B2     		uxtb	r0, r0
 1590 005a FFF7FEFF 		bl	USBFS_GetConfigTablePtr
 1591              	.LVL134:
ARM GAS  C:\Users\TERENC~1\AppData\Local\Temp\ccVnttLg.s 			page 53


 123:Generated_Source\PSoC4/USBFS_std.c ****                     {
 1592              		.loc 1 123 0
 1593 005e 0028     		cmp	r0, #0
 1594 0060 00D1     		bne	.LCB1608
 1595 0062 18E1     		b	.L139	@long jump
 1596              	.LCB1608:
 125:Generated_Source\PSoC4/USBFS_std.c ****                         USBFS_currentTD.count = (uint16)((uint16)(USBFS_currentTD.pData)[USBFS_CONF
 1597              		.loc 1 125 0
 1598 0064 4368     		ldr	r3, [r0, #4]
 1599 0066 9B4A     		ldr	r2, .L158+4
 1600 0068 5360     		str	r3, [r2, #4]
 126:Generated_Source\PSoC4/USBFS_std.c ****                                                                             (USBFS_currentTD.pData)
 1601              		.loc 1 126 0
 1602 006a 5368     		ldr	r3, [r2, #4]
 1603 006c DB78     		ldrb	r3, [r3, #3]
 1604 006e 1B02     		lsls	r3, r3, #8
 127:Generated_Source\PSoC4/USBFS_std.c ****                         requestHandled  = USBFS_InitControlRead();
 1605              		.loc 1 127 0
 1606 0070 5168     		ldr	r1, [r2, #4]
 1607 0072 8978     		ldrb	r1, [r1, #2]
 126:Generated_Source\PSoC4/USBFS_std.c ****                                                                             (USBFS_currentTD.pData)
 1608              		.loc 1 126 0
 1609 0074 0B43     		orrs	r3, r1
 1610 0076 1380     		strh	r3, [r2]
 128:Generated_Source\PSoC4/USBFS_std.c ****                     }
 1611              		.loc 1 128 0
 1612 0078 FFF7FEFF 		bl	USBFS_InitControlRead
 1613              	.LVL135:
 1614 007c 26E1     		b	.L106
 1615              	.LVL136:
 1616              	.L113:
 149:Generated_Source\PSoC4/USBFS_std.c ****                 {
 1617              		.loc 1 149 0
 1618 007e 944B     		ldr	r3, .L158
 1619 0080 DB68     		ldr	r3, [r3, #12]
 1620 0082 032B     		cmp	r3, #3
 1621 0084 05D0     		beq	.L140
 1622 0086 27E0     		b	.L154
 1623              	.LVL137:
 1624              	.L117:
 159:Generated_Source\PSoC4/USBFS_std.c ****                         /* Move to next string descriptor */
 1625              		.loc 1 159 0
 1626 0088 1178     		ldrb	r1, [r2]
 1627              	.LVL138:
 161:Generated_Source\PSoC4/USBFS_std.c ****                         nStr++;
 1628              		.loc 1 161 0
 1629 008a 5218     		adds	r2, r2, r1
 1630              	.LVL139:
 162:Generated_Source\PSoC4/USBFS_std.c ****                     }
 1631              		.loc 1 162 0
 1632 008c 0133     		adds	r3, r3, #1
 1633              	.LVL140:
 1634 008e DBB2     		uxtb	r3, r3
 1635              	.LVL141:
 1636 0090 01E0     		b	.L114
 1637              	.LVL142:
 1638              	.L140:
ARM GAS  C:\Users\TERENC~1\AppData\Local\Temp\ccVnttLg.s 			page 54


 1639 0092 0023     		movs	r3, #0
 1640 0094 904A     		ldr	r2, .L158+8
 1641              	.LVL143:
 1642              	.L114:
 156:Generated_Source\PSoC4/USBFS_std.c ****                     {
 1643              		.loc 1 156 0
 1644 0096 8E49     		ldr	r1, .L158
 1645 0098 8968     		ldr	r1, [r1, #8]
 1646 009a 9942     		cmp	r1, r3
 1647 009c 02D9     		bls	.L116
 156:Generated_Source\PSoC4/USBFS_std.c ****                     {
 1648              		.loc 1 156 0 is_stmt 0 discriminator 1
 1649 009e 1178     		ldrb	r1, [r2]
 1650 00a0 0029     		cmp	r1, #0
 1651 00a2 F1D1     		bne	.L117
 1652              	.L116:
 176:Generated_Source\PSoC4/USBFS_std.c ****                         (USBFS_wValueLoReg == USBFS_DEVICE0_DESCR[USBFS_DEVICE_DESCR_SN_SHIFT]))
 1653              		.loc 1 176 0 is_stmt 1
 1654 00a4 8A4B     		ldr	r3, .L158
 1655              	.LVL144:
 1656 00a6 9B68     		ldr	r3, [r3, #8]
 1657 00a8 002B     		cmp	r3, #0
 1658 00aa 0AD0     		beq	.L118
 177:Generated_Source\PSoC4/USBFS_std.c ****                     {
 1659              		.loc 1 177 0 discriminator 1
 1660 00ac 884B     		ldr	r3, .L158
 1661 00ae 9968     		ldr	r1, [r3, #8]
 1662 00b0 8A4B     		ldr	r3, .L158+12
 1663 00b2 1B7C     		ldrb	r3, [r3, #16]
 176:Generated_Source\PSoC4/USBFS_std.c ****                         (USBFS_wValueLoReg == USBFS_DEVICE0_DESCR[USBFS_DEVICE_DESCR_SN_SHIFT]))
 1664              		.loc 1 176 0 discriminator 1
 1665 00b4 9942     		cmp	r1, r3
 1666 00b6 04D1     		bne	.L118
 181:Generated_Source\PSoC4/USBFS_std.c ****                         pStr = USBFS_idSerialNumberStringDescriptor;
 1667              		.loc 1 181 0
 1668 00b8 894C     		ldr	r4, .L158+16
 1669 00ba 2000     		movs	r0, r4
 1670 00bc FFF7FEFF 		bl	USBFS_ReadDieID
 1671              	.LVL145:
 182:Generated_Source\PSoC4/USBFS_std.c ****                     #elif defined(USBFS_ENABLE_FWSN_STRING)
 1672              		.loc 1 182 0
 1673 00c0 2200     		movs	r2, r4
 1674              	.LVL146:
 1675              	.L118:
 199:Generated_Source\PSoC4/USBFS_std.c ****                     {
 1676              		.loc 1 199 0
 1677 00c2 1378     		ldrb	r3, [r2]
 1678 00c4 002B     		cmp	r3, #0
 1679 00c6 00D1     		bne	.LCB1701
 1680 00c8 E7E0     		b	.L141	@long jump
 1681              	.LCB1701:
 201:Generated_Source\PSoC4/USBFS_std.c ****                         USBFS_currentTD.pData = pStr;
 1682              		.loc 1 201 0
 1683 00ca 1378     		ldrb	r3, [r2]
 1684 00cc 8149     		ldr	r1, .L158+4
 1685 00ce 0B80     		strh	r3, [r1]
 202:Generated_Source\PSoC4/USBFS_std.c ****                         requestHandled  = USBFS_InitControlRead();
ARM GAS  C:\Users\TERENC~1\AppData\Local\Temp\ccVnttLg.s 			page 55


 1686              		.loc 1 202 0
 1687 00d0 4A60     		str	r2, [r1, #4]
 203:Generated_Source\PSoC4/USBFS_std.c ****                     }
 1688              		.loc 1 203 0
 1689 00d2 FFF7FEFF 		bl	USBFS_InitControlRead
 1690              	.LVL147:
 1691 00d6 F9E0     		b	.L106
 1692              	.LVL148:
 1693              	.L154:
 209:Generated_Source\PSoC4/USBFS_std.c ****                 }
 1694              		.loc 1 209 0
 1695 00d8 FFF7FEFF 		bl	USBFS_DispatchClassRqst
 1696              	.LVL149:
 1697 00dc F6E0     		b	.L106
 1698              	.LVL150:
 1699              	.L109:
 214:Generated_Source\PSoC4/USBFS_std.c ****                 {
 1700              		.loc 1 214 0
 1701 00de 0322     		movs	r2, #3
 1702 00e0 1340     		ands	r3, r2
 1703              	.LVL151:
 1704 00e2 17D0     		beq	.L119
 1705 00e4 022B     		cmp	r3, #2
 1706 00e6 00D0     		beq	.LCB1733
 1707 00e8 D9E0     		b	.L155	@long jump
 1708              	.LCB1733:
 217:Generated_Source\PSoC4/USBFS_std.c ****                         USBFS_tBuffer[0u]     = USBFS_EP[USBFS_wIndexLoReg & USBFS_DIR_UNUSED].hwEp
 1709              		.loc 1 217 0
 1710 00ea 7A49     		ldr	r1, .L158+4
 1711 00ec 0B80     		strh	r3, [r1]
 218:Generated_Source\PSoC4/USBFS_std.c ****                         USBFS_tBuffer[1u]     = 0u;
 1712              		.loc 1 218 0
 1713 00ee 784B     		ldr	r3, .L158
 1714 00f0 1B69     		ldr	r3, [r3, #16]
 1715 00f2 7C32     		adds	r2, r2, #124
 1716 00f4 1340     		ands	r3, r2
 1717 00f6 5A00     		lsls	r2, r3, #1
 1718 00f8 D318     		adds	r3, r2, r3
 1719 00fa 9A00     		lsls	r2, r3, #2
 1720 00fc 794B     		ldr	r3, .L158+20
 1721 00fe 9A18     		adds	r2, r3, r2
 1722 0100 9278     		ldrb	r2, [r2, #2]
 1723 0102 D2B2     		uxtb	r2, r2
 1724 0104 784B     		ldr	r3, .L158+24
 1725 0106 1A70     		strb	r2, [r3]
 219:Generated_Source\PSoC4/USBFS_std.c ****                         USBFS_currentTD.pData = &USBFS_tBuffer[0u];
 1726              		.loc 1 219 0
 1727 0108 0022     		movs	r2, #0
 1728 010a 5A70     		strb	r2, [r3, #1]
 220:Generated_Source\PSoC4/USBFS_std.c ****                         
 1729              		.loc 1 220 0
 1730 010c 4B60     		str	r3, [r1, #4]
 222:Generated_Source\PSoC4/USBFS_std.c ****                         break;
 1731              		.loc 1 222 0
 1732 010e FFF7FEFF 		bl	USBFS_InitControlRead
 1733              	.LVL152:
 223:Generated_Source\PSoC4/USBFS_std.c ****                     case USBFS_RQST_RCPT_DEV:
ARM GAS  C:\Users\TERENC~1\AppData\Local\Temp\ccVnttLg.s 			page 56


 1734              		.loc 1 223 0
 1735 0112 DBE0     		b	.L106
 1736              	.LVL153:
 1737              	.L119:
 225:Generated_Source\PSoC4/USBFS_std.c ****                         USBFS_tBuffer[0u]     = USBFS_deviceStatus;
 1738              		.loc 1 225 0
 1739 0114 6F49     		ldr	r1, .L158+4
 1740 0116 0223     		movs	r3, #2
 1741 0118 0B80     		strh	r3, [r1]
 226:Generated_Source\PSoC4/USBFS_std.c ****                         USBFS_tBuffer[1u]     = 0u;
 1742              		.loc 1 226 0
 1743 011a 744B     		ldr	r3, .L158+28
 1744 011c 1A78     		ldrb	r2, [r3]
 1745 011e D2B2     		uxtb	r2, r2
 1746 0120 714B     		ldr	r3, .L158+24
 1747 0122 1A70     		strb	r2, [r3]
 227:Generated_Source\PSoC4/USBFS_std.c ****                         USBFS_currentTD.pData = &USBFS_tBuffer[0u];
 1748              		.loc 1 227 0
 1749 0124 0022     		movs	r2, #0
 1750 0126 5A70     		strb	r2, [r3, #1]
 228:Generated_Source\PSoC4/USBFS_std.c ****                         
 1751              		.loc 1 228 0
 1752 0128 4B60     		str	r3, [r1, #4]
 230:Generated_Source\PSoC4/USBFS_std.c ****                         break;
 1753              		.loc 1 230 0
 1754 012a FFF7FEFF 		bl	USBFS_InitControlRead
 1755              	.LVL154:
 231:Generated_Source\PSoC4/USBFS_std.c ****                     default:    /* requestHandled is initialized as FALSE by default */
 1756              		.loc 1 231 0
 1757 012e CDE0     		b	.L106
 1758              	.LVL155:
 1759              	.L110:
 238:Generated_Source\PSoC4/USBFS_std.c ****                 USBFS_currentTD.pData = (volatile uint8 *) &USBFS_configuration;
 1760              		.loc 1 238 0
 1761 0130 684B     		ldr	r3, .L158+4
 1762              	.LVL156:
 1763 0132 0122     		movs	r2, #1
 1764 0134 1A80     		strh	r2, [r3]
 239:Generated_Source\PSoC4/USBFS_std.c ****                 requestHandled  = USBFS_InitControlRead();
 1765              		.loc 1 239 0
 1766 0136 6E4A     		ldr	r2, .L158+32
 1767 0138 5A60     		str	r2, [r3, #4]
 240:Generated_Source\PSoC4/USBFS_std.c ****                 break;
 1768              		.loc 1 240 0
 1769 013a FFF7FEFF 		bl	USBFS_InitControlRead
 1770              	.LVL157:
 241:Generated_Source\PSoC4/USBFS_std.c ****                 
 1771              		.loc 1 241 0
 1772 013e C5E0     		b	.L106
 1773              	.LVL158:
 1774              	.L111:
 244:Generated_Source\PSoC4/USBFS_std.c ****                 USBFS_currentTD.pData = (volatile uint8 *) &USBFS_interfaceSetting[USBFS_wIndexLoRe
 1775              		.loc 1 244 0
 1776 0140 644A     		ldr	r2, .L158+4
 1777 0142 0123     		movs	r3, #1
 1778              	.LVL159:
 1779 0144 1380     		strh	r3, [r2]
ARM GAS  C:\Users\TERENC~1\AppData\Local\Temp\ccVnttLg.s 			page 57


 245:Generated_Source\PSoC4/USBFS_std.c ****                 requestHandled  = USBFS_InitControlRead();
 1780              		.loc 1 245 0
 1781 0146 624B     		ldr	r3, .L158
 1782 0148 1969     		ldr	r1, [r3, #16]
 1783 014a 6A4B     		ldr	r3, .L158+36
 1784 014c CB18     		adds	r3, r1, r3
 1785 014e 5360     		str	r3, [r2, #4]
 246:Generated_Source\PSoC4/USBFS_std.c ****                 break;
 1786              		.loc 1 246 0
 1787 0150 FFF7FEFF 		bl	USBFS_InitControlRead
 1788              	.LVL160:
 247:Generated_Source\PSoC4/USBFS_std.c ****                 
 1789              		.loc 1 247 0
 1790 0154 BAE0     		b	.L106
 1791              	.LVL161:
 1792              	.L105:
 256:Generated_Source\PSoC4/USBFS_std.c ****         {
 1793              		.loc 1 256 0
 1794 0156 5E4A     		ldr	r2, .L158
 1795 0158 5268     		ldr	r2, [r2, #4]
 1796 015a 0B2A     		cmp	r2, #11
 1797 015c 00D9     		bls	.LCB1816
 1798 015e A0E0     		b	.L143	@long jump
 1799              	.LCB1816:
 1800 0160 9200     		lsls	r2, r2, #2
 1801 0162 6549     		ldr	r1, .L158+40
 1802 0164 8A58     		ldr	r2, [r1, r2]
 1803 0166 9746     		mov	pc, r2
 1804              		.section	.rodata
 1805              		.align	2
 1806              	.L122:
 1807 0000 A2020000 		.word	.L143
 1808 0004 EC010000 		.word	.L121
 1809 0008 A2020000 		.word	.L143
 1810 000c 3E020000 		.word	.L123
 1811 0010 A2020000 		.word	.L143
 1812 0014 68010000 		.word	.L124
 1813 0018 A2020000 		.word	.L143
 1814 001c A2020000 		.word	.L143
 1815 0020 A2020000 		.word	.L143
 1816 0024 78010000 		.word	.L125
 1817 0028 A2020000 		.word	.L143
 1818 002c B8010000 		.word	.L126
 1819              		.section	.text.USBFS_HandleStandardRqst
 1820              	.L124:
 260:Generated_Source\PSoC4/USBFS_std.c ****                 requestHandled = USBFS_InitNoDataControlTransfer();
 1821              		.loc 1 260 0
 1822 0168 594B     		ldr	r3, .L158
 1823              	.LVL162:
 1824 016a 9B68     		ldr	r3, [r3, #8]
 1825 016c DBB2     		uxtb	r3, r3
 1826 016e 634A     		ldr	r2, .L158+44
 1827 0170 1370     		strb	r3, [r2]
 261:Generated_Source\PSoC4/USBFS_std.c ****                 break;
 1828              		.loc 1 261 0
 1829 0172 FFF7FEFF 		bl	USBFS_InitNoDataControlTransfer
 1830              	.LVL163:
ARM GAS  C:\Users\TERENC~1\AppData\Local\Temp\ccVnttLg.s 			page 58


 262:Generated_Source\PSoC4/USBFS_std.c ****                 
 1831              		.loc 1 262 0
 1832 0176 A9E0     		b	.L106
 1833              	.LVL164:
 1834              	.L125:
 265:Generated_Source\PSoC4/USBFS_std.c ****                 
 1835              		.loc 1 265 0
 1836 0178 554B     		ldr	r3, .L158
 1837              	.LVL165:
 1838 017a 9C68     		ldr	r4, [r3, #8]
 1839              	.LVL166:
 268:Generated_Source\PSoC4/USBFS_std.c ****                 {
 1840              		.loc 1 268 0
 1841 017c 002C     		cmp	r4, #0
 1842 017e 03D0     		beq	.L127
 270:Generated_Source\PSoC4/USBFS_std.c ****                 }
 1843              		.loc 1 270 0
 1844 0180 601E     		subs	r0, r4, #1
 1845 0182 C0B2     		uxtb	r0, r0
 1846 0184 FFF7FEFF 		bl	USBFS_GetConfigTablePtr
 1847              	.LVL167:
 1848              	.L127:
 274:Generated_Source\PSoC4/USBFS_std.c ****                 {
 1849              		.loc 1 274 0
 1850 0188 002C     		cmp	r4, #0
 1851 018a 01D0     		beq	.L128
 274:Generated_Source\PSoC4/USBFS_std.c ****                 {
 1852              		.loc 1 274 0 is_stmt 0 discriminator 1
 1853 018c 0028     		cmp	r0, #0
 1854 018e 02D1     		bne	.L129
 1855              	.L128:
 274:Generated_Source\PSoC4/USBFS_std.c ****                 {
 1856              		.loc 1 274 0 discriminator 3
 1857 0190 002C     		cmp	r4, #0
 1858 0192 00D0     		beq	.LCB1864
 1859 0194 87E0     		b	.L144	@long jump
 1860              	.LCB1864:
 1861              	.L129:
 277:Generated_Source\PSoC4/USBFS_std.c ****                     {
 1862              		.loc 1 277 0 is_stmt 1
 1863 0196 564B     		ldr	r3, .L158+32
 1864 0198 1B78     		ldrb	r3, [r3]
 1865 019a DBB2     		uxtb	r3, r3
 1866 019c 9C42     		cmp	r4, r3
 1867 019e 08D0     		beq	.L130
 279:Generated_Source\PSoC4/USBFS_std.c ****                         USBFS_configurationChanged = USBFS_TRUE;
 1868              		.loc 1 279 0
 1869 01a0 E4B2     		uxtb	r4, r4
 1870              	.LVL168:
 1871 01a2 534B     		ldr	r3, .L158+32
 1872 01a4 1C70     		strb	r4, [r3]
 280:Generated_Source\PSoC4/USBFS_std.c ****                         USBFS_Config(USBFS_TRUE);
 1873              		.loc 1 280 0
 1874 01a6 0122     		movs	r2, #1
 1875 01a8 554B     		ldr	r3, .L158+48
 1876 01aa 1A70     		strb	r2, [r3]
 281:Generated_Source\PSoC4/USBFS_std.c ****                     }
ARM GAS  C:\Users\TERENC~1\AppData\Local\Temp\ccVnttLg.s 			page 59


 1877              		.loc 1 281 0
 1878 01ac 0120     		movs	r0, #1
 1879              	.LVL169:
 1880 01ae FFF7FEFF 		bl	USBFS_Config
 1881              	.LVL170:
 1882              	.L130:
 283:Generated_Source\PSoC4/USBFS_std.c ****                 }
 1883              		.loc 1 283 0
 1884 01b2 FFF7FEFF 		bl	USBFS_InitNoDataControlTransfer
 1885              	.LVL171:
 1886 01b6 89E0     		b	.L106
 1887              	.LVL172:
 1888              	.L126:
 288:Generated_Source\PSoC4/USBFS_std.c ****                 {
 1889              		.loc 1 288 0
 1890 01b8 FFF7FEFF 		bl	USBFS_ValidateAlternateSetting
 1891              	.LVL173:
 1892 01bc 0028     		cmp	r0, #0
 1893 01be 74D0     		beq	.L145
 291:Generated_Source\PSoC4/USBFS_std.c ****                     USBFS_interfaceNumber = (uint8) USBFS_wIndexLoReg;
 1894              		.loc 1 291 0
 1895 01c0 434B     		ldr	r3, .L158
 1896 01c2 1969     		ldr	r1, [r3, #16]
 1897              	.LVL174:
 292:Generated_Source\PSoC4/USBFS_std.c ****                      
 1898              		.loc 1 292 0
 1899 01c4 1B69     		ldr	r3, [r3, #16]
 1900 01c6 DBB2     		uxtb	r3, r3
 1901 01c8 4E4A     		ldr	r2, .L158+52
 1902 01ca 1370     		strb	r3, [r2]
 295:Generated_Source\PSoC4/USBFS_std.c ****                     {
 1903              		.loc 1 295 0
 1904 01cc 4E4B     		ldr	r3, .L158+56
 1905 01ce 5A5C     		ldrb	r2, [r3, r1]
 1906 01d0 D2B2     		uxtb	r2, r2
 1907 01d2 484B     		ldr	r3, .L158+36
 1908 01d4 5B5C     		ldrb	r3, [r3, r1]
 1909 01d6 DBB2     		uxtb	r3, r3
 1910 01d8 9A42     		cmp	r2, r3
 1911 01da 04D0     		beq	.L131
 297:Generated_Source\PSoC4/USBFS_std.c ****                     
 1912              		.loc 1 297 0
 1913 01dc 0122     		movs	r2, #1
 1914 01de 484B     		ldr	r3, .L158+48
 1915 01e0 1A70     		strb	r2, [r3]
 303:Generated_Source\PSoC4/USBFS_std.c ****                     #endif /* (USBFS_EP_MANAGEMENT_MANUAL && USBFS_EP_ALLOC_DYNAMIC) */
 1916              		.loc 1 303 0
 1917 01e2 FFF7FEFF 		bl	USBFS_ConfigAltChanged
 1918              	.LVL175:
 1919              	.L131:
 307:Generated_Source\PSoC4/USBFS_std.c ****                 }
 1920              		.loc 1 307 0
 1921 01e6 FFF7FEFF 		bl	USBFS_InitNoDataControlTransfer
 1922              	.LVL176:
 1923 01ea 6FE0     		b	.L106
 1924              	.LVL177:
 1925              	.L121:
ARM GAS  C:\Users\TERENC~1\AppData\Local\Temp\ccVnttLg.s 			page 60


 312:Generated_Source\PSoC4/USBFS_std.c ****                 {
 1926              		.loc 1 312 0
 1927 01ec 0322     		movs	r2, #3
 1928 01ee 1340     		ands	r3, r2
 1929              	.LVL178:
 1930 01f0 012B     		cmp	r3, #1
 1931 01f2 16D0     		beq	.L132
 1932 01f4 002B     		cmp	r3, #0
 1933 01f6 08D0     		beq	.L133
 1934 01f8 022B     		cmp	r3, #2
 1935 01fa 58D1     		bne	.L156
 315:Generated_Source\PSoC4/USBFS_std.c ****                         {
 1936              		.loc 1 315 0
 1937 01fc 344B     		ldr	r3, .L158
 1938 01fe 9B68     		ldr	r3, [r3, #8]
 1939 0200 002B     		cmp	r3, #0
 1940 0202 56D1     		bne	.L147
 317:Generated_Source\PSoC4/USBFS_std.c ****                         }
 1941              		.loc 1 317 0
 1942 0204 FFF7FEFF 		bl	USBFS_ClearEndpointHalt
 1943              	.LVL179:
 1944 0208 60E0     		b	.L106
 1945              	.LVL180:
 1946              	.L133:
 322:Generated_Source\PSoC4/USBFS_std.c ****                         {
 1947              		.loc 1 322 0
 1948 020a 314B     		ldr	r3, .L158
 1949 020c 9B68     		ldr	r3, [r3, #8]
 1950 020e 012B     		cmp	r3, #1
 1951 0210 51D1     		bne	.L148
 324:Generated_Source\PSoC4/USBFS_std.c ****                             requestHandled = USBFS_InitNoDataControlTransfer();
 1952              		.loc 1 324 0
 1953 0212 364A     		ldr	r2, .L158+28
 1954 0214 1378     		ldrb	r3, [r2]
 1955 0216 0221     		movs	r1, #2
 1956 0218 8B43     		bics	r3, r1
 1957 021a 1370     		strb	r3, [r2]
 325:Generated_Source\PSoC4/USBFS_std.c ****                         }
 1958              		.loc 1 325 0
 1959 021c FFF7FEFF 		bl	USBFS_InitNoDataControlTransfer
 1960              	.LVL181:
 1961 0220 54E0     		b	.L106
 1962              	.LVL182:
 1963              	.L132:
 330:Generated_Source\PSoC4/USBFS_std.c ****                         {
 1964              		.loc 1 330 0
 1965 0222 2B4B     		ldr	r3, .L158
 1966 0224 1B69     		ldr	r3, [r3, #16]
 1967 0226 032B     		cmp	r3, #3
 1968 0228 47D8     		bhi	.L149
 332:Generated_Source\PSoC4/USBFS_std.c ****                             requestHandled = USBFS_InitNoDataControlTransfer();
 1969              		.loc 1 332 0
 1970 022a 294B     		ldr	r3, .L158
 1971 022c 9868     		ldr	r0, [r3, #8]
 1972 022e 1A69     		ldr	r2, [r3, #16]
 1973 0230 3649     		ldr	r1, .L158+60
 1974 0232 8B5C     		ldrb	r3, [r1, r2]
ARM GAS  C:\Users\TERENC~1\AppData\Local\Temp\ccVnttLg.s 			page 61


 1975 0234 8343     		bics	r3, r0
 1976 0236 8B54     		strb	r3, [r1, r2]
 333:Generated_Source\PSoC4/USBFS_std.c ****                         }
 1977              		.loc 1 333 0
 1978 0238 FFF7FEFF 		bl	USBFS_InitNoDataControlTransfer
 1979              	.LVL183:
 1980 023c 46E0     		b	.L106
 1981              	.LVL184:
 1982              	.L123:
 342:Generated_Source\PSoC4/USBFS_std.c ****                 {
 1983              		.loc 1 342 0
 1984 023e 0322     		movs	r2, #3
 1985 0240 1340     		ands	r3, r2
 1986              	.LVL185:
 1987 0242 012B     		cmp	r3, #1
 1988 0244 17D0     		beq	.L135
 1989 0246 002B     		cmp	r3, #0
 1990 0248 08D0     		beq	.L136
 1991 024a 022B     		cmp	r3, #2
 1992 024c 37D1     		bne	.L157
 345:Generated_Source\PSoC4/USBFS_std.c ****                         {
 1993              		.loc 1 345 0
 1994 024e 204B     		ldr	r3, .L158
 1995 0250 9B68     		ldr	r3, [r3, #8]
 1996 0252 002B     		cmp	r3, #0
 1997 0254 35D1     		bne	.L151
 347:Generated_Source\PSoC4/USBFS_std.c ****                         }
 1998              		.loc 1 347 0
 1999 0256 FFF7FEFF 		bl	USBFS_SetEndpointHalt
 2000              	.LVL186:
 2001 025a 37E0     		b	.L106
 2002              	.LVL187:
 2003              	.L136:
 353:Generated_Source\PSoC4/USBFS_std.c ****                         {
 2004              		.loc 1 353 0
 2005 025c 1C4B     		ldr	r3, .L158
 2006 025e 9B68     		ldr	r3, [r3, #8]
 2007 0260 012B     		cmp	r3, #1
 2008 0262 30D1     		bne	.L152
 355:Generated_Source\PSoC4/USBFS_std.c ****                             requestHandled = USBFS_InitNoDataControlTransfer();
 2009              		.loc 1 355 0
 2010 0264 214A     		ldr	r2, .L158+28
 2011 0266 1178     		ldrb	r1, [r2]
 2012 0268 0223     		movs	r3, #2
 2013 026a 0B43     		orrs	r3, r1
 2014 026c DBB2     		uxtb	r3, r3
 2015 026e 1370     		strb	r3, [r2]
 356:Generated_Source\PSoC4/USBFS_std.c ****                         }
 2016              		.loc 1 356 0
 2017 0270 FFF7FEFF 		bl	USBFS_InitNoDataControlTransfer
 2018              	.LVL188:
 2019 0274 2AE0     		b	.L106
 2020              	.LVL189:
 2021              	.L135:
 362:Generated_Source\PSoC4/USBFS_std.c ****                         {
 2022              		.loc 1 362 0
 2023 0276 164B     		ldr	r3, .L158
ARM GAS  C:\Users\TERENC~1\AppData\Local\Temp\ccVnttLg.s 			page 62


 2024 0278 1B69     		ldr	r3, [r3, #16]
 2025 027a 032B     		cmp	r3, #3
 2026 027c 25D8     		bhi	.L153
 364:Generated_Source\PSoC4/USBFS_std.c ****                             requestHandled = USBFS_InitNoDataControlTransfer();
 2027              		.loc 1 364 0
 2028 027e 144B     		ldr	r3, .L158
 2029 0280 9868     		ldr	r0, [r3, #8]
 2030 0282 1A69     		ldr	r2, [r3, #16]
 2031 0284 2149     		ldr	r1, .L158+60
 2032 0286 8B5C     		ldrb	r3, [r1, r2]
 2033 0288 8343     		bics	r3, r0
 2034 028a 8B54     		strb	r3, [r1, r2]
 365:Generated_Source\PSoC4/USBFS_std.c ****                         }
 2035              		.loc 1 365 0
 2036 028c FFF7FEFF 		bl	USBFS_InitNoDataControlTransfer
 2037              	.LVL190:
 2038 0290 1CE0     		b	.L106
 2039              	.LVL191:
 2040              	.L138:
  86:Generated_Source\PSoC4/USBFS_std.c ****     uint32 interfaceNumber;
 2041              		.loc 1 86 0
 2042 0292 0020     		movs	r0, #0
 2043 0294 1AE0     		b	.L106
 2044              	.LVL192:
 2045              	.L139:
 2046 0296 0020     		movs	r0, #0
 2047              	.LVL193:
 2048 0298 18E0     		b	.L106
 2049              	.LVL194:
 2050              	.L141:
 2051 029a 0020     		movs	r0, #0
 2052 029c 16E0     		b	.L106
 2053              	.LVL195:
 2054              	.L155:
 2055 029e 0020     		movs	r0, #0
 2056 02a0 14E0     		b	.L106
 2057              	.LVL196:
 2058              	.L143:
 2059 02a2 0020     		movs	r0, #0
 2060 02a4 12E0     		b	.L106
 2061              	.LVL197:
 2062              	.L144:
 2063 02a6 0020     		movs	r0, #0
 2064              	.LVL198:
 2065 02a8 10E0     		b	.L106
 2066              	.LVL199:
 2067              	.L145:
 2068 02aa 0020     		movs	r0, #0
 2069 02ac 0EE0     		b	.L106
 2070              	.L156:
 2071 02ae 0020     		movs	r0, #0
 2072 02b0 0CE0     		b	.L106
 2073              	.L147:
 2074 02b2 0020     		movs	r0, #0
 2075 02b4 0AE0     		b	.L106
 2076              	.L148:
 2077 02b6 0020     		movs	r0, #0
ARM GAS  C:\Users\TERENC~1\AppData\Local\Temp\ccVnttLg.s 			page 63


 2078 02b8 08E0     		b	.L106
 2079              	.L149:
 2080 02ba 0020     		movs	r0, #0
 2081 02bc 06E0     		b	.L106
 2082              	.L157:
 2083 02be 0020     		movs	r0, #0
 2084 02c0 04E0     		b	.L106
 2085              	.L151:
 2086 02c2 0020     		movs	r0, #0
 2087 02c4 02E0     		b	.L106
 2088              	.L152:
 2089 02c6 0020     		movs	r0, #0
 2090 02c8 00E0     		b	.L106
 2091              	.L153:
 2092 02ca 0020     		movs	r0, #0
 2093              	.LVL200:
 2094              	.L106:
 380:Generated_Source\PSoC4/USBFS_std.c **** 
 2095              		.loc 1 380 0
 2096              		@ sp needed
 2097 02cc 10BD     		pop	{r4, pc}
 2098              	.L159:
 2099 02ce C046     		.align	2
 2100              	.L158:
 2101 02d0 00002C40 		.word	1076625408
 2102 02d4 00000000 		.word	USBFS_currentTD
 2103 02d8 00000000 		.word	USBFS_STRING_DESCRIPTORS
 2104 02dc 00000000 		.word	USBFS_DEVICE0_DESCR
 2105 02e0 00000000 		.word	USBFS_idSerialNumberStringDescriptor
 2106 02e4 00000000 		.word	USBFS_EP
 2107 02e8 00000000 		.word	.LANCHOR0
 2108 02ec 00000000 		.word	USBFS_deviceStatus
 2109 02f0 00000000 		.word	USBFS_configuration
 2110 02f4 00000000 		.word	USBFS_interfaceSetting
 2111 02f8 00000000 		.word	.L122
 2112 02fc 00000000 		.word	USBFS_deviceAddress
 2113 0300 00000000 		.word	USBFS_configurationChanged
 2114 0304 00000000 		.word	USBFS_interfaceNumber
 2115 0308 00000000 		.word	USBFS_interfaceSettingLast
 2116 030c 00000000 		.word	USBFS_interfaceStatus
 2117              		.cfi_endproc
 2118              	.LFE161:
 2119              		.size	USBFS_HandleStandardRqst, .-USBFS_HandleStandardRqst
 2120              		.section	.rodata.str1.4,"aMS",%progbits,1
 2121              		.align	2
 2122              	.LC0:
 2123 0000 30313233 		.ascii	"0123456789ABCDEF\000"
 2123      34353637 
 2123      38394142 
 2123      43444546 
 2123      00
 2124              		.bss
 2125              		.align	2
 2126              		.set	.LANCHOR0,. + 0
 2127              		.type	USBFS_tBuffer.6333, %object
 2128              		.size	USBFS_tBuffer.6333, 2
 2129              	USBFS_tBuffer.6333:
ARM GAS  C:\Users\TERENC~1\AppData\Local\Temp\ccVnttLg.s 			page 64


 2130 0000 0000     		.space	2
 2131              		.text
 2132              	.Letext0:
 2133              		.file 2 "Generated_Source\\PSoC4\\cytypes.h"
 2134              		.file 3 "Generated_Source\\PSoC4\\USBFS.h"
 2135              		.file 4 "Generated_Source\\PSoC4\\USBFS_pvt.h"
 2136              		.file 5 "Generated_Source\\PSoC4\\CyLib.h"
 2137              		.section	.debug_info,"",%progbits
 2138              	.Ldebug_info0:
 2139 0000 030B0000 		.4byte	0xb03
 2140 0004 0400     		.2byte	0x4
 2141 0006 00000000 		.4byte	.Ldebug_abbrev0
 2142 000a 04       		.byte	0x4
 2143 000b 01       		.uleb128 0x1
 2144 000c 52000000 		.4byte	.LASF115
 2145 0010 0C       		.byte	0xc
 2146 0011 37010000 		.4byte	.LASF116
 2147 0015 A1050000 		.4byte	.LASF117
 2148 0019 00000000 		.4byte	.Ldebug_ranges0+0
 2149 001d 00000000 		.4byte	0
 2150 0021 00000000 		.4byte	.Ldebug_line0
 2151 0025 02       		.uleb128 0x2
 2152 0026 01       		.byte	0x1
 2153 0027 06       		.byte	0x6
 2154 0028 86010000 		.4byte	.LASF0
 2155 002c 02       		.uleb128 0x2
 2156 002d 01       		.byte	0x1
 2157 002e 08       		.byte	0x8
 2158 002f D3040000 		.4byte	.LASF1
 2159 0033 02       		.uleb128 0x2
 2160 0034 02       		.byte	0x2
 2161 0035 05       		.byte	0x5
 2162 0036 F3040000 		.4byte	.LASF2
 2163 003a 02       		.uleb128 0x2
 2164 003b 02       		.byte	0x2
 2165 003c 07       		.byte	0x7
 2166 003d 15030000 		.4byte	.LASF3
 2167 0041 02       		.uleb128 0x2
 2168 0042 04       		.byte	0x4
 2169 0043 05       		.byte	0x5
 2170 0044 23020000 		.4byte	.LASF4
 2171 0048 02       		.uleb128 0x2
 2172 0049 04       		.byte	0x4
 2173 004a 07       		.byte	0x7
 2174 004b CF020000 		.4byte	.LASF5
 2175 004f 02       		.uleb128 0x2
 2176 0050 08       		.byte	0x8
 2177 0051 05       		.byte	0x5
 2178 0052 78010000 		.4byte	.LASF6
 2179 0056 02       		.uleb128 0x2
 2180 0057 08       		.byte	0x8
 2181 0058 07       		.byte	0x7
 2182 0059 EA000000 		.4byte	.LASF7
 2183 005d 03       		.uleb128 0x3
 2184 005e 04       		.byte	0x4
 2185 005f 05       		.byte	0x5
 2186 0060 696E7400 		.ascii	"int\000"
ARM GAS  C:\Users\TERENC~1\AppData\Local\Temp\ccVnttLg.s 			page 65


 2187 0064 02       		.uleb128 0x2
 2188 0065 04       		.byte	0x4
 2189 0066 07       		.byte	0x7
 2190 0067 C2020000 		.4byte	.LASF8
 2191 006b 04       		.uleb128 0x4
 2192 006c 2C020000 		.4byte	.LASF9
 2193 0070 02       		.byte	0x2
 2194 0071 E401     		.2byte	0x1e4
 2195 0073 2C000000 		.4byte	0x2c
 2196 0077 04       		.uleb128 0x4
 2197 0078 13000000 		.4byte	.LASF10
 2198 007c 02       		.byte	0x2
 2199 007d E501     		.2byte	0x1e5
 2200 007f 3A000000 		.4byte	0x3a
 2201 0083 04       		.uleb128 0x4
 2202 0084 7C020000 		.4byte	.LASF11
 2203 0088 02       		.byte	0x2
 2204 0089 E601     		.2byte	0x1e6
 2205 008b 48000000 		.4byte	0x48
 2206 008f 02       		.uleb128 0x2
 2207 0090 04       		.byte	0x4
 2208 0091 04       		.byte	0x4
 2209 0092 76040000 		.4byte	.LASF12
 2210 0096 02       		.uleb128 0x2
 2211 0097 08       		.byte	0x8
 2212 0098 04       		.byte	0x4
 2213 0099 40020000 		.4byte	.LASF13
 2214 009d 04       		.uleb128 0x4
 2215 009e 12060000 		.4byte	.LASF14
 2216 00a2 02       		.byte	0x2
 2217 00a3 F501     		.2byte	0x1f5
 2218 00a5 A9000000 		.4byte	0xa9
 2219 00a9 02       		.uleb128 0x2
 2220 00aa 01       		.byte	0x1
 2221 00ab 08       		.byte	0x8
 2222 00ac D3050000 		.4byte	.LASF15
 2223 00b0 05       		.uleb128 0x5
 2224 00b1 6B000000 		.4byte	0x6b
 2225 00b5 04       		.uleb128 0x4
 2226 00b6 9D030000 		.4byte	.LASF16
 2227 00ba 02       		.byte	0x2
 2228 00bb 9002     		.2byte	0x290
 2229 00bd C1000000 		.4byte	0xc1
 2230 00c1 05       		.uleb128 0x5
 2231 00c2 83000000 		.4byte	0x83
 2232 00c6 02       		.uleb128 0x2
 2233 00c7 08       		.byte	0x8
 2234 00c8 04       		.byte	0x4
 2235 00c9 DD030000 		.4byte	.LASF17
 2236 00cd 02       		.uleb128 0x2
 2237 00ce 04       		.byte	0x4
 2238 00cf 07       		.byte	0x7
 2239 00d0 D4030000 		.4byte	.LASF18
 2240 00d4 06       		.uleb128 0x6
 2241 00d5 0C       		.byte	0xc
 2242 00d6 03       		.byte	0x3
 2243 00d7 95       		.byte	0x95
ARM GAS  C:\Users\TERENC~1\AppData\Local\Temp\ccVnttLg.s 			page 66


 2244 00d8 49010000 		.4byte	0x149
 2245 00dc 07       		.uleb128 0x7
 2246 00dd F5030000 		.4byte	.LASF19
 2247 00e1 03       		.byte	0x3
 2248 00e2 97       		.byte	0x97
 2249 00e3 6B000000 		.4byte	0x6b
 2250 00e7 00       		.byte	0
 2251 00e8 07       		.uleb128 0x7
 2252 00e9 95040000 		.4byte	.LASF20
 2253 00ed 03       		.byte	0x3
 2254 00ee 98       		.byte	0x98
 2255 00ef 6B000000 		.4byte	0x6b
 2256 00f3 01       		.byte	0x1
 2257 00f4 07       		.uleb128 0x7
 2258 00f5 BE030000 		.4byte	.LASF21
 2259 00f9 03       		.byte	0x3
 2260 00fa 99       		.byte	0x99
 2261 00fb 6B000000 		.4byte	0x6b
 2262 00ff 02       		.byte	0x2
 2263 0100 07       		.uleb128 0x7
 2264 0101 32020000 		.4byte	.LASF22
 2265 0105 03       		.byte	0x3
 2266 0106 9A       		.byte	0x9a
 2267 0107 6B000000 		.4byte	0x6b
 2268 010b 03       		.byte	0x3
 2269 010c 07       		.uleb128 0x7
 2270 010d 01010000 		.4byte	.LASF23
 2271 0111 03       		.byte	0x3
 2272 0112 9B       		.byte	0x9b
 2273 0113 6B000000 		.4byte	0x6b
 2274 0117 04       		.byte	0x4
 2275 0118 07       		.uleb128 0x7
 2276 0119 8F020000 		.4byte	.LASF24
 2277 011d 03       		.byte	0x3
 2278 011e 9C       		.byte	0x9c
 2279 011f 6B000000 		.4byte	0x6b
 2280 0123 05       		.byte	0x5
 2281 0124 07       		.uleb128 0x7
 2282 0125 07060000 		.4byte	.LASF25
 2283 0129 03       		.byte	0x3
 2284 012a 9D       		.byte	0x9d
 2285 012b 77000000 		.4byte	0x77
 2286 012f 06       		.byte	0x6
 2287 0130 07       		.uleb128 0x7
 2288 0131 D8050000 		.4byte	.LASF26
 2289 0135 03       		.byte	0x3
 2290 0136 9E       		.byte	0x9e
 2291 0137 77000000 		.4byte	0x77
 2292 013b 08       		.byte	0x8
 2293 013c 07       		.uleb128 0x7
 2294 013d 59030000 		.4byte	.LASF27
 2295 0141 03       		.byte	0x3
 2296 0142 9F       		.byte	0x9f
 2297 0143 6B000000 		.4byte	0x6b
 2298 0147 0A       		.byte	0xa
 2299 0148 00       		.byte	0
 2300 0149 08       		.uleb128 0x8
ARM GAS  C:\Users\TERENC~1\AppData\Local\Temp\ccVnttLg.s 			page 67


 2301 014a 3C050000 		.4byte	.LASF28
 2302 014e 03       		.byte	0x3
 2303 014f A0       		.byte	0xa0
 2304 0150 D4000000 		.4byte	0xd4
 2305 0154 06       		.uleb128 0x6
 2306 0155 08       		.byte	0x8
 2307 0156 03       		.byte	0x3
 2308 0157 A2       		.byte	0xa2
 2309 0158 A5010000 		.4byte	0x1a5
 2310 015c 07       		.uleb128 0x7
 2311 015d 59030000 		.4byte	.LASF27
 2312 0161 03       		.byte	0x3
 2313 0162 A4       		.byte	0xa4
 2314 0163 6B000000 		.4byte	0x6b
 2315 0167 00       		.byte	0
 2316 0168 07       		.uleb128 0x7
 2317 0169 C8050000 		.4byte	.LASF29
 2318 016d 03       		.byte	0x3
 2319 016e A5       		.byte	0xa5
 2320 016f 6B000000 		.4byte	0x6b
 2321 0173 01       		.byte	0x1
 2322 0174 07       		.uleb128 0x7
 2323 0175 01010000 		.4byte	.LASF23
 2324 0179 03       		.byte	0x3
 2325 017a A6       		.byte	0xa6
 2326 017b 6B000000 		.4byte	0x6b
 2327 017f 02       		.byte	0x2
 2328 0180 07       		.uleb128 0x7
 2329 0181 7E050000 		.4byte	.LASF30
 2330 0185 03       		.byte	0x3
 2331 0186 A7       		.byte	0xa7
 2332 0187 6B000000 		.4byte	0x6b
 2333 018b 03       		.byte	0x3
 2334 018c 07       		.uleb128 0x7
 2335 018d D8050000 		.4byte	.LASF26
 2336 0191 03       		.byte	0x3
 2337 0192 A8       		.byte	0xa8
 2338 0193 77000000 		.4byte	0x77
 2339 0197 04       		.byte	0x4
 2340 0198 07       		.uleb128 0x7
 2341 0199 B1060000 		.4byte	.LASF31
 2342 019d 03       		.byte	0x3
 2343 019e A9       		.byte	0xa9
 2344 019f 6B000000 		.4byte	0x6b
 2345 01a3 06       		.byte	0x6
 2346 01a4 00       		.byte	0
 2347 01a5 08       		.uleb128 0x8
 2348 01a6 4C020000 		.4byte	.LASF32
 2349 01aa 03       		.byte	0x3
 2350 01ab AA       		.byte	0xaa
 2351 01ac 54010000 		.4byte	0x154
 2352 01b0 06       		.uleb128 0x6
 2353 01b1 04       		.byte	0x4
 2354 01b2 03       		.byte	0x3
 2355 01b3 AC       		.byte	0xac
 2356 01b4 D1010000 		.4byte	0x1d1
 2357 01b8 07       		.uleb128 0x7
ARM GAS  C:\Users\TERENC~1\AppData\Local\Temp\ccVnttLg.s 			page 68


 2358 01b9 75060000 		.4byte	.LASF33
 2359 01bd 03       		.byte	0x3
 2360 01be AE       		.byte	0xae
 2361 01bf 6B000000 		.4byte	0x6b
 2362 01c3 00       		.byte	0
 2363 01c4 07       		.uleb128 0x7
 2364 01c5 44060000 		.4byte	.LASF34
 2365 01c9 03       		.byte	0x3
 2366 01ca AF       		.byte	0xaf
 2367 01cb 77000000 		.4byte	0x77
 2368 01cf 02       		.byte	0x2
 2369 01d0 00       		.byte	0
 2370 01d1 08       		.uleb128 0x8
 2371 01d2 35040000 		.4byte	.LASF35
 2372 01d6 03       		.byte	0x3
 2373 01d7 B0       		.byte	0xb0
 2374 01d8 B0010000 		.4byte	0x1b0
 2375 01dc 06       		.uleb128 0x6
 2376 01dd 0C       		.byte	0xc
 2377 01de 03       		.byte	0x3
 2378 01df B2       		.byte	0xb2
 2379 01e0 09020000 		.4byte	0x209
 2380 01e4 07       		.uleb128 0x7
 2381 01e5 0D000000 		.4byte	.LASF36
 2382 01e9 03       		.byte	0x3
 2383 01ea B4       		.byte	0xb4
 2384 01eb 77000000 		.4byte	0x77
 2385 01ef 00       		.byte	0
 2386 01f0 07       		.uleb128 0x7
 2387 01f1 83020000 		.4byte	.LASF37
 2388 01f5 03       		.byte	0x3
 2389 01f6 B5       		.byte	0xb5
 2390 01f7 09020000 		.4byte	0x209
 2391 01fb 04       		.byte	0x4
 2392 01fc 07       		.uleb128 0x7
 2393 01fd 00000000 		.4byte	.LASF38
 2394 0201 03       		.byte	0x3
 2395 0202 B6       		.byte	0xb6
 2396 0203 0F020000 		.4byte	0x20f
 2397 0207 08       		.byte	0x8
 2398 0208 00       		.byte	0
 2399 0209 09       		.uleb128 0x9
 2400 020a 04       		.byte	0x4
 2401 020b B0000000 		.4byte	0xb0
 2402 020f 09       		.uleb128 0x9
 2403 0210 04       		.byte	0x4
 2404 0211 D1010000 		.4byte	0x1d1
 2405 0215 08       		.uleb128 0x8
 2406 0216 FD040000 		.4byte	.LASF39
 2407 021a 03       		.byte	0x3
 2408 021b B7       		.byte	0xb7
 2409 021c DC010000 		.4byte	0x1dc
 2410 0220 06       		.uleb128 0x6
 2411 0221 08       		.byte	0x8
 2412 0222 03       		.byte	0x3
 2413 0223 B9       		.byte	0xb9
 2414 0224 3F020000 		.4byte	0x23f
ARM GAS  C:\Users\TERENC~1\AppData\Local\Temp\ccVnttLg.s 			page 69


 2415 0228 0A       		.uleb128 0xa
 2416 0229 6300     		.ascii	"c\000"
 2417 022b 03       		.byte	0x3
 2418 022c BB       		.byte	0xbb
 2419 022d 6B000000 		.4byte	0x6b
 2420 0231 00       		.byte	0
 2421 0232 07       		.uleb128 0x7
 2422 0233 EE030000 		.4byte	.LASF40
 2423 0237 03       		.byte	0x3
 2424 0238 BC       		.byte	0xbc
 2425 0239 3F020000 		.4byte	0x23f
 2426 023d 04       		.byte	0x4
 2427 023e 00       		.byte	0
 2428 023f 09       		.uleb128 0x9
 2429 0240 04       		.byte	0x4
 2430 0241 45020000 		.4byte	0x245
 2431 0245 0B       		.uleb128 0xb
 2432 0246 08       		.uleb128 0x8
 2433 0247 11070000 		.4byte	.LASF41
 2434 024b 03       		.byte	0x3
 2435 024c BD       		.byte	0xbd
 2436 024d 20020000 		.4byte	0x220
 2437 0251 06       		.uleb128 0x6
 2438 0252 20       		.byte	0x20
 2439 0253 03       		.byte	0x3
 2440 0254 CD       		.byte	0xcd
 2441 0255 66020000 		.4byte	0x266
 2442 0259 07       		.uleb128 0x7
 2443 025a AA060000 		.4byte	.LASF42
 2444 025e 03       		.byte	0x3
 2445 025f CF       		.byte	0xcf
 2446 0260 66020000 		.4byte	0x266
 2447 0264 00       		.byte	0
 2448 0265 00       		.byte	0
 2449 0266 0C       		.uleb128 0xc
 2450 0267 83000000 		.4byte	0x83
 2451 026b 76020000 		.4byte	0x276
 2452 026f 0D       		.uleb128 0xd
 2453 0270 CD000000 		.4byte	0xcd
 2454 0274 07       		.byte	0x7
 2455 0275 00       		.byte	0
 2456 0276 08       		.uleb128 0x8
 2457 0277 06010000 		.4byte	.LASF43
 2458 027b 03       		.byte	0x3
 2459 027c D0       		.byte	0xd0
 2460 027d 51020000 		.4byte	0x251
 2461 0281 06       		.uleb128 0x6
 2462 0282 40       		.byte	0x40
 2463 0283 03       		.byte	0x3
 2464 0284 DC       		.byte	0xdc
 2465 0285 BA020000 		.4byte	0x2ba
 2466 0289 07       		.uleb128 0x7
 2467 028a 10040000 		.4byte	.LASF44
 2468 028e 03       		.byte	0x3
 2469 028f DE       		.byte	0xde
 2470 0290 83000000 		.4byte	0x83
 2471 0294 00       		.byte	0
ARM GAS  C:\Users\TERENC~1\AppData\Local\Temp\ccVnttLg.s 			page 70


 2472 0295 07       		.uleb128 0x7
 2473 0296 17040000 		.4byte	.LASF45
 2474 029a 03       		.byte	0x3
 2475 029b DF       		.byte	0xdf
 2476 029c 83000000 		.4byte	0x83
 2477 02a0 04       		.byte	0x4
 2478 02a1 07       		.uleb128 0x7
 2479 02a2 4F040000 		.4byte	.LASF46
 2480 02a6 03       		.byte	0x3
 2481 02a7 E0       		.byte	0xe0
 2482 02a8 83000000 		.4byte	0x83
 2483 02ac 08       		.byte	0x8
 2484 02ad 0A       		.uleb128 0xa
 2485 02ae 67617000 		.ascii	"gap\000"
 2486 02b2 03       		.byte	0x3
 2487 02b3 E1       		.byte	0xe1
 2488 02b4 BA020000 		.4byte	0x2ba
 2489 02b8 0C       		.byte	0xc
 2490 02b9 00       		.byte	0
 2491 02ba 0C       		.uleb128 0xc
 2492 02bb 83000000 		.4byte	0x83
 2493 02bf CA020000 		.4byte	0x2ca
 2494 02c3 0D       		.uleb128 0xd
 2495 02c4 CD000000 		.4byte	0xcd
 2496 02c8 0C       		.byte	0xc
 2497 02c9 00       		.byte	0
 2498 02ca 08       		.uleb128 0x8
 2499 02cb 2F030000 		.4byte	.LASF47
 2500 02cf 03       		.byte	0x3
 2501 02d0 E2       		.byte	0xe2
 2502 02d1 81020000 		.4byte	0x281
 2503 02d5 06       		.uleb128 0x6
 2504 02d6 40       		.byte	0x40
 2505 02d7 03       		.byte	0x3
 2506 02d8 EE       		.byte	0xee
 2507 02d9 56030000 		.4byte	0x356
 2508 02dd 07       		.uleb128 0x7
 2509 02de 1C010000 		.4byte	.LASF48
 2510 02e2 03       		.byte	0x3
 2511 02e3 F0       		.byte	0xf0
 2512 02e4 83000000 		.4byte	0x83
 2513 02e8 00       		.byte	0
 2514 02e9 07       		.uleb128 0x7
 2515 02ea D5060000 		.4byte	.LASF49
 2516 02ee 03       		.byte	0x3
 2517 02ef F1       		.byte	0xf1
 2518 02f0 83000000 		.4byte	0x83
 2519 02f4 04       		.byte	0x4
 2520 02f5 07       		.uleb128 0x7
 2521 02f6 47020000 		.4byte	.LASF50
 2522 02fa 03       		.byte	0x3
 2523 02fb F2       		.byte	0xf2
 2524 02fc 83000000 		.4byte	0x83
 2525 0300 08       		.byte	0x8
 2526 0301 07       		.uleb128 0x7
 2527 0302 AB020000 		.4byte	.LASF51
 2528 0306 03       		.byte	0x3
ARM GAS  C:\Users\TERENC~1\AppData\Local\Temp\ccVnttLg.s 			page 71


 2529 0307 F3       		.byte	0xf3
 2530 0308 83000000 		.4byte	0x83
 2531 030c 0C       		.byte	0xc
 2532 030d 07       		.uleb128 0x7
 2533 030e 3B020000 		.4byte	.LASF52
 2534 0312 03       		.byte	0x3
 2535 0313 F4       		.byte	0xf4
 2536 0314 83000000 		.4byte	0x83
 2537 0318 10       		.byte	0x10
 2538 0319 07       		.uleb128 0x7
 2539 031a B7060000 		.4byte	.LASF53
 2540 031e 03       		.byte	0x3
 2541 031f F5       		.byte	0xf5
 2542 0320 83000000 		.4byte	0x83
 2543 0324 14       		.byte	0x14
 2544 0325 07       		.uleb128 0x7
 2545 0326 20050000 		.4byte	.LASF54
 2546 032a 03       		.byte	0x3
 2547 032b F6       		.byte	0xf6
 2548 032c 83000000 		.4byte	0x83
 2549 0330 18       		.byte	0x18
 2550 0331 07       		.uleb128 0x7
 2551 0332 08040000 		.4byte	.LASF55
 2552 0336 03       		.byte	0x3
 2553 0337 F7       		.byte	0xf7
 2554 0338 83000000 		.4byte	0x83
 2555 033c 1C       		.byte	0x1c
 2556 033d 07       		.uleb128 0x7
 2557 033e 94060000 		.4byte	.LASF56
 2558 0342 03       		.byte	0x3
 2559 0343 F8       		.byte	0xf8
 2560 0344 83000000 		.4byte	0x83
 2561 0348 20       		.byte	0x20
 2562 0349 0A       		.uleb128 0xa
 2563 034a 67617000 		.ascii	"gap\000"
 2564 034e 03       		.byte	0x3
 2565 034f F9       		.byte	0xf9
 2566 0350 56030000 		.4byte	0x356
 2567 0354 24       		.byte	0x24
 2568 0355 00       		.byte	0
 2569 0356 0C       		.uleb128 0xc
 2570 0357 83000000 		.4byte	0x83
 2571 035b 66030000 		.4byte	0x366
 2572 035f 0D       		.uleb128 0xd
 2573 0360 CD000000 		.4byte	0xcd
 2574 0364 06       		.byte	0x6
 2575 0365 00       		.byte	0
 2576 0366 08       		.uleb128 0x8
 2577 0367 FF010000 		.4byte	.LASF57
 2578 036b 03       		.byte	0x3
 2579 036c FA       		.byte	0xfa
 2580 036d D5020000 		.4byte	0x2d5
 2581 0371 0E       		.uleb128 0xe
 2582 0372 4002     		.2byte	0x240
 2583 0374 03       		.byte	0x3
 2584 0375 1601     		.2byte	0x116
 2585 0377 89030000 		.4byte	0x389
ARM GAS  C:\Users\TERENC~1\AppData\Local\Temp\ccVnttLg.s 			page 72


 2586 037b 0F       		.uleb128 0xf
 2587 037c 89020000 		.4byte	.LASF58
 2588 0380 03       		.byte	0x3
 2589 0381 1801     		.2byte	0x118
 2590 0383 89030000 		.4byte	0x389
 2591 0387 00       		.byte	0
 2592 0388 00       		.byte	0
 2593 0389 0C       		.uleb128 0xc
 2594 038a CA020000 		.4byte	0x2ca
 2595 038e 99030000 		.4byte	0x399
 2596 0392 0D       		.uleb128 0xd
 2597 0393 CD000000 		.4byte	0xcd
 2598 0397 08       		.byte	0x8
 2599 0398 00       		.byte	0
 2600 0399 04       		.uleb128 0x4
 2601 039a 22010000 		.4byte	.LASF59
 2602 039e 03       		.byte	0x3
 2603 039f 1901     		.2byte	0x119
 2604 03a1 71030000 		.4byte	0x371
 2605 03a5 0E       		.uleb128 0xe
 2606 03a6 4002     		.2byte	0x240
 2607 03a8 03       		.byte	0x3
 2608 03a9 1C01     		.2byte	0x11c
 2609 03ab BD030000 		.4byte	0x3bd
 2610 03af 0F       		.uleb128 0xf
 2611 03b0 53030000 		.4byte	.LASF60
 2612 03b4 03       		.byte	0x3
 2613 03b5 1E01     		.2byte	0x11e
 2614 03b7 BD030000 		.4byte	0x3bd
 2615 03bb 00       		.byte	0
 2616 03bc 00       		.byte	0
 2617 03bd 0C       		.uleb128 0xc
 2618 03be 66030000 		.4byte	0x366
 2619 03c2 CD030000 		.4byte	0x3cd
 2620 03c6 0D       		.uleb128 0xd
 2621 03c7 CD000000 		.4byte	0xcd
 2622 03cb 08       		.byte	0x8
 2623 03cc 00       		.byte	0
 2624 03cd 04       		.uleb128 0x4
 2625 03ce 5A010000 		.4byte	.LASF61
 2626 03d2 03       		.byte	0x3
 2627 03d3 1F01     		.2byte	0x11f
 2628 03d5 A5030000 		.4byte	0x3a5
 2629 03d9 10       		.uleb128 0x10
 2630 03da A0010000 		.4byte	.LASF63
 2631 03de 01       		.byte	0x1
 2632 03df 8E01     		.2byte	0x18e
 2633 03e1 00000000 		.4byte	.LFB162
 2634 03e5 64000000 		.4byte	.LFE162-.LFB162
 2635 03e9 01       		.uleb128 0x1
 2636 03ea 9C       		.byte	0x9c
 2637 03eb 4A040000 		.4byte	0x44a
 2638 03ef 11       		.uleb128 0x11
 2639 03f0 CD040000 		.4byte	.LASF67
 2640 03f4 01       		.byte	0x1
 2641 03f5 8E01     		.2byte	0x18e
 2642 03f7 4A040000 		.4byte	0x44a
ARM GAS  C:\Users\TERENC~1\AppData\Local\Temp\ccVnttLg.s 			page 73


 2643 03fb 00000000 		.4byte	.LLST0
 2644 03ff 12       		.uleb128 0x12
 2645 0400 68657800 		.ascii	"hex\000"
 2646 0404 01       		.byte	0x1
 2647 0405 9001     		.2byte	0x190
 2648 0407 65040000 		.4byte	0x465
 2649 040b 02       		.uleb128 0x2
 2650 040c 91       		.byte	0x91
 2651 040d 54       		.sleb128 -44
 2652 040e 13       		.uleb128 0x13
 2653 040f 6900     		.ascii	"i\000"
 2654 0411 01       		.byte	0x1
 2655 0412 9101     		.2byte	0x191
 2656 0414 83000000 		.4byte	0x83
 2657 0418 2C000000 		.4byte	.LLST1
 2658 041c 13       		.uleb128 0x13
 2659 041d 6A00     		.ascii	"j\000"
 2660 041f 01       		.byte	0x1
 2661 0420 9201     		.2byte	0x192
 2662 0422 83000000 		.4byte	0x83
 2663 0426 4B000000 		.4byte	.LLST2
 2664 042a 14       		.uleb128 0x14
 2665 042b 18060000 		.4byte	.LASF62
 2666 042f 01       		.byte	0x1
 2667 0430 9301     		.2byte	0x193
 2668 0432 6A040000 		.4byte	0x46a
 2669 0436 02       		.uleb128 0x2
 2670 0437 91       		.byte	0x91
 2671 0438 4C       		.sleb128 -52
 2672 0439 15       		.uleb128 0x15
 2673 043a 2A000000 		.4byte	.LVL3
 2674 043e D90A0000 		.4byte	0xad9
 2675 0442 16       		.uleb128 0x16
 2676 0443 01       		.uleb128 0x1
 2677 0444 50       		.byte	0x50
 2678 0445 02       		.uleb128 0x2
 2679 0446 91       		.byte	0x91
 2680 0447 4C       		.sleb128 -52
 2681 0448 00       		.byte	0
 2682 0449 00       		.byte	0
 2683 044a 09       		.uleb128 0x9
 2684 044b 04       		.byte	0x4
 2685 044c 6B000000 		.4byte	0x6b
 2686 0450 0C       		.uleb128 0xc
 2687 0451 60040000 		.4byte	0x460
 2688 0455 60040000 		.4byte	0x460
 2689 0459 0D       		.uleb128 0xd
 2690 045a CD000000 		.4byte	0xcd
 2691 045e 10       		.byte	0x10
 2692 045f 00       		.byte	0
 2693 0460 17       		.uleb128 0x17
 2694 0461 9D000000 		.4byte	0x9d
 2695 0465 17       		.uleb128 0x17
 2696 0466 50040000 		.4byte	0x450
 2697 046a 0C       		.uleb128 0xc
 2698 046b 6B000000 		.4byte	0x6b
 2699 046f 7A040000 		.4byte	0x47a
ARM GAS  C:\Users\TERENC~1\AppData\Local\Temp\ccVnttLg.s 			page 74


 2700 0473 0D       		.uleb128 0xd
 2701 0474 CD000000 		.4byte	0xcd
 2702 0478 07       		.byte	0x7
 2703 0479 00       		.byte	0
 2704 047a 10       		.uleb128 0x10
 2705 047b 13020000 		.4byte	.LASF64
 2706 047f 01       		.byte	0x1
 2707 0480 B501     		.2byte	0x1b5
 2708 0482 00000000 		.4byte	.LFB163
 2709 0486 CC000000 		.4byte	.LFE163-.LFB163
 2710 048a 01       		.uleb128 0x1
 2711 048b 9C       		.byte	0x9c
 2712 048c B0040000 		.4byte	0x4b0
 2713 0490 13       		.uleb128 0x13
 2714 0491 657000   		.ascii	"ep\000"
 2715 0494 01       		.byte	0x1
 2716 0495 B701     		.2byte	0x1b7
 2717 0497 83000000 		.4byte	0x83
 2718 049b 6A000000 		.4byte	.LLST3
 2719 049f 18       		.uleb128 0x18
 2720 04a0 96020000 		.4byte	.LASF65
 2721 04a4 01       		.byte	0x1
 2722 04a5 BA01     		.2byte	0x1ba
 2723 04a7 6B000000 		.4byte	0x6b
 2724 04ab 89000000 		.4byte	.LLST4
 2725 04af 00       		.byte	0
 2726 04b0 10       		.uleb128 0x10
 2727 04b1 E1040000 		.4byte	.LASF66
 2728 04b5 01       		.byte	0x1
 2729 04b6 1402     		.2byte	0x214
 2730 04b8 00000000 		.4byte	.LFB164
 2731 04bc 44000000 		.4byte	.LFE164-.LFB164
 2732 04c0 01       		.uleb128 0x1
 2733 04c1 9C       		.byte	0x9c
 2734 04c2 D5040000 		.4byte	0x4d5
 2735 04c6 13       		.uleb128 0x13
 2736 04c7 6900     		.ascii	"i\000"
 2737 04c9 01       		.byte	0x1
 2738 04ca 1602     		.2byte	0x216
 2739 04cc 6B000000 		.4byte	0x6b
 2740 04d0 A8000000 		.4byte	.LLST5
 2741 04d4 00       		.byte	0
 2742 04d5 19       		.uleb128 0x19
 2743 04d6 08050000 		.4byte	.LASF73
 2744 04da 01       		.byte	0x1
 2745 04db AE03     		.2byte	0x3ae
 2746 04dd 10050000 		.4byte	0x510
 2747 04e1 00000000 		.4byte	.LFB167
 2748 04e5 28000000 		.4byte	.LFE167-.LFB167
 2749 04e9 01       		.uleb128 0x1
 2750 04ea 9C       		.byte	0x9c
 2751 04eb 10050000 		.4byte	0x510
 2752 04ef 11       		.uleb128 0x11
 2753 04f0 E0000000 		.4byte	.LASF68
 2754 04f4 01       		.byte	0x1
 2755 04f5 AE03     		.2byte	0x3ae
 2756 04f7 6B000000 		.4byte	0x6b
ARM GAS  C:\Users\TERENC~1\AppData\Local\Temp\ccVnttLg.s 			page 75


 2757 04fb D2000000 		.4byte	.LLST6
 2758 04ff 18       		.uleb128 0x18
 2759 0500 E9030000 		.4byte	.LASF69
 2760 0504 01       		.byte	0x1
 2761 0505 B203     		.2byte	0x3b2
 2762 0507 10050000 		.4byte	0x510
 2763 050b 0C010000 		.4byte	.LLST7
 2764 050f 00       		.byte	0
 2765 0510 09       		.uleb128 0x9
 2766 0511 04       		.byte	0x4
 2767 0512 16050000 		.4byte	0x516
 2768 0516 17       		.uleb128 0x17
 2769 0517 46020000 		.4byte	0x246
 2770 051b 10       		.uleb128 0x10
 2771 051c 1E040000 		.4byte	.LASF70
 2772 0520 01       		.byte	0x1
 2773 0521 2503     		.2byte	0x325
 2774 0523 00000000 		.4byte	.LFB166
 2775 0527 7C010000 		.4byte	.LFE166-.LFB166
 2776 052b 01       		.uleb128 0x1
 2777 052c 9C       		.byte	0x9c
 2778 052d A8050000 		.4byte	0x5a8
 2779 0531 13       		.uleb128 0x13
 2780 0532 657000   		.ascii	"ep\000"
 2781 0535 01       		.byte	0x1
 2782 0536 2703     		.2byte	0x327
 2783 0538 83000000 		.4byte	0x83
 2784 053c 44010000 		.4byte	.LLST8
 2785 0540 18       		.uleb128 0x18
 2786 0541 B8030000 		.4byte	.LASF71
 2787 0545 01       		.byte	0x1
 2788 0546 2803     		.2byte	0x328
 2789 0548 83000000 		.4byte	0x83
 2790 054c 57010000 		.4byte	.LLST9
 2791 0550 18       		.uleb128 0x18
 2792 0551 96020000 		.4byte	.LASF65
 2793 0555 01       		.byte	0x1
 2794 0556 2903     		.2byte	0x329
 2795 0558 83000000 		.4byte	0x83
 2796 055c 82010000 		.4byte	.LLST10
 2797 0560 13       		.uleb128 0x13
 2798 0561 6900     		.ascii	"i\000"
 2799 0563 01       		.byte	0x1
 2800 0564 2A03     		.2byte	0x32a
 2801 0566 83000000 		.4byte	0x83
 2802 056a B6010000 		.4byte	.LLST11
 2803 056e 18       		.uleb128 0x18
 2804 056f 55040000 		.4byte	.LASF72
 2805 0573 01       		.byte	0x1
 2806 0574 2B03     		.2byte	0x32b
 2807 0576 6B000000 		.4byte	0x6b
 2808 057a D5010000 		.4byte	.LLST12
 2809 057e 18       		.uleb128 0x18
 2810 057f E9030000 		.4byte	.LASF69
 2811 0583 01       		.byte	0x1
 2812 0584 2D03     		.2byte	0x32d
 2813 0586 10050000 		.4byte	0x510
ARM GAS  C:\Users\TERENC~1\AppData\Local\Temp\ccVnttLg.s 			page 76


 2814 058a E8010000 		.4byte	.LLST13
 2815 058e 13       		.uleb128 0x13
 2816 058f 70455000 		.ascii	"pEP\000"
 2817 0593 01       		.byte	0x1
 2818 0594 2E03     		.2byte	0x32e
 2819 0596 A8050000 		.4byte	0x5a8
 2820 059a FD010000 		.4byte	.LLST14
 2821 059e 1A       		.uleb128 0x1a
 2822 059f 20000000 		.4byte	.LVL24
 2823 05a3 D5040000 		.4byte	0x4d5
 2824 05a7 00       		.byte	0
 2825 05a8 09       		.uleb128 0x9
 2826 05a9 04       		.byte	0x4
 2827 05aa AE050000 		.4byte	0x5ae
 2828 05ae 17       		.uleb128 0x17
 2829 05af A5010000 		.4byte	0x1a5
 2830 05b3 1B       		.uleb128 0x1b
 2831 05b4 89050000 		.4byte	.LASF118
 2832 05b8 01       		.byte	0x1
 2833 05b9 F303     		.2byte	0x3f3
 2834 05bb 10050000 		.4byte	0x510
 2835 05bf 00000000 		.4byte	.LFB168
 2836 05c3 18000000 		.4byte	.LFE168-.LFB168
 2837 05c7 01       		.uleb128 0x1
 2838 05c8 9C       		.byte	0x9c
 2839 05c9 19       		.uleb128 0x19
 2840 05ca E1020000 		.4byte	.LASF74
 2841 05ce 01       		.byte	0x1
 2842 05cf 0604     		.2byte	0x406
 2843 05d1 1D060000 		.4byte	0x61d
 2844 05d5 00000000 		.4byte	.LFB169
 2845 05d9 28000000 		.4byte	.LFE169-.LFB169
 2846 05dd 01       		.uleb128 0x1
 2847 05de 9C       		.byte	0x9c
 2848 05df 1D060000 		.4byte	0x61d
 2849 05e3 18       		.uleb128 0x18
 2850 05e4 E9030000 		.4byte	.LASF69
 2851 05e8 01       		.byte	0x1
 2852 05e9 0904     		.2byte	0x409
 2853 05eb 10050000 		.4byte	0x510
 2854 05ef 10020000 		.4byte	.LLST15
 2855 05f3 18       		.uleb128 0x18
 2856 05f4 43030000 		.4byte	.LASF75
 2857 05f8 01       		.byte	0x1
 2858 05f9 0A04     		.2byte	0x40a
 2859 05fb 1D060000 		.4byte	0x61d
 2860 05ff 2E020000 		.4byte	.LLST16
 2861 0603 18       		.uleb128 0x18
 2862 0604 F2050000 		.4byte	.LASF76
 2863 0608 01       		.byte	0x1
 2864 0609 0B04     		.2byte	0x40b
 2865 060b 6B000000 		.4byte	0x6b
 2866 060f 4C020000 		.4byte	.LLST17
 2867 0613 1A       		.uleb128 0x1a
 2868 0614 0E000000 		.4byte	.LVL42
 2869 0618 D5040000 		.4byte	0x4d5
 2870 061c 00       		.byte	0
ARM GAS  C:\Users\TERENC~1\AppData\Local\Temp\ccVnttLg.s 			page 77


 2871 061d 09       		.uleb128 0x9
 2872 061e 04       		.byte	0x4
 2873 061f 23060000 		.4byte	0x623
 2874 0623 17       		.uleb128 0x17
 2875 0624 6B000000 		.4byte	0x6b
 2876 0628 10       		.uleb128 0x10
 2877 0629 F2010000 		.4byte	.LASF77
 2878 062d 01       		.byte	0x1
 2879 062e 3A02     		.2byte	0x23a
 2880 0630 00000000 		.4byte	.LFB165
 2881 0634 C0010000 		.4byte	.LFE165-.LFB165
 2882 0638 01       		.uleb128 0x1
 2883 0639 9C       		.byte	0x9c
 2884 063a D7060000 		.4byte	0x6d7
 2885 063e 11       		.uleb128 0x11
 2886 063f A0040000 		.4byte	.LASF78
 2887 0643 01       		.byte	0x1
 2888 0644 3A02     		.2byte	0x23a
 2889 0646 6B000000 		.4byte	0x6b
 2890 064a 7B020000 		.4byte	.LLST18
 2891 064e 13       		.uleb128 0x13
 2892 064f 657000   		.ascii	"ep\000"
 2893 0652 01       		.byte	0x1
 2894 0653 3C02     		.2byte	0x23c
 2895 0655 6B000000 		.4byte	0x6b
 2896 0659 9C020000 		.4byte	.LLST19
 2897 065d 18       		.uleb128 0x18
 2898 065e B8030000 		.4byte	.LASF71
 2899 0662 01       		.byte	0x1
 2900 0663 3D02     		.2byte	0x23d
 2901 0665 6B000000 		.4byte	0x6b
 2902 0669 DC020000 		.4byte	.LLST20
 2903 066d 13       		.uleb128 0x13
 2904 066e 6900     		.ascii	"i\000"
 2905 0670 01       		.byte	0x1
 2906 0671 3E02     		.2byte	0x23e
 2907 0673 6B000000 		.4byte	0x6b
 2908 0677 11030000 		.4byte	.LLST21
 2909 067b 18       		.uleb128 0x18
 2910 067c 96020000 		.4byte	.LASF65
 2911 0680 01       		.byte	0x1
 2912 0681 3F02     		.2byte	0x23f
 2913 0683 6B000000 		.4byte	0x6b
 2914 0687 7E030000 		.4byte	.LLST22
 2915 068b 18       		.uleb128 0x18
 2916 068c 28030000 		.4byte	.LASF79
 2917 0690 01       		.byte	0x1
 2918 0691 4002     		.2byte	0x240
 2919 0693 1D060000 		.4byte	0x61d
 2920 0697 EE030000 		.4byte	.LLST23
 2921 069b 18       		.uleb128 0x18
 2922 069c E9030000 		.4byte	.LASF69
 2923 06a0 01       		.byte	0x1
 2924 06a1 4602     		.2byte	0x246
 2925 06a3 10050000 		.4byte	0x510
 2926 06a7 02040000 		.4byte	.LLST24
 2927 06ab 13       		.uleb128 0x13
ARM GAS  C:\Users\TERENC~1\AppData\Local\Temp\ccVnttLg.s 			page 78


 2928 06ac 70455000 		.ascii	"pEP\000"
 2929 06b0 01       		.byte	0x1
 2930 06b1 4702     		.2byte	0x247
 2931 06b3 A8050000 		.4byte	0x5a8
 2932 06b7 22040000 		.4byte	.LLST25
 2933 06bb 1A       		.uleb128 0x1a
 2934 06bc 6A000000 		.4byte	.LVL62
 2935 06c0 D5040000 		.4byte	0x4d5
 2936 06c4 1A       		.uleb128 0x1a
 2937 06c5 96010000 		.4byte	.LVL91
 2938 06c9 C9050000 		.4byte	0x5c9
 2939 06cd 1A       		.uleb128 0x1a
 2940 06ce 9E010000 		.4byte	.LVL92
 2941 06d2 7A040000 		.4byte	0x47a
 2942 06d6 00       		.byte	0
 2943 06d7 10       		.uleb128 0x10
 2944 06d8 1A000000 		.4byte	.LASF80
 2945 06dc 01       		.byte	0x1
 2946 06dd 3004     		.2byte	0x430
 2947 06df 00000000 		.4byte	.LFB170
 2948 06e3 54000000 		.4byte	.LFE170-.LFB170
 2949 06e7 01       		.uleb128 0x1
 2950 06e8 9C       		.byte	0x9c
 2951 06e9 FE060000 		.4byte	0x6fe
 2952 06ed 11       		.uleb128 0x11
 2953 06ee 6F010000 		.4byte	.LASF81
 2954 06f2 01       		.byte	0x1
 2955 06f3 3004     		.2byte	0x430
 2956 06f5 6B000000 		.4byte	0x6b
 2957 06f9 56040000 		.4byte	.LLST26
 2958 06fd 00       		.byte	0
 2959 06fe 19       		.uleb128 0x19
 2960 06ff 66020000 		.4byte	.LASF82
 2961 0703 01       		.byte	0x1
 2962 0704 5904     		.2byte	0x459
 2963 0706 6B000000 		.4byte	0x6b
 2964 070a 00000000 		.4byte	.LFB171
 2965 070e 6C000000 		.4byte	.LFE171-.LFB171
 2966 0712 01       		.uleb128 0x1
 2967 0713 9C       		.byte	0x9c
 2968 0714 41070000 		.4byte	0x741
 2969 0718 18       		.uleb128 0x18
 2970 0719 E3050000 		.4byte	.LASF83
 2971 071d 01       		.byte	0x1
 2972 071e 5B04     		.2byte	0x45b
 2973 0720 6B000000 		.4byte	0x6b
 2974 0724 7F040000 		.4byte	.LLST27
 2975 0728 13       		.uleb128 0x13
 2976 0729 657000   		.ascii	"ep\000"
 2977 072c 01       		.byte	0x1
 2978 072d 5C04     		.2byte	0x45c
 2979 072f 83000000 		.4byte	0x83
 2980 0733 B5040000 		.4byte	.LLST28
 2981 0737 1A       		.uleb128 0x1a
 2982 0738 58000000 		.4byte	.LVL103
 2983 073c E40A0000 		.4byte	0xae4
 2984 0740 00       		.byte	0
ARM GAS  C:\Users\TERENC~1\AppData\Local\Temp\ccVnttLg.s 			page 79


 2985 0741 19       		.uleb128 0x19
 2986 0742 C4010000 		.4byte	.LASF84
 2987 0746 01       		.byte	0x1
 2988 0747 8A04     		.2byte	0x48a
 2989 0749 6B000000 		.4byte	0x6b
 2990 074d 00000000 		.4byte	.LFB172
 2991 0751 B0000000 		.4byte	.LFE172-.LFB172
 2992 0755 01       		.uleb128 0x1
 2993 0756 9C       		.byte	0x9c
 2994 0757 84070000 		.4byte	0x784
 2995 075b 18       		.uleb128 0x18
 2996 075c E3050000 		.4byte	.LASF83
 2997 0760 01       		.byte	0x1
 2998 0761 8C04     		.2byte	0x48c
 2999 0763 6B000000 		.4byte	0x6b
 3000 0767 DE040000 		.4byte	.LLST29
 3001 076b 13       		.uleb128 0x13
 3002 076c 657000   		.ascii	"ep\000"
 3003 076f 01       		.byte	0x1
 3004 0770 8D04     		.2byte	0x48d
 3005 0772 83000000 		.4byte	0x83
 3006 0776 14050000 		.4byte	.LLST30
 3007 077a 1A       		.uleb128 0x1a
 3008 077b 9C000000 		.4byte	.LVL115
 3009 077f E40A0000 		.4byte	0xae4
 3010 0783 00       		.byte	0
 3011 0784 19       		.uleb128 0x19
 3012 0785 63030000 		.4byte	.LASF85
 3013 0789 01       		.byte	0x1
 3014 078a CF04     		.2byte	0x4cf
 3015 078c 6B000000 		.4byte	0x6b
 3016 0790 00000000 		.4byte	.LFB173
 3017 0794 50000000 		.4byte	.LFE173-.LFB173
 3018 0798 01       		.uleb128 0x1
 3019 0799 9C       		.byte	0x9c
 3020 079a E8070000 		.4byte	0x7e8
 3021 079e 18       		.uleb128 0x18
 3022 079f E3050000 		.4byte	.LASF83
 3023 07a3 01       		.byte	0x1
 3024 07a4 D104     		.2byte	0x4d1
 3025 07a6 6B000000 		.4byte	0x6b
 3026 07aa 53050000 		.4byte	.LLST31
 3027 07ae 18       		.uleb128 0x18
 3028 07af 55040000 		.4byte	.LASF72
 3029 07b3 01       		.byte	0x1
 3030 07b4 D304     		.2byte	0x4d3
 3031 07b6 6B000000 		.4byte	0x6b
 3032 07ba 8A050000 		.4byte	.LLST32
 3033 07be 18       		.uleb128 0x18
 3034 07bf 99060000 		.4byte	.LASF86
 3035 07c3 01       		.byte	0x1
 3036 07c4 D404     		.2byte	0x4d4
 3037 07c6 6B000000 		.4byte	0x6b
 3038 07ca 9D050000 		.4byte	.LLST33
 3039 07ce 18       		.uleb128 0x18
 3040 07cf E9030000 		.4byte	.LASF69
 3041 07d3 01       		.byte	0x1
ARM GAS  C:\Users\TERENC~1\AppData\Local\Temp\ccVnttLg.s 			page 80


 3042 07d4 D504     		.2byte	0x4d5
 3043 07d6 10050000 		.4byte	0x510
 3044 07da CA050000 		.4byte	.LLST34
 3045 07de 1A       		.uleb128 0x1a
 3046 07df 14000000 		.4byte	.LVL120
 3047 07e3 D5040000 		.4byte	0x4d5
 3048 07e7 00       		.byte	0
 3049 07e8 1C       		.uleb128 0x1c
 3050 07e9 F8060000 		.4byte	.LASF87
 3051 07ed 01       		.byte	0x1
 3052 07ee 54       		.byte	0x54
 3053 07ef 6B000000 		.4byte	0x6b
 3054 07f3 00000000 		.4byte	.LFB161
 3055 07f7 10030000 		.4byte	.LFE161-.LFB161
 3056 07fb 01       		.uleb128 0x1
 3057 07fc 9C       		.byte	0x9c
 3058 07fd 83090000 		.4byte	0x983
 3059 0801 1D       		.uleb128 0x1d
 3060 0802 E3050000 		.4byte	.LASF83
 3061 0806 01       		.byte	0x1
 3062 0807 56       		.byte	0x56
 3063 0808 6B000000 		.4byte	0x6b
 3064 080c E8050000 		.4byte	.LLST35
 3065 0810 1D       		.uleb128 0x1d
 3066 0811 21060000 		.4byte	.LASF88
 3067 0815 01       		.byte	0x1
 3068 0816 57       		.byte	0x57
 3069 0817 83000000 		.4byte	0x83
 3070 081b 8E070000 		.4byte	.LLST36
 3071 081f 1D       		.uleb128 0x1d
 3072 0820 B0040000 		.4byte	.LASF89
 3073 0824 01       		.byte	0x1
 3074 0825 58       		.byte	0x58
 3075 0826 83000000 		.4byte	0x83
 3076 082a A1070000 		.4byte	.LLST37
 3077 082e 1D       		.uleb128 0x1d
 3078 082f 9D020000 		.4byte	.LASF90
 3079 0833 01       		.byte	0x1
 3080 0834 59       		.byte	0x59
 3081 0835 83000000 		.4byte	0x83
 3082 0839 BF070000 		.4byte	.LLST38
 3083 083d 1D       		.uleb128 0x1d
 3084 083e C8040000 		.4byte	.LASF91
 3085 0842 01       		.byte	0x1
 3086 0843 5C       		.byte	0x5c
 3087 0844 09020000 		.4byte	0x209
 3088 0848 40080000 		.4byte	.LLST39
 3089 084c 1D       		.uleb128 0x1d
 3090 084d 4B060000 		.4byte	.LASF92
 3091 0851 01       		.byte	0x1
 3092 0852 5E       		.byte	0x5e
 3093 0853 6B000000 		.4byte	0x6b
 3094 0857 A4080000 		.4byte	.LLST40
 3095 085b 1D       		.uleb128 0x1d
 3096 085c C8030000 		.4byte	.LASF93
 3097 0860 01       		.byte	0x1
 3098 0861 5F       		.byte	0x5f
ARM GAS  C:\Users\TERENC~1\AppData\Local\Temp\ccVnttLg.s 			page 81


 3099 0862 6B000000 		.4byte	0x6b
 3100 0866 CD080000 		.4byte	.LLST41
 3101 086a 1E       		.uleb128 0x1e
 3102 086b 92010000 		.4byte	.LASF94
 3103 086f 01       		.byte	0x1
 3104 0870 63       		.byte	0x63
 3105 0871 93090000 		.4byte	0x993
 3106 0875 05       		.uleb128 0x5
 3107 0876 03       		.byte	0x3
 3108 0877 00000000 		.4byte	USBFS_tBuffer.6333
 3109 087b 1D       		.uleb128 0x1d
 3110 087c E9030000 		.4byte	.LASF69
 3111 0880 01       		.byte	0x1
 3112 0881 64       		.byte	0x64
 3113 0882 10050000 		.4byte	0x510
 3114 0886 E0080000 		.4byte	.LLST42
 3115 088a 1A       		.uleb128 0x1a
 3116 088b 3C000000 		.4byte	.LVL131
 3117 088f B3050000 		.4byte	0x5b3
 3118 0893 1A       		.uleb128 0x1a
 3119 0894 4A000000 		.4byte	.LVL132
 3120 0898 EF0A0000 		.4byte	0xaef
 3121 089c 1A       		.uleb128 0x1a
 3122 089d 5E000000 		.4byte	.LVL134
 3123 08a1 D5040000 		.4byte	0x4d5
 3124 08a5 1A       		.uleb128 0x1a
 3125 08a6 7C000000 		.4byte	.LVL135
 3126 08aa EF0A0000 		.4byte	0xaef
 3127 08ae 1F       		.uleb128 0x1f
 3128 08af C0000000 		.4byte	.LVL145
 3129 08b3 D9030000 		.4byte	0x3d9
 3130 08b7 C2080000 		.4byte	0x8c2
 3131 08bb 16       		.uleb128 0x16
 3132 08bc 01       		.uleb128 0x1
 3133 08bd 50       		.byte	0x50
 3134 08be 02       		.uleb128 0x2
 3135 08bf 74       		.byte	0x74
 3136 08c0 00       		.sleb128 0
 3137 08c1 00       		.byte	0
 3138 08c2 1A       		.uleb128 0x1a
 3139 08c3 D6000000 		.4byte	.LVL147
 3140 08c7 EF0A0000 		.4byte	0xaef
 3141 08cb 1A       		.uleb128 0x1a
 3142 08cc DC000000 		.4byte	.LVL149
 3143 08d0 FA0A0000 		.4byte	0xafa
 3144 08d4 1A       		.uleb128 0x1a
 3145 08d5 12010000 		.4byte	.LVL152
 3146 08d9 EF0A0000 		.4byte	0xaef
 3147 08dd 1A       		.uleb128 0x1a
 3148 08de 2E010000 		.4byte	.LVL154
 3149 08e2 EF0A0000 		.4byte	0xaef
 3150 08e6 1A       		.uleb128 0x1a
 3151 08e7 3E010000 		.4byte	.LVL157
 3152 08eb EF0A0000 		.4byte	0xaef
 3153 08ef 1A       		.uleb128 0x1a
 3154 08f0 54010000 		.4byte	.LVL160
 3155 08f4 EF0A0000 		.4byte	0xaef
ARM GAS  C:\Users\TERENC~1\AppData\Local\Temp\ccVnttLg.s 			page 82


 3156 08f8 1A       		.uleb128 0x1a
 3157 08f9 76010000 		.4byte	.LVL163
 3158 08fd E40A0000 		.4byte	0xae4
 3159 0901 1F       		.uleb128 0x1f
 3160 0902 88010000 		.4byte	.LVL167
 3161 0906 D5040000 		.4byte	0x4d5
 3162 090a 15090000 		.4byte	0x915
 3163 090e 16       		.uleb128 0x16
 3164 090f 01       		.uleb128 0x1
 3165 0910 50       		.byte	0x50
 3166 0911 02       		.uleb128 0x2
 3167 0912 74       		.byte	0x74
 3168 0913 7F       		.sleb128 -1
 3169 0914 00       		.byte	0
 3170 0915 1F       		.uleb128 0x1f
 3171 0916 B2010000 		.4byte	.LVL170
 3172 091a 28060000 		.4byte	0x628
 3173 091e 28090000 		.4byte	0x928
 3174 0922 16       		.uleb128 0x16
 3175 0923 01       		.uleb128 0x1
 3176 0924 50       		.byte	0x50
 3177 0925 01       		.uleb128 0x1
 3178 0926 31       		.byte	0x31
 3179 0927 00       		.byte	0
 3180 0928 1A       		.uleb128 0x1a
 3181 0929 B6010000 		.4byte	.LVL171
 3182 092d E40A0000 		.4byte	0xae4
 3183 0931 1A       		.uleb128 0x1a
 3184 0932 BC010000 		.4byte	.LVL173
 3185 0936 84070000 		.4byte	0x784
 3186 093a 1A       		.uleb128 0x1a
 3187 093b E6010000 		.4byte	.LVL175
 3188 093f 1B050000 		.4byte	0x51b
 3189 0943 1A       		.uleb128 0x1a
 3190 0944 EA010000 		.4byte	.LVL176
 3191 0948 E40A0000 		.4byte	0xae4
 3192 094c 1A       		.uleb128 0x1a
 3193 094d 08020000 		.4byte	.LVL179
 3194 0951 41070000 		.4byte	0x741
 3195 0955 1A       		.uleb128 0x1a
 3196 0956 20020000 		.4byte	.LVL181
 3197 095a E40A0000 		.4byte	0xae4
 3198 095e 1A       		.uleb128 0x1a
 3199 095f 3C020000 		.4byte	.LVL183
 3200 0963 E40A0000 		.4byte	0xae4
 3201 0967 1A       		.uleb128 0x1a
 3202 0968 5A020000 		.4byte	.LVL186
 3203 096c FE060000 		.4byte	0x6fe
 3204 0970 1A       		.uleb128 0x1a
 3205 0971 74020000 		.4byte	.LVL188
 3206 0975 E40A0000 		.4byte	0xae4
 3207 0979 1A       		.uleb128 0x1a
 3208 097a 90020000 		.4byte	.LVL190
 3209 097e E40A0000 		.4byte	0xae4
 3210 0982 00       		.byte	0
 3211 0983 0C       		.uleb128 0xc
 3212 0984 B0000000 		.4byte	0xb0
ARM GAS  C:\Users\TERENC~1\AppData\Local\Temp\ccVnttLg.s 			page 83


 3213 0988 93090000 		.4byte	0x993
 3214 098c 0D       		.uleb128 0xd
 3215 098d CD000000 		.4byte	0xcd
 3216 0991 01       		.byte	0x1
 3217 0992 00       		.byte	0
 3218 0993 05       		.uleb128 0x5
 3219 0994 83090000 		.4byte	0x983
 3220 0998 20       		.uleb128 0x20
 3221 0999 71050000 		.4byte	.LASF95
 3222 099d 03       		.byte	0x3
 3223 099e DA02     		.2byte	0x2da
 3224 09a0 B0000000 		.4byte	0xb0
 3225 09a4 20       		.uleb128 0x20
 3226 09a5 01030000 		.4byte	.LASF96
 3227 09a9 03       		.byte	0x3
 3228 09aa DC02     		.2byte	0x2dc
 3229 09ac B0000000 		.4byte	0xb0
 3230 09b0 20       		.uleb128 0x20
 3231 09b1 82030000 		.4byte	.LASF97
 3232 09b5 03       		.byte	0x3
 3233 09b6 DD02     		.2byte	0x2dd
 3234 09b8 B0000000 		.4byte	0xb0
 3235 09bc 20       		.uleb128 0x20
 3236 09bd 31060000 		.4byte	.LASF98
 3237 09c1 03       		.byte	0x3
 3238 09c2 DE02     		.2byte	0x2de
 3239 09c4 B0000000 		.4byte	0xb0
 3240 09c8 0C       		.uleb128 0xc
 3241 09c9 23060000 		.4byte	0x623
 3242 09cd D8090000 		.4byte	0x9d8
 3243 09d1 0D       		.uleb128 0xd
 3244 09d2 CD000000 		.4byte	0xcd
 3245 09d6 11       		.byte	0x11
 3246 09d7 00       		.byte	0
 3247 09d8 21       		.uleb128 0x21
 3248 09d9 62040000 		.4byte	.LASF99
 3249 09dd 04       		.byte	0x4
 3250 09de 61       		.byte	0x61
 3251 09df E3090000 		.4byte	0x9e3
 3252 09e3 17       		.uleb128 0x17
 3253 09e4 C8090000 		.4byte	0x9c8
 3254 09e8 0C       		.uleb128 0xc
 3255 09e9 16050000 		.4byte	0x516
 3256 09ed F8090000 		.4byte	0x9f8
 3257 09f1 0D       		.uleb128 0xd
 3258 09f2 CD000000 		.4byte	0xcd
 3259 09f6 00       		.byte	0
 3260 09f7 00       		.byte	0
 3261 09f8 21       		.uleb128 0x21
 3262 09f9 FC030000 		.4byte	.LASF100
 3263 09fd 04       		.byte	0x4
 3264 09fe 68       		.byte	0x68
 3265 09ff 030A0000 		.4byte	0xa03
 3266 0a03 17       		.uleb128 0x17
 3267 0a04 E8090000 		.4byte	0x9e8
 3268 0a08 0C       		.uleb128 0xc
 3269 0a09 23060000 		.4byte	0x623
ARM GAS  C:\Users\TERENC~1\AppData\Local\Temp\ccVnttLg.s 			page 84


 3270 0a0d 180A0000 		.4byte	0xa18
 3271 0a11 0D       		.uleb128 0xd
 3272 0a12 CD000000 		.4byte	0xcd
 3273 0a16 E2       		.byte	0xe2
 3274 0a17 00       		.byte	0
 3275 0a18 21       		.uleb128 0x21
 3276 0a19 7C040000 		.4byte	.LASF101
 3277 0a1d 04       		.byte	0x4
 3278 0a1e 6A       		.byte	0x6a
 3279 0a1f 230A0000 		.4byte	0xa23
 3280 0a23 17       		.uleb128 0x17
 3281 0a24 080A0000 		.4byte	0xa08
 3282 0a28 0C       		.uleb128 0xc
 3283 0a29 6B000000 		.4byte	0x6b
 3284 0a2d 380A0000 		.4byte	0xa38
 3285 0a31 0D       		.uleb128 0xd
 3286 0a32 CD000000 		.4byte	0xcd
 3287 0a36 21       		.byte	0x21
 3288 0a37 00       		.byte	0
 3289 0a38 21       		.uleb128 0x21
 3290 0a39 50060000 		.4byte	.LASF102
 3291 0a3d 04       		.byte	0x4
 3292 0a3e 76       		.byte	0x76
 3293 0a3f 280A0000 		.4byte	0xa28
 3294 0a43 21       		.uleb128 0x21
 3295 0a44 DC010000 		.4byte	.LASF103
 3296 0a48 04       		.byte	0x4
 3297 0a49 79       		.byte	0x79
 3298 0a4a B0000000 		.4byte	0xb0
 3299 0a4e 0C       		.uleb128 0xc
 3300 0a4f B0000000 		.4byte	0xb0
 3301 0a53 5E0A0000 		.4byte	0xa5e
 3302 0a57 0D       		.uleb128 0xd
 3303 0a58 CD000000 		.4byte	0xcd
 3304 0a5c 03       		.byte	0x3
 3305 0a5d 00       		.byte	0
 3306 0a5e 21       		.uleb128 0x21
 3307 0a5f 25050000 		.4byte	.LASF104
 3308 0a63 04       		.byte	0x4
 3309 0a64 7A       		.byte	0x7a
 3310 0a65 690A0000 		.4byte	0xa69
 3311 0a69 05       		.uleb128 0x5
 3312 0a6a 4E0A0000 		.4byte	0xa4e
 3313 0a6e 21       		.uleb128 0x21
 3314 0a6f DD060000 		.4byte	.LASF105
 3315 0a73 04       		.byte	0x4
 3316 0a74 7B       		.byte	0x7b
 3317 0a75 790A0000 		.4byte	0xa79
 3318 0a79 05       		.uleb128 0x5
 3319 0a7a 4E0A0000 		.4byte	0xa4e
 3320 0a7e 21       		.uleb128 0x21
 3321 0a7f B0010000 		.4byte	.LASF106
 3322 0a83 04       		.byte	0x4
 3323 0a84 7C       		.byte	0x7c
 3324 0a85 B0000000 		.4byte	0xb0
 3325 0a89 21       		.uleb128 0x21
 3326 0a8a BF060000 		.4byte	.LASF107
ARM GAS  C:\Users\TERENC~1\AppData\Local\Temp\ccVnttLg.s 			page 85


 3327 0a8e 04       		.byte	0x4
 3328 0a8f 7D       		.byte	0x7d
 3329 0a90 940A0000 		.4byte	0xa94
 3330 0a94 05       		.uleb128 0x5
 3331 0a95 4E0A0000 		.4byte	0xa4e
 3332 0a99 21       		.uleb128 0x21
 3333 0a9a A3030000 		.4byte	.LASF108
 3334 0a9e 04       		.byte	0x4
 3335 0a9f 7E       		.byte	0x7e
 3336 0aa0 1D060000 		.4byte	0x61d
 3337 0aa4 0C       		.uleb128 0xc
 3338 0aa5 B40A0000 		.4byte	0xab4
 3339 0aa9 B40A0000 		.4byte	0xab4
 3340 0aad 0D       		.uleb128 0xd
 3341 0aae CD000000 		.4byte	0xcd
 3342 0ab2 08       		.byte	0x8
 3343 0ab3 00       		.byte	0
 3344 0ab4 05       		.uleb128 0x5
 3345 0ab5 49010000 		.4byte	0x149
 3346 0ab9 21       		.uleb128 0x21
 3347 0aba BF040000 		.4byte	.LASF109
 3348 0abe 04       		.byte	0x4
 3349 0abf 80       		.byte	0x80
 3350 0ac0 C40A0000 		.4byte	0xac4
 3351 0ac4 05       		.uleb128 0x5
 3352 0ac5 A40A0000 		.4byte	0xaa4
 3353 0ac9 21       		.uleb128 0x21
 3354 0aca 2C000000 		.4byte	.LASF110
 3355 0ace 04       		.byte	0x4
 3356 0acf 81       		.byte	0x81
 3357 0ad0 D40A0000 		.4byte	0xad4
 3358 0ad4 05       		.uleb128 0x5
 3359 0ad5 15020000 		.4byte	0x215
 3360 0ad9 22       		.uleb128 0x22
 3361 0ada B4020000 		.4byte	.LASF111
 3362 0ade B4020000 		.4byte	.LASF111
 3363 0ae2 05       		.byte	0x5
 3364 0ae3 E9       		.byte	0xe9
 3365 0ae4 22       		.uleb128 0x22
 3366 0ae5 51050000 		.4byte	.LASF112
 3367 0ae9 51050000 		.4byte	.LASF112
 3368 0aed 04       		.byte	0x4
 3369 0aee BA       		.byte	0xba
 3370 0aef 22       		.uleb128 0x22
 3371 0af0 3C000000 		.4byte	.LASF113
 3372 0af4 3C000000 		.4byte	.LASF113
 3373 0af8 04       		.byte	0x4
 3374 0af9 B0       		.byte	0xb0
 3375 0afa 23       		.uleb128 0x23
 3376 0afb 7C060000 		.4byte	.LASF114
 3377 0aff 7C060000 		.4byte	.LASF114
 3378 0b03 04       		.byte	0x4
 3379 0b04 5601     		.2byte	0x156
 3380 0b06 00       		.byte	0
 3381              		.section	.debug_abbrev,"",%progbits
 3382              	.Ldebug_abbrev0:
 3383 0000 01       		.uleb128 0x1
ARM GAS  C:\Users\TERENC~1\AppData\Local\Temp\ccVnttLg.s 			page 86


 3384 0001 11       		.uleb128 0x11
 3385 0002 01       		.byte	0x1
 3386 0003 25       		.uleb128 0x25
 3387 0004 0E       		.uleb128 0xe
 3388 0005 13       		.uleb128 0x13
 3389 0006 0B       		.uleb128 0xb
 3390 0007 03       		.uleb128 0x3
 3391 0008 0E       		.uleb128 0xe
 3392 0009 1B       		.uleb128 0x1b
 3393 000a 0E       		.uleb128 0xe
 3394 000b 55       		.uleb128 0x55
 3395 000c 17       		.uleb128 0x17
 3396 000d 11       		.uleb128 0x11
 3397 000e 01       		.uleb128 0x1
 3398 000f 10       		.uleb128 0x10
 3399 0010 17       		.uleb128 0x17
 3400 0011 00       		.byte	0
 3401 0012 00       		.byte	0
 3402 0013 02       		.uleb128 0x2
 3403 0014 24       		.uleb128 0x24
 3404 0015 00       		.byte	0
 3405 0016 0B       		.uleb128 0xb
 3406 0017 0B       		.uleb128 0xb
 3407 0018 3E       		.uleb128 0x3e
 3408 0019 0B       		.uleb128 0xb
 3409 001a 03       		.uleb128 0x3
 3410 001b 0E       		.uleb128 0xe
 3411 001c 00       		.byte	0
 3412 001d 00       		.byte	0
 3413 001e 03       		.uleb128 0x3
 3414 001f 24       		.uleb128 0x24
 3415 0020 00       		.byte	0
 3416 0021 0B       		.uleb128 0xb
 3417 0022 0B       		.uleb128 0xb
 3418 0023 3E       		.uleb128 0x3e
 3419 0024 0B       		.uleb128 0xb
 3420 0025 03       		.uleb128 0x3
 3421 0026 08       		.uleb128 0x8
 3422 0027 00       		.byte	0
 3423 0028 00       		.byte	0
 3424 0029 04       		.uleb128 0x4
 3425 002a 16       		.uleb128 0x16
 3426 002b 00       		.byte	0
 3427 002c 03       		.uleb128 0x3
 3428 002d 0E       		.uleb128 0xe
 3429 002e 3A       		.uleb128 0x3a
 3430 002f 0B       		.uleb128 0xb
 3431 0030 3B       		.uleb128 0x3b
 3432 0031 05       		.uleb128 0x5
 3433 0032 49       		.uleb128 0x49
 3434 0033 13       		.uleb128 0x13
 3435 0034 00       		.byte	0
 3436 0035 00       		.byte	0
 3437 0036 05       		.uleb128 0x5
 3438 0037 35       		.uleb128 0x35
 3439 0038 00       		.byte	0
 3440 0039 49       		.uleb128 0x49
ARM GAS  C:\Users\TERENC~1\AppData\Local\Temp\ccVnttLg.s 			page 87


 3441 003a 13       		.uleb128 0x13
 3442 003b 00       		.byte	0
 3443 003c 00       		.byte	0
 3444 003d 06       		.uleb128 0x6
 3445 003e 13       		.uleb128 0x13
 3446 003f 01       		.byte	0x1
 3447 0040 0B       		.uleb128 0xb
 3448 0041 0B       		.uleb128 0xb
 3449 0042 3A       		.uleb128 0x3a
 3450 0043 0B       		.uleb128 0xb
 3451 0044 3B       		.uleb128 0x3b
 3452 0045 0B       		.uleb128 0xb
 3453 0046 01       		.uleb128 0x1
 3454 0047 13       		.uleb128 0x13
 3455 0048 00       		.byte	0
 3456 0049 00       		.byte	0
 3457 004a 07       		.uleb128 0x7
 3458 004b 0D       		.uleb128 0xd
 3459 004c 00       		.byte	0
 3460 004d 03       		.uleb128 0x3
 3461 004e 0E       		.uleb128 0xe
 3462 004f 3A       		.uleb128 0x3a
 3463 0050 0B       		.uleb128 0xb
 3464 0051 3B       		.uleb128 0x3b
 3465 0052 0B       		.uleb128 0xb
 3466 0053 49       		.uleb128 0x49
 3467 0054 13       		.uleb128 0x13
 3468 0055 38       		.uleb128 0x38
 3469 0056 0B       		.uleb128 0xb
 3470 0057 00       		.byte	0
 3471 0058 00       		.byte	0
 3472 0059 08       		.uleb128 0x8
 3473 005a 16       		.uleb128 0x16
 3474 005b 00       		.byte	0
 3475 005c 03       		.uleb128 0x3
 3476 005d 0E       		.uleb128 0xe
 3477 005e 3A       		.uleb128 0x3a
 3478 005f 0B       		.uleb128 0xb
 3479 0060 3B       		.uleb128 0x3b
 3480 0061 0B       		.uleb128 0xb
 3481 0062 49       		.uleb128 0x49
 3482 0063 13       		.uleb128 0x13
 3483 0064 00       		.byte	0
 3484 0065 00       		.byte	0
 3485 0066 09       		.uleb128 0x9
 3486 0067 0F       		.uleb128 0xf
 3487 0068 00       		.byte	0
 3488 0069 0B       		.uleb128 0xb
 3489 006a 0B       		.uleb128 0xb
 3490 006b 49       		.uleb128 0x49
 3491 006c 13       		.uleb128 0x13
 3492 006d 00       		.byte	0
 3493 006e 00       		.byte	0
 3494 006f 0A       		.uleb128 0xa
 3495 0070 0D       		.uleb128 0xd
 3496 0071 00       		.byte	0
 3497 0072 03       		.uleb128 0x3
ARM GAS  C:\Users\TERENC~1\AppData\Local\Temp\ccVnttLg.s 			page 88


 3498 0073 08       		.uleb128 0x8
 3499 0074 3A       		.uleb128 0x3a
 3500 0075 0B       		.uleb128 0xb
 3501 0076 3B       		.uleb128 0x3b
 3502 0077 0B       		.uleb128 0xb
 3503 0078 49       		.uleb128 0x49
 3504 0079 13       		.uleb128 0x13
 3505 007a 38       		.uleb128 0x38
 3506 007b 0B       		.uleb128 0xb
 3507 007c 00       		.byte	0
 3508 007d 00       		.byte	0
 3509 007e 0B       		.uleb128 0xb
 3510 007f 26       		.uleb128 0x26
 3511 0080 00       		.byte	0
 3512 0081 00       		.byte	0
 3513 0082 00       		.byte	0
 3514 0083 0C       		.uleb128 0xc
 3515 0084 01       		.uleb128 0x1
 3516 0085 01       		.byte	0x1
 3517 0086 49       		.uleb128 0x49
 3518 0087 13       		.uleb128 0x13
 3519 0088 01       		.uleb128 0x1
 3520 0089 13       		.uleb128 0x13
 3521 008a 00       		.byte	0
 3522 008b 00       		.byte	0
 3523 008c 0D       		.uleb128 0xd
 3524 008d 21       		.uleb128 0x21
 3525 008e 00       		.byte	0
 3526 008f 49       		.uleb128 0x49
 3527 0090 13       		.uleb128 0x13
 3528 0091 2F       		.uleb128 0x2f
 3529 0092 0B       		.uleb128 0xb
 3530 0093 00       		.byte	0
 3531 0094 00       		.byte	0
 3532 0095 0E       		.uleb128 0xe
 3533 0096 13       		.uleb128 0x13
 3534 0097 01       		.byte	0x1
 3535 0098 0B       		.uleb128 0xb
 3536 0099 05       		.uleb128 0x5
 3537 009a 3A       		.uleb128 0x3a
 3538 009b 0B       		.uleb128 0xb
 3539 009c 3B       		.uleb128 0x3b
 3540 009d 05       		.uleb128 0x5
 3541 009e 01       		.uleb128 0x1
 3542 009f 13       		.uleb128 0x13
 3543 00a0 00       		.byte	0
 3544 00a1 00       		.byte	0
 3545 00a2 0F       		.uleb128 0xf
 3546 00a3 0D       		.uleb128 0xd
 3547 00a4 00       		.byte	0
 3548 00a5 03       		.uleb128 0x3
 3549 00a6 0E       		.uleb128 0xe
 3550 00a7 3A       		.uleb128 0x3a
 3551 00a8 0B       		.uleb128 0xb
 3552 00a9 3B       		.uleb128 0x3b
 3553 00aa 05       		.uleb128 0x5
 3554 00ab 49       		.uleb128 0x49
ARM GAS  C:\Users\TERENC~1\AppData\Local\Temp\ccVnttLg.s 			page 89


 3555 00ac 13       		.uleb128 0x13
 3556 00ad 38       		.uleb128 0x38
 3557 00ae 0B       		.uleb128 0xb
 3558 00af 00       		.byte	0
 3559 00b0 00       		.byte	0
 3560 00b1 10       		.uleb128 0x10
 3561 00b2 2E       		.uleb128 0x2e
 3562 00b3 01       		.byte	0x1
 3563 00b4 3F       		.uleb128 0x3f
 3564 00b5 19       		.uleb128 0x19
 3565 00b6 03       		.uleb128 0x3
 3566 00b7 0E       		.uleb128 0xe
 3567 00b8 3A       		.uleb128 0x3a
 3568 00b9 0B       		.uleb128 0xb
 3569 00ba 3B       		.uleb128 0x3b
 3570 00bb 05       		.uleb128 0x5
 3571 00bc 27       		.uleb128 0x27
 3572 00bd 19       		.uleb128 0x19
 3573 00be 11       		.uleb128 0x11
 3574 00bf 01       		.uleb128 0x1
 3575 00c0 12       		.uleb128 0x12
 3576 00c1 06       		.uleb128 0x6
 3577 00c2 40       		.uleb128 0x40
 3578 00c3 18       		.uleb128 0x18
 3579 00c4 9742     		.uleb128 0x2117
 3580 00c6 19       		.uleb128 0x19
 3581 00c7 01       		.uleb128 0x1
 3582 00c8 13       		.uleb128 0x13
 3583 00c9 00       		.byte	0
 3584 00ca 00       		.byte	0
 3585 00cb 11       		.uleb128 0x11
 3586 00cc 05       		.uleb128 0x5
 3587 00cd 00       		.byte	0
 3588 00ce 03       		.uleb128 0x3
 3589 00cf 0E       		.uleb128 0xe
 3590 00d0 3A       		.uleb128 0x3a
 3591 00d1 0B       		.uleb128 0xb
 3592 00d2 3B       		.uleb128 0x3b
 3593 00d3 05       		.uleb128 0x5
 3594 00d4 49       		.uleb128 0x49
 3595 00d5 13       		.uleb128 0x13
 3596 00d6 02       		.uleb128 0x2
 3597 00d7 17       		.uleb128 0x17
 3598 00d8 00       		.byte	0
 3599 00d9 00       		.byte	0
 3600 00da 12       		.uleb128 0x12
 3601 00db 34       		.uleb128 0x34
 3602 00dc 00       		.byte	0
 3603 00dd 03       		.uleb128 0x3
 3604 00de 08       		.uleb128 0x8
 3605 00df 3A       		.uleb128 0x3a
 3606 00e0 0B       		.uleb128 0xb
 3607 00e1 3B       		.uleb128 0x3b
 3608 00e2 05       		.uleb128 0x5
 3609 00e3 49       		.uleb128 0x49
 3610 00e4 13       		.uleb128 0x13
 3611 00e5 02       		.uleb128 0x2
ARM GAS  C:\Users\TERENC~1\AppData\Local\Temp\ccVnttLg.s 			page 90


 3612 00e6 18       		.uleb128 0x18
 3613 00e7 00       		.byte	0
 3614 00e8 00       		.byte	0
 3615 00e9 13       		.uleb128 0x13
 3616 00ea 34       		.uleb128 0x34
 3617 00eb 00       		.byte	0
 3618 00ec 03       		.uleb128 0x3
 3619 00ed 08       		.uleb128 0x8
 3620 00ee 3A       		.uleb128 0x3a
 3621 00ef 0B       		.uleb128 0xb
 3622 00f0 3B       		.uleb128 0x3b
 3623 00f1 05       		.uleb128 0x5
 3624 00f2 49       		.uleb128 0x49
 3625 00f3 13       		.uleb128 0x13
 3626 00f4 02       		.uleb128 0x2
 3627 00f5 17       		.uleb128 0x17
 3628 00f6 00       		.byte	0
 3629 00f7 00       		.byte	0
 3630 00f8 14       		.uleb128 0x14
 3631 00f9 34       		.uleb128 0x34
 3632 00fa 00       		.byte	0
 3633 00fb 03       		.uleb128 0x3
 3634 00fc 0E       		.uleb128 0xe
 3635 00fd 3A       		.uleb128 0x3a
 3636 00fe 0B       		.uleb128 0xb
 3637 00ff 3B       		.uleb128 0x3b
 3638 0100 05       		.uleb128 0x5
 3639 0101 49       		.uleb128 0x49
 3640 0102 13       		.uleb128 0x13
 3641 0103 02       		.uleb128 0x2
 3642 0104 18       		.uleb128 0x18
 3643 0105 00       		.byte	0
 3644 0106 00       		.byte	0
 3645 0107 15       		.uleb128 0x15
 3646 0108 898201   		.uleb128 0x4109
 3647 010b 01       		.byte	0x1
 3648 010c 11       		.uleb128 0x11
 3649 010d 01       		.uleb128 0x1
 3650 010e 31       		.uleb128 0x31
 3651 010f 13       		.uleb128 0x13
 3652 0110 00       		.byte	0
 3653 0111 00       		.byte	0
 3654 0112 16       		.uleb128 0x16
 3655 0113 8A8201   		.uleb128 0x410a
 3656 0116 00       		.byte	0
 3657 0117 02       		.uleb128 0x2
 3658 0118 18       		.uleb128 0x18
 3659 0119 9142     		.uleb128 0x2111
 3660 011b 18       		.uleb128 0x18
 3661 011c 00       		.byte	0
 3662 011d 00       		.byte	0
 3663 011e 17       		.uleb128 0x17
 3664 011f 26       		.uleb128 0x26
 3665 0120 00       		.byte	0
 3666 0121 49       		.uleb128 0x49
 3667 0122 13       		.uleb128 0x13
 3668 0123 00       		.byte	0
ARM GAS  C:\Users\TERENC~1\AppData\Local\Temp\ccVnttLg.s 			page 91


 3669 0124 00       		.byte	0
 3670 0125 18       		.uleb128 0x18
 3671 0126 34       		.uleb128 0x34
 3672 0127 00       		.byte	0
 3673 0128 03       		.uleb128 0x3
 3674 0129 0E       		.uleb128 0xe
 3675 012a 3A       		.uleb128 0x3a
 3676 012b 0B       		.uleb128 0xb
 3677 012c 3B       		.uleb128 0x3b
 3678 012d 05       		.uleb128 0x5
 3679 012e 49       		.uleb128 0x49
 3680 012f 13       		.uleb128 0x13
 3681 0130 02       		.uleb128 0x2
 3682 0131 17       		.uleb128 0x17
 3683 0132 00       		.byte	0
 3684 0133 00       		.byte	0
 3685 0134 19       		.uleb128 0x19
 3686 0135 2E       		.uleb128 0x2e
 3687 0136 01       		.byte	0x1
 3688 0137 3F       		.uleb128 0x3f
 3689 0138 19       		.uleb128 0x19
 3690 0139 03       		.uleb128 0x3
 3691 013a 0E       		.uleb128 0xe
 3692 013b 3A       		.uleb128 0x3a
 3693 013c 0B       		.uleb128 0xb
 3694 013d 3B       		.uleb128 0x3b
 3695 013e 05       		.uleb128 0x5
 3696 013f 27       		.uleb128 0x27
 3697 0140 19       		.uleb128 0x19
 3698 0141 49       		.uleb128 0x49
 3699 0142 13       		.uleb128 0x13
 3700 0143 11       		.uleb128 0x11
 3701 0144 01       		.uleb128 0x1
 3702 0145 12       		.uleb128 0x12
 3703 0146 06       		.uleb128 0x6
 3704 0147 40       		.uleb128 0x40
 3705 0148 18       		.uleb128 0x18
 3706 0149 9742     		.uleb128 0x2117
 3707 014b 19       		.uleb128 0x19
 3708 014c 01       		.uleb128 0x1
 3709 014d 13       		.uleb128 0x13
 3710 014e 00       		.byte	0
 3711 014f 00       		.byte	0
 3712 0150 1A       		.uleb128 0x1a
 3713 0151 898201   		.uleb128 0x4109
 3714 0154 00       		.byte	0
 3715 0155 11       		.uleb128 0x11
 3716 0156 01       		.uleb128 0x1
 3717 0157 31       		.uleb128 0x31
 3718 0158 13       		.uleb128 0x13
 3719 0159 00       		.byte	0
 3720 015a 00       		.byte	0
 3721 015b 1B       		.uleb128 0x1b
 3722 015c 2E       		.uleb128 0x2e
 3723 015d 00       		.byte	0
 3724 015e 3F       		.uleb128 0x3f
 3725 015f 19       		.uleb128 0x19
ARM GAS  C:\Users\TERENC~1\AppData\Local\Temp\ccVnttLg.s 			page 92


 3726 0160 03       		.uleb128 0x3
 3727 0161 0E       		.uleb128 0xe
 3728 0162 3A       		.uleb128 0x3a
 3729 0163 0B       		.uleb128 0xb
 3730 0164 3B       		.uleb128 0x3b
 3731 0165 05       		.uleb128 0x5
 3732 0166 27       		.uleb128 0x27
 3733 0167 19       		.uleb128 0x19
 3734 0168 49       		.uleb128 0x49
 3735 0169 13       		.uleb128 0x13
 3736 016a 11       		.uleb128 0x11
 3737 016b 01       		.uleb128 0x1
 3738 016c 12       		.uleb128 0x12
 3739 016d 06       		.uleb128 0x6
 3740 016e 40       		.uleb128 0x40
 3741 016f 18       		.uleb128 0x18
 3742 0170 9742     		.uleb128 0x2117
 3743 0172 19       		.uleb128 0x19
 3744 0173 00       		.byte	0
 3745 0174 00       		.byte	0
 3746 0175 1C       		.uleb128 0x1c
 3747 0176 2E       		.uleb128 0x2e
 3748 0177 01       		.byte	0x1
 3749 0178 3F       		.uleb128 0x3f
 3750 0179 19       		.uleb128 0x19
 3751 017a 03       		.uleb128 0x3
 3752 017b 0E       		.uleb128 0xe
 3753 017c 3A       		.uleb128 0x3a
 3754 017d 0B       		.uleb128 0xb
 3755 017e 3B       		.uleb128 0x3b
 3756 017f 0B       		.uleb128 0xb
 3757 0180 27       		.uleb128 0x27
 3758 0181 19       		.uleb128 0x19
 3759 0182 49       		.uleb128 0x49
 3760 0183 13       		.uleb128 0x13
 3761 0184 11       		.uleb128 0x11
 3762 0185 01       		.uleb128 0x1
 3763 0186 12       		.uleb128 0x12
 3764 0187 06       		.uleb128 0x6
 3765 0188 40       		.uleb128 0x40
 3766 0189 18       		.uleb128 0x18
 3767 018a 9742     		.uleb128 0x2117
 3768 018c 19       		.uleb128 0x19
 3769 018d 01       		.uleb128 0x1
 3770 018e 13       		.uleb128 0x13
 3771 018f 00       		.byte	0
 3772 0190 00       		.byte	0
 3773 0191 1D       		.uleb128 0x1d
 3774 0192 34       		.uleb128 0x34
 3775 0193 00       		.byte	0
 3776 0194 03       		.uleb128 0x3
 3777 0195 0E       		.uleb128 0xe
 3778 0196 3A       		.uleb128 0x3a
 3779 0197 0B       		.uleb128 0xb
 3780 0198 3B       		.uleb128 0x3b
 3781 0199 0B       		.uleb128 0xb
 3782 019a 49       		.uleb128 0x49
ARM GAS  C:\Users\TERENC~1\AppData\Local\Temp\ccVnttLg.s 			page 93


 3783 019b 13       		.uleb128 0x13
 3784 019c 02       		.uleb128 0x2
 3785 019d 17       		.uleb128 0x17
 3786 019e 00       		.byte	0
 3787 019f 00       		.byte	0
 3788 01a0 1E       		.uleb128 0x1e
 3789 01a1 34       		.uleb128 0x34
 3790 01a2 00       		.byte	0
 3791 01a3 03       		.uleb128 0x3
 3792 01a4 0E       		.uleb128 0xe
 3793 01a5 3A       		.uleb128 0x3a
 3794 01a6 0B       		.uleb128 0xb
 3795 01a7 3B       		.uleb128 0x3b
 3796 01a8 0B       		.uleb128 0xb
 3797 01a9 49       		.uleb128 0x49
 3798 01aa 13       		.uleb128 0x13
 3799 01ab 02       		.uleb128 0x2
 3800 01ac 18       		.uleb128 0x18
 3801 01ad 00       		.byte	0
 3802 01ae 00       		.byte	0
 3803 01af 1F       		.uleb128 0x1f
 3804 01b0 898201   		.uleb128 0x4109
 3805 01b3 01       		.byte	0x1
 3806 01b4 11       		.uleb128 0x11
 3807 01b5 01       		.uleb128 0x1
 3808 01b6 31       		.uleb128 0x31
 3809 01b7 13       		.uleb128 0x13
 3810 01b8 01       		.uleb128 0x1
 3811 01b9 13       		.uleb128 0x13
 3812 01ba 00       		.byte	0
 3813 01bb 00       		.byte	0
 3814 01bc 20       		.uleb128 0x20
 3815 01bd 34       		.uleb128 0x34
 3816 01be 00       		.byte	0
 3817 01bf 03       		.uleb128 0x3
 3818 01c0 0E       		.uleb128 0xe
 3819 01c1 3A       		.uleb128 0x3a
 3820 01c2 0B       		.uleb128 0xb
 3821 01c3 3B       		.uleb128 0x3b
 3822 01c4 05       		.uleb128 0x5
 3823 01c5 49       		.uleb128 0x49
 3824 01c6 13       		.uleb128 0x13
 3825 01c7 3F       		.uleb128 0x3f
 3826 01c8 19       		.uleb128 0x19
 3827 01c9 3C       		.uleb128 0x3c
 3828 01ca 19       		.uleb128 0x19
 3829 01cb 00       		.byte	0
 3830 01cc 00       		.byte	0
 3831 01cd 21       		.uleb128 0x21
 3832 01ce 34       		.uleb128 0x34
 3833 01cf 00       		.byte	0
 3834 01d0 03       		.uleb128 0x3
 3835 01d1 0E       		.uleb128 0xe
 3836 01d2 3A       		.uleb128 0x3a
 3837 01d3 0B       		.uleb128 0xb
 3838 01d4 3B       		.uleb128 0x3b
 3839 01d5 0B       		.uleb128 0xb
ARM GAS  C:\Users\TERENC~1\AppData\Local\Temp\ccVnttLg.s 			page 94


 3840 01d6 49       		.uleb128 0x49
 3841 01d7 13       		.uleb128 0x13
 3842 01d8 3F       		.uleb128 0x3f
 3843 01d9 19       		.uleb128 0x19
 3844 01da 3C       		.uleb128 0x3c
 3845 01db 19       		.uleb128 0x19
 3846 01dc 00       		.byte	0
 3847 01dd 00       		.byte	0
 3848 01de 22       		.uleb128 0x22
 3849 01df 2E       		.uleb128 0x2e
 3850 01e0 00       		.byte	0
 3851 01e1 3F       		.uleb128 0x3f
 3852 01e2 19       		.uleb128 0x19
 3853 01e3 3C       		.uleb128 0x3c
 3854 01e4 19       		.uleb128 0x19
 3855 01e5 6E       		.uleb128 0x6e
 3856 01e6 0E       		.uleb128 0xe
 3857 01e7 03       		.uleb128 0x3
 3858 01e8 0E       		.uleb128 0xe
 3859 01e9 3A       		.uleb128 0x3a
 3860 01ea 0B       		.uleb128 0xb
 3861 01eb 3B       		.uleb128 0x3b
 3862 01ec 0B       		.uleb128 0xb
 3863 01ed 00       		.byte	0
 3864 01ee 00       		.byte	0
 3865 01ef 23       		.uleb128 0x23
 3866 01f0 2E       		.uleb128 0x2e
 3867 01f1 00       		.byte	0
 3868 01f2 3F       		.uleb128 0x3f
 3869 01f3 19       		.uleb128 0x19
 3870 01f4 3C       		.uleb128 0x3c
 3871 01f5 19       		.uleb128 0x19
 3872 01f6 6E       		.uleb128 0x6e
 3873 01f7 0E       		.uleb128 0xe
 3874 01f8 03       		.uleb128 0x3
 3875 01f9 0E       		.uleb128 0xe
 3876 01fa 3A       		.uleb128 0x3a
 3877 01fb 0B       		.uleb128 0xb
 3878 01fc 3B       		.uleb128 0x3b
 3879 01fd 05       		.uleb128 0x5
 3880 01fe 00       		.byte	0
 3881 01ff 00       		.byte	0
 3882 0200 00       		.byte	0
 3883              		.section	.debug_loc,"",%progbits
 3884              	.Ldebug_loc0:
 3885              	.LLST0:
 3886 0000 00000000 		.4byte	.LVL0
 3887 0004 0E000000 		.4byte	.LVL1
 3888 0008 0100     		.2byte	0x1
 3889 000a 50       		.byte	0x50
 3890 000b 0E000000 		.4byte	.LVL1
 3891 000f 5E000000 		.4byte	.LVL8
 3892 0013 0100     		.2byte	0x1
 3893 0015 54       		.byte	0x54
 3894 0016 5E000000 		.4byte	.LVL8
 3895 001a 64000000 		.4byte	.LFE162
 3896 001e 0400     		.2byte	0x4
ARM GAS  C:\Users\TERENC~1\AppData\Local\Temp\ccVnttLg.s 			page 95


 3897 0020 F3       		.byte	0xf3
 3898 0021 01       		.uleb128 0x1
 3899 0022 50       		.byte	0x50
 3900 0023 9F       		.byte	0x9f
 3901 0024 00000000 		.4byte	0
 3902 0028 00000000 		.4byte	0
 3903              	.LLST1:
 3904 002c 2A000000 		.4byte	.LVL3
 3905 0030 30000000 		.4byte	.LVL4
 3906 0034 0200     		.2byte	0x2
 3907 0036 32       		.byte	0x32
 3908 0037 9F       		.byte	0x9f
 3909 0038 30000000 		.4byte	.LVL4
 3910 003c 5C000000 		.4byte	.LVL7
 3911 0040 0100     		.2byte	0x1
 3912 0042 53       		.byte	0x53
 3913 0043 00000000 		.4byte	0
 3914 0047 00000000 		.4byte	0
 3915              	.LLST2:
 3916 004b 18000000 		.4byte	.LVL2
 3917 004f 30000000 		.4byte	.LVL4
 3918 0053 0200     		.2byte	0x2
 3919 0055 30       		.byte	0x30
 3920 0056 9F       		.byte	0x9f
 3921 0057 30000000 		.4byte	.LVL4
 3922 005b 5C000000 		.4byte	.LVL7
 3923 005f 0100     		.2byte	0x1
 3924 0061 50       		.byte	0x50
 3925 0062 00000000 		.4byte	0
 3926 0066 00000000 		.4byte	0
 3927              	.LLST3:
 3928 006a 02000000 		.4byte	.LVL9
 3929 006e 08000000 		.4byte	.LVL10
 3930 0072 0200     		.2byte	0x2
 3931 0074 31       		.byte	0x31
 3932 0075 9F       		.byte	0x9f
 3933 0076 08000000 		.4byte	.LVL10
 3934 007a 7C000000 		.4byte	.LVL13
 3935 007e 0100     		.2byte	0x1
 3936 0080 53       		.byte	0x53
 3937 0081 00000000 		.4byte	0
 3938 0085 00000000 		.4byte	0
 3939              	.LLST4:
 3940 0089 02000000 		.4byte	.LVL9
 3941 008d 08000000 		.4byte	.LVL10
 3942 0091 0200     		.2byte	0x2
 3943 0093 30       		.byte	0x30
 3944 0094 9F       		.byte	0x9f
 3945 0095 08000000 		.4byte	.LVL10
 3946 0099 CC000000 		.4byte	.LFE163
 3947 009d 0100     		.2byte	0x1
 3948 009f 50       		.byte	0x50
 3949 00a0 00000000 		.4byte	0
 3950 00a4 00000000 		.4byte	0
 3951              	.LLST5:
 3952 00a8 00000000 		.4byte	.LVL14
 3953 00ac 04000000 		.4byte	.LVL15
ARM GAS  C:\Users\TERENC~1\AppData\Local\Temp\ccVnttLg.s 			page 96


 3954 00b0 0200     		.2byte	0x2
 3955 00b2 31       		.byte	0x31
 3956 00b3 9F       		.byte	0x9f
 3957 00b4 04000000 		.4byte	.LVL15
 3958 00b8 36000000 		.4byte	.LVL16
 3959 00bc 0100     		.2byte	0x1
 3960 00be 53       		.byte	0x53
 3961 00bf 38000000 		.4byte	.LVL17
 3962 00c3 44000000 		.4byte	.LFE164
 3963 00c7 0100     		.2byte	0x1
 3964 00c9 53       		.byte	0x53
 3965 00ca 00000000 		.4byte	0
 3966 00ce 00000000 		.4byte	0
 3967              	.LLST6:
 3968 00d2 00000000 		.4byte	.LVL18
 3969 00d6 14000000 		.4byte	.LVL20
 3970 00da 0100     		.2byte	0x1
 3971 00dc 50       		.byte	0x50
 3972 00dd 14000000 		.4byte	.LVL20
 3973 00e1 1C000000 		.4byte	.LVL22
 3974 00e5 0400     		.2byte	0x4
 3975 00e7 F3       		.byte	0xf3
 3976 00e8 01       		.uleb128 0x1
 3977 00e9 50       		.byte	0x50
 3978 00ea 9F       		.byte	0x9f
 3979 00eb 1C000000 		.4byte	.LVL22
 3980 00ef 1E000000 		.4byte	.LVL23
 3981 00f3 0100     		.2byte	0x1
 3982 00f5 50       		.byte	0x50
 3983 00f6 1E000000 		.4byte	.LVL23
 3984 00fa 28000000 		.4byte	.LFE167
 3985 00fe 0400     		.2byte	0x4
 3986 0100 F3       		.byte	0xf3
 3987 0101 01       		.uleb128 0x1
 3988 0102 50       		.byte	0x50
 3989 0103 9F       		.byte	0x9f
 3990 0104 00000000 		.4byte	0
 3991 0108 00000000 		.4byte	0
 3992              	.LLST7:
 3993 010c 0C000000 		.4byte	.LVL19
 3994 0110 1A000000 		.4byte	.LVL21
 3995 0114 0300     		.2byte	0x3
 3996 0116 73       		.byte	0x73
 3997 0117 10       		.sleb128 16
 3998 0118 9F       		.byte	0x9f
 3999 0119 1A000000 		.4byte	.LVL21
 4000 011d 1C000000 		.4byte	.LVL22
 4001 0121 0100     		.2byte	0x1
 4002 0123 50       		.byte	0x50
 4003 0124 1C000000 		.4byte	.LVL22
 4004 0128 1E000000 		.4byte	.LVL23
 4005 012c 0300     		.2byte	0x3
 4006 012e 73       		.byte	0x73
 4007 012f 10       		.sleb128 16
 4008 0130 9F       		.byte	0x9f
 4009 0131 1E000000 		.4byte	.LVL23
 4010 0135 28000000 		.4byte	.LFE167
ARM GAS  C:\Users\TERENC~1\AppData\Local\Temp\ccVnttLg.s 			page 97


 4011 0139 0100     		.2byte	0x1
 4012 013b 50       		.byte	0x50
 4013 013c 00000000 		.4byte	0
 4014 0140 00000000 		.4byte	0
 4015              	.LLST8:
 4016 0144 22000000 		.4byte	.LVL25
 4017 0148 52010000 		.4byte	.LVL41
 4018 014c 0100     		.2byte	0x1
 4019 014e 55       		.byte	0x55
 4020 014f 00000000 		.4byte	0
 4021 0153 00000000 		.4byte	0
 4022              	.LLST9:
 4023 0157 4A000000 		.4byte	.LVL30
 4024 015b 0E010000 		.4byte	.LVL36
 4025 015f 0100     		.2byte	0x1
 4026 0161 54       		.byte	0x54
 4027 0162 0E010000 		.4byte	.LVL36
 4028 0166 1E010000 		.4byte	.LVL37
 4029 016a 0300     		.2byte	0x3
 4030 016c 77       		.byte	0x77
 4031 016d 01       		.sleb128 1
 4032 016e 9F       		.byte	0x9f
 4033 016f 1E010000 		.4byte	.LVL37
 4034 0173 30010000 		.4byte	.LVL38
 4035 0177 0100     		.2byte	0x1
 4036 0179 54       		.byte	0x54
 4037 017a 00000000 		.4byte	0
 4038 017e 00000000 		.4byte	0
 4039              	.LLST10:
 4040 0182 52000000 		.4byte	.LVL31
 4041 0186 58000000 		.4byte	.LVL32
 4042 018a 0100     		.2byte	0x1
 4043 018c 56       		.byte	0x56
 4044 018d 58000000 		.4byte	.LVL32
 4045 0191 A8000000 		.4byte	.LVL33
 4046 0195 0100     		.2byte	0x1
 4047 0197 5C       		.byte	0x5c
 4048 0198 A8000000 		.4byte	.LVL33
 4049 019c B4000000 		.4byte	.LVL34
 4050 01a0 0100     		.2byte	0x1
 4051 01a2 51       		.byte	0x51
 4052 01a3 B4000000 		.4byte	.LVL34
 4053 01a7 C8000000 		.4byte	.LVL35
 4054 01ab 0100     		.2byte	0x1
 4055 01ad 5C       		.byte	0x5c
 4056 01ae 00000000 		.4byte	0
 4057 01b2 00000000 		.4byte	0
 4058              	.LLST11:
 4059 01b6 2A000000 		.4byte	.LVL28
 4060 01ba 2E000000 		.4byte	.LVL29
 4061 01be 0200     		.2byte	0x2
 4062 01c0 30       		.byte	0x30
 4063 01c1 9F       		.byte	0x9f
 4064 01c2 2E000000 		.4byte	.LVL29
 4065 01c6 52010000 		.4byte	.LVL41
 4066 01ca 0100     		.2byte	0x1
 4067 01cc 52       		.byte	0x52
ARM GAS  C:\Users\TERENC~1\AppData\Local\Temp\ccVnttLg.s 			page 98


 4068 01cd 00000000 		.4byte	0
 4069 01d1 00000000 		.4byte	0
 4070              	.LLST12:
 4071 01d5 2A000000 		.4byte	.LVL28
 4072 01d9 52010000 		.4byte	.LVL41
 4073 01dd 0100     		.2byte	0x1
 4074 01df 50       		.byte	0x50
 4075 01e0 00000000 		.4byte	0
 4076 01e4 00000000 		.4byte	0
 4077              	.LLST13:
 4078 01e8 20000000 		.4byte	.LVL24
 4079 01ec 28000000 		.4byte	.LVL27
 4080 01f0 0300     		.2byte	0x3
 4081 01f2 70       		.byte	0x70
 4082 01f3 08       		.sleb128 8
 4083 01f4 9F       		.byte	0x9f
 4084 01f5 00000000 		.4byte	0
 4085 01f9 00000000 		.4byte	0
 4086              	.LLST14:
 4087 01fd 24000000 		.4byte	.LVL26
 4088 0201 52010000 		.4byte	.LVL41
 4089 0205 0100     		.2byte	0x1
 4090 0207 53       		.byte	0x53
 4091 0208 00000000 		.4byte	0
 4092 020c 00000000 		.4byte	0
 4093              	.LLST15:
 4094 0210 0E000000 		.4byte	.LVL42
 4095 0214 1E000000 		.4byte	.LVL47
 4096 0218 0100     		.2byte	0x1
 4097 021a 50       		.byte	0x50
 4098 021b 20000000 		.4byte	.LVL48
 4099 021f 22000000 		.4byte	.LVL49
 4100 0223 0100     		.2byte	0x1
 4101 0225 50       		.byte	0x50
 4102 0226 00000000 		.4byte	0
 4103 022a 00000000 		.4byte	0
 4104              	.LLST16:
 4105 022e 1E000000 		.4byte	.LVL47
 4106 0232 20000000 		.4byte	.LVL48
 4107 0236 0100     		.2byte	0x1
 4108 0238 50       		.byte	0x50
 4109 0239 22000000 		.4byte	.LVL49
 4110 023d 28000000 		.4byte	.LFE169
 4111 0241 0100     		.2byte	0x1
 4112 0243 50       		.byte	0x50
 4113 0244 00000000 		.4byte	0
 4114 0248 00000000 		.4byte	0
 4115              	.LLST17:
 4116 024c 16000000 		.4byte	.LVL43
 4117 0250 18000000 		.4byte	.LVL44
 4118 0254 0100     		.2byte	0x1
 4119 0256 53       		.byte	0x53
 4120 0257 18000000 		.4byte	.LVL44
 4121 025b 1A000000 		.4byte	.LVL45
 4122 025f 0300     		.2byte	0x3
 4123 0261 73       		.byte	0x73
 4124 0262 7E       		.sleb128 -2
ARM GAS  C:\Users\TERENC~1\AppData\Local\Temp\ccVnttLg.s 			page 99


 4125 0263 9F       		.byte	0x9f
 4126 0264 1A000000 		.4byte	.LVL45
 4127 0268 1C000000 		.4byte	.LVL46
 4128 026c 0500     		.2byte	0x5
 4129 026e 70       		.byte	0x70
 4130 026f 04       		.sleb128 4
 4131 0270 06       		.byte	0x6
 4132 0271 23       		.byte	0x23
 4133 0272 04       		.uleb128 0x4
 4134 0273 00000000 		.4byte	0
 4135 0277 00000000 		.4byte	0
 4136              	.LLST18:
 4137 027b 00000000 		.4byte	.LVL50
 4138 027f 62000000 		.4byte	.LVL61
 4139 0283 0100     		.2byte	0x1
 4140 0285 50       		.byte	0x50
 4141 0286 62000000 		.4byte	.LVL61
 4142 028a C0010000 		.4byte	.LFE165
 4143 028e 0400     		.2byte	0x4
 4144 0290 F3       		.byte	0xf3
 4145 0291 01       		.uleb128 0x1
 4146 0292 50       		.byte	0x50
 4147 0293 9F       		.byte	0x9f
 4148 0294 00000000 		.4byte	0
 4149 0298 00000000 		.4byte	0
 4150              	.LLST19:
 4151 029c 0A000000 		.4byte	.LVL51
 4152 02a0 0E000000 		.4byte	.LVL52
 4153 02a4 0200     		.2byte	0x2
 4154 02a6 30       		.byte	0x30
 4155 02a7 9F       		.byte	0x9f
 4156 02a8 0E000000 		.4byte	.LVL52
 4157 02ac 32000000 		.4byte	.LVL53
 4158 02b0 0100     		.2byte	0x1
 4159 02b2 53       		.byte	0x53
 4160 02b3 34000000 		.4byte	.LVL54
 4161 02b7 3E000000 		.4byte	.LVL55
 4162 02bb 0100     		.2byte	0x1
 4163 02bd 53       		.byte	0x53
 4164 02be 4E000000 		.4byte	.LVL58
 4165 02c2 50000000 		.4byte	.LVL59
 4166 02c6 0100     		.2byte	0x1
 4167 02c8 53       		.byte	0x53
 4168 02c9 8C000000 		.4byte	.LVL64
 4169 02cd 9E010000 		.4byte	.LVL92
 4170 02d1 0100     		.2byte	0x1
 4171 02d3 56       		.byte	0x56
 4172 02d4 00000000 		.4byte	0
 4173 02d8 00000000 		.4byte	0
 4174              	.LLST20:
 4175 02dc 92000000 		.4byte	.LVL66
 4176 02e0 96000000 		.4byte	.LVL67
 4177 02e4 0200     		.2byte	0x2
 4178 02e6 30       		.byte	0x30
 4179 02e7 9F       		.byte	0x9f
 4180 02e8 96000000 		.4byte	.LVL67
 4181 02ec D2000000 		.4byte	.LVL68
ARM GAS  C:\Users\TERENC~1\AppData\Local\Temp\ccVnttLg.s 			page 100


 4182 02f0 0100     		.2byte	0x1
 4183 02f2 53       		.byte	0x53
 4184 02f3 5C010000 		.4byte	.LVL79
 4185 02f7 60010000 		.4byte	.LVL81
 4186 02fb 0100     		.2byte	0x1
 4187 02fd 53       		.byte	0x53
 4188 02fe 62010000 		.4byte	.LVL82
 4189 0302 66010000 		.4byte	.LVL83
 4190 0306 0100     		.2byte	0x1
 4191 0308 53       		.byte	0x53
 4192 0309 00000000 		.4byte	0
 4193 030d 00000000 		.4byte	0
 4194              	.LLST21:
 4195 0311 3E000000 		.4byte	.LVL55
 4196 0315 4A000000 		.4byte	.LVL56
 4197 0319 0100     		.2byte	0x1
 4198 031b 53       		.byte	0x53
 4199 031c 4C000000 		.4byte	.LVL57
 4200 0320 4E000000 		.4byte	.LVL58
 4201 0324 0100     		.2byte	0x1
 4202 0326 53       		.byte	0x53
 4203 0327 50000000 		.4byte	.LVL59
 4204 032b 54000000 		.4byte	.LVL60
 4205 032f 0100     		.2byte	0x1
 4206 0331 53       		.byte	0x53
 4207 0332 8C000000 		.4byte	.LVL64
 4208 0336 90000000 		.4byte	.LVL65
 4209 033a 0200     		.2byte	0x2
 4210 033c 31       		.byte	0x31
 4211 033d 9F       		.byte	0x9f
 4212 033e 90000000 		.4byte	.LVL65
 4213 0342 68010000 		.4byte	.LVL84
 4214 0346 0100     		.2byte	0x1
 4215 0348 55       		.byte	0x55
 4216 0349 6A010000 		.4byte	.LVL85
 4217 034d 70010000 		.4byte	.LVL86
 4218 0351 0100     		.2byte	0x1
 4219 0353 55       		.byte	0x55
 4220 0354 70010000 		.4byte	.LVL86
 4221 0358 74010000 		.4byte	.LVL87
 4222 035c 0200     		.2byte	0x2
 4223 035e 30       		.byte	0x30
 4224 035f 9F       		.byte	0x9f
 4225 0360 74010000 		.4byte	.LVL87
 4226 0364 8C010000 		.4byte	.LVL89
 4227 0368 0100     		.2byte	0x1
 4228 036a 52       		.byte	0x52
 4229 036b 8E010000 		.4byte	.LVL90
 4230 036f 95010000 		.4byte	.LVL91-1
 4231 0373 0100     		.2byte	0x1
 4232 0375 52       		.byte	0x52
 4233 0376 00000000 		.4byte	0
 4234 037a 00000000 		.4byte	0
 4235              	.LLST22:
 4236 037e 00010000 		.4byte	.LVL69
 4237 0382 0E010000 		.4byte	.LVL70
 4238 0386 0100     		.2byte	0x1
ARM GAS  C:\Users\TERENC~1\AppData\Local\Temp\ccVnttLg.s 			page 101


 4239 0388 53       		.byte	0x53
 4240 0389 0E010000 		.4byte	.LVL70
 4241 038d 12010000 		.4byte	.LVL71
 4242 0391 0300     		.2byte	0x3
 4243 0393 73       		.byte	0x73
 4244 0394 7A       		.sleb128 -6
 4245 0395 9F       		.byte	0x9f
 4246 0396 12010000 		.4byte	.LVL71
 4247 039a 14010000 		.4byte	.LVL72
 4248 039e 0100     		.2byte	0x1
 4249 03a0 53       		.byte	0x53
 4250 03a1 14010000 		.4byte	.LVL72
 4251 03a5 1E010000 		.4byte	.LVL73
 4252 03a9 0700     		.2byte	0x7
 4253 03ab 74       		.byte	0x74
 4254 03ac 03       		.sleb128 3
 4255 03ad 94       		.byte	0x94
 4256 03ae 01       		.byte	0x1
 4257 03af 33       		.byte	0x33
 4258 03b0 1A       		.byte	0x1a
 4259 03b1 9F       		.byte	0x9f
 4260 03b2 32010000 		.4byte	.LVL74
 4261 03b6 38010000 		.4byte	.LVL75
 4262 03ba 0100     		.2byte	0x1
 4263 03bc 53       		.byte	0x53
 4264 03bd 38010000 		.4byte	.LVL75
 4265 03c1 3C010000 		.4byte	.LVL76
 4266 03c5 0300     		.2byte	0x3
 4267 03c7 73       		.byte	0x73
 4268 03c8 7C       		.sleb128 -4
 4269 03c9 9F       		.byte	0x9f
 4270 03ca 3C010000 		.4byte	.LVL76
 4271 03ce 3E010000 		.4byte	.LVL77
 4272 03d2 0100     		.2byte	0x1
 4273 03d4 53       		.byte	0x53
 4274 03d5 3E010000 		.4byte	.LVL77
 4275 03d9 48010000 		.4byte	.LVL78
 4276 03dd 0700     		.2byte	0x7
 4277 03df 74       		.byte	0x74
 4278 03e0 03       		.sleb128 3
 4279 03e1 94       		.byte	0x94
 4280 03e2 01       		.byte	0x1
 4281 03e3 33       		.byte	0x33
 4282 03e4 1A       		.byte	0x1a
 4283 03e5 9F       		.byte	0x9f
 4284 03e6 00000000 		.4byte	0
 4285 03ea 00000000 		.4byte	0
 4286              	.LLST23:
 4287 03ee 6A000000 		.4byte	.LVL62
 4288 03f2 90000000 		.4byte	.LVL65
 4289 03f6 0200     		.2byte	0x2
 4290 03f8 70       		.byte	0x70
 4291 03f9 04       		.sleb128 4
 4292 03fa 00000000 		.4byte	0
 4293 03fe 00000000 		.4byte	0
 4294              	.LLST24:
 4295 0402 6A000000 		.4byte	.LVL62
ARM GAS  C:\Users\TERENC~1\AppData\Local\Temp\ccVnttLg.s 			page 102


 4296 0406 8A000000 		.4byte	.LVL63
 4297 040a 0100     		.2byte	0x1
 4298 040c 50       		.byte	0x50
 4299 040d 8A000000 		.4byte	.LVL63
 4300 0411 70010000 		.4byte	.LVL86
 4301 0415 0300     		.2byte	0x3
 4302 0417 70       		.byte	0x70
 4303 0418 08       		.sleb128 8
 4304 0419 9F       		.byte	0x9f
 4305 041a 00000000 		.4byte	0
 4306 041e 00000000 		.4byte	0
 4307              	.LLST25:
 4308 0422 92000000 		.4byte	.LVL66
 4309 0426 1E010000 		.4byte	.LVL73
 4310 042a 0100     		.2byte	0x1
 4311 042c 54       		.byte	0x54
 4312 042d 32010000 		.4byte	.LVL74
 4313 0431 48010000 		.4byte	.LVL78
 4314 0435 0100     		.2byte	0x1
 4315 0437 54       		.byte	0x54
 4316 0438 5C010000 		.4byte	.LVL79
 4317 043c 66010000 		.4byte	.LVL83
 4318 0440 0100     		.2byte	0x1
 4319 0442 54       		.byte	0x54
 4320 0443 70010000 		.4byte	.LVL86
 4321 0447 95010000 		.4byte	.LVL91-1
 4322 044b 0100     		.2byte	0x1
 4323 044d 50       		.byte	0x50
 4324 044e 00000000 		.4byte	0
 4325 0452 00000000 		.4byte	0
 4326              	.LLST26:
 4327 0456 00000000 		.4byte	.LVL93
 4328 045a 04000000 		.4byte	.LVL94
 4329 045e 0100     		.2byte	0x1
 4330 0460 50       		.byte	0x50
 4331 0461 04000000 		.4byte	.LVL94
 4332 0465 32000000 		.4byte	.LVL95
 4333 0469 0100     		.2byte	0x1
 4334 046b 50       		.byte	0x50
 4335 046c 3E000000 		.4byte	.LVL96
 4336 0470 40000000 		.4byte	.LVL97
 4337 0474 0100     		.2byte	0x1
 4338 0476 50       		.byte	0x50
 4339 0477 00000000 		.4byte	0
 4340 047b 00000000 		.4byte	0
 4341              	.LLST27:
 4342 047f 02000000 		.4byte	.LVL98
 4343 0483 58000000 		.4byte	.LVL103
 4344 0487 0200     		.2byte	0x2
 4345 0489 30       		.byte	0x30
 4346 048a 9F       		.byte	0x9f
 4347 048b 58000000 		.4byte	.LVL103
 4348 048f 5A000000 		.4byte	.LVL104
 4349 0493 0100     		.2byte	0x1
 4350 0495 50       		.byte	0x50
 4351 0496 5A000000 		.4byte	.LVL104
 4352 049a 5C000000 		.4byte	.LVL105
ARM GAS  C:\Users\TERENC~1\AppData\Local\Temp\ccVnttLg.s 			page 103


 4353 049e 0200     		.2byte	0x2
 4354 04a0 30       		.byte	0x30
 4355 04a1 9F       		.byte	0x9f
 4356 04a2 5C000000 		.4byte	.LVL105
 4357 04a6 6C000000 		.4byte	.LFE171
 4358 04aa 0100     		.2byte	0x1
 4359 04ac 50       		.byte	0x50
 4360 04ad 00000000 		.4byte	0
 4361 04b1 00000000 		.4byte	0
 4362              	.LLST28:
 4363 04b5 0A000000 		.4byte	.LVL99
 4364 04b9 3C000000 		.4byte	.LVL100
 4365 04bd 0100     		.2byte	0x1
 4366 04bf 53       		.byte	0x53
 4367 04c0 48000000 		.4byte	.LVL101
 4368 04c4 4A000000 		.4byte	.LVL102
 4369 04c8 0100     		.2byte	0x1
 4370 04ca 53       		.byte	0x53
 4371 04cb 5A000000 		.4byte	.LVL104
 4372 04cf 5C000000 		.4byte	.LVL105
 4373 04d3 0100     		.2byte	0x1
 4374 04d5 53       		.byte	0x53
 4375 04d6 00000000 		.4byte	0
 4376 04da 00000000 		.4byte	0
 4377              	.LLST29:
 4378 04de 02000000 		.4byte	.LVL106
 4379 04e2 9C000000 		.4byte	.LVL115
 4380 04e6 0200     		.2byte	0x2
 4381 04e8 30       		.byte	0x30
 4382 04e9 9F       		.byte	0x9f
 4383 04ea 9C000000 		.4byte	.LVL115
 4384 04ee 9E000000 		.4byte	.LVL116
 4385 04f2 0100     		.2byte	0x1
 4386 04f4 50       		.byte	0x50
 4387 04f5 9E000000 		.4byte	.LVL116
 4388 04f9 A0000000 		.4byte	.LVL117
 4389 04fd 0200     		.2byte	0x2
 4390 04ff 30       		.byte	0x30
 4391 0500 9F       		.byte	0x9f
 4392 0501 A0000000 		.4byte	.LVL117
 4393 0505 B0000000 		.4byte	.LFE172
 4394 0509 0100     		.2byte	0x1
 4395 050b 50       		.byte	0x50
 4396 050c 00000000 		.4byte	0
 4397 0510 00000000 		.4byte	0
 4398              	.LLST30:
 4399 0514 0A000000 		.4byte	.LVL107
 4400 0518 54000000 		.4byte	.LVL108
 4401 051c 0100     		.2byte	0x1
 4402 051e 53       		.byte	0x53
 4403 051f 60000000 		.4byte	.LVL109
 4404 0523 62000000 		.4byte	.LVL110
 4405 0527 0100     		.2byte	0x1
 4406 0529 53       		.byte	0x53
 4407 052a 6E000000 		.4byte	.LVL111
 4408 052e 80000000 		.4byte	.LVL112
 4409 0532 0100     		.2byte	0x1
ARM GAS  C:\Users\TERENC~1\AppData\Local\Temp\ccVnttLg.s 			page 104


 4410 0534 53       		.byte	0x53
 4411 0535 8C000000 		.4byte	.LVL113
 4412 0539 8E000000 		.4byte	.LVL114
 4413 053d 0100     		.2byte	0x1
 4414 053f 53       		.byte	0x53
 4415 0540 9E000000 		.4byte	.LVL116
 4416 0544 A0000000 		.4byte	.LVL117
 4417 0548 0100     		.2byte	0x1
 4418 054a 53       		.byte	0x53
 4419 054b 00000000 		.4byte	0
 4420 054f 00000000 		.4byte	0
 4421              	.LLST31:
 4422 0553 02000000 		.4byte	.LVL118
 4423 0557 36000000 		.4byte	.LVL124
 4424 055b 0200     		.2byte	0x2
 4425 055d 30       		.byte	0x30
 4426 055e 9F       		.byte	0x9f
 4427 055f 36000000 		.4byte	.LVL124
 4428 0563 3A000000 		.4byte	.LVL125
 4429 0567 0200     		.2byte	0x2
 4430 0569 31       		.byte	0x31
 4431 056a 9F       		.byte	0x9f
 4432 056b 3A000000 		.4byte	.LVL125
 4433 056f 3C000000 		.4byte	.LVL126
 4434 0573 0200     		.2byte	0x2
 4435 0575 30       		.byte	0x30
 4436 0576 9F       		.byte	0x9f
 4437 0577 3C000000 		.4byte	.LVL126
 4438 057b 50000000 		.4byte	.LFE173
 4439 057f 0100     		.2byte	0x1
 4440 0581 50       		.byte	0x50
 4441 0582 00000000 		.4byte	0
 4442 0586 00000000 		.4byte	0
 4443              	.LLST32:
 4444 058a 08000000 		.4byte	.LVL119
 4445 058e 3C000000 		.4byte	.LVL127
 4446 0592 0100     		.2byte	0x1
 4447 0594 55       		.byte	0x55
 4448 0595 00000000 		.4byte	0
 4449 0599 00000000 		.4byte	0
 4450              	.LLST33:
 4451 059d 18000000 		.4byte	.LVL121
 4452 05a1 22000000 		.4byte	.LVL122
 4453 05a5 0100     		.2byte	0x1
 4454 05a7 53       		.byte	0x53
 4455 05a8 22000000 		.4byte	.LVL122
 4456 05ac 2C000000 		.4byte	.LVL123
 4457 05b0 0500     		.2byte	0x5
 4458 05b2 70       		.byte	0x70
 4459 05b3 04       		.sleb128 4
 4460 05b4 06       		.byte	0x6
 4461 05b5 23       		.byte	0x23
 4462 05b6 04       		.uleb128 0x4
 4463 05b7 3A000000 		.4byte	.LVL125
 4464 05bb 3C000000 		.4byte	.LVL126
 4465 05bf 0100     		.2byte	0x1
 4466 05c1 53       		.byte	0x53
ARM GAS  C:\Users\TERENC~1\AppData\Local\Temp\ccVnttLg.s 			page 105


 4467 05c2 00000000 		.4byte	0
 4468 05c6 00000000 		.4byte	0
 4469              	.LLST34:
 4470 05ca 14000000 		.4byte	.LVL120
 4471 05ce 2C000000 		.4byte	.LVL123
 4472 05d2 0100     		.2byte	0x1
 4473 05d4 50       		.byte	0x50
 4474 05d5 3A000000 		.4byte	.LVL125
 4475 05d9 3C000000 		.4byte	.LVL126
 4476 05dd 0100     		.2byte	0x1
 4477 05df 50       		.byte	0x50
 4478 05e0 00000000 		.4byte	0
 4479 05e4 00000000 		.4byte	0
 4480              	.LLST35:
 4481 05e8 02000000 		.4byte	.LVL128
 4482 05ec 4A000000 		.4byte	.LVL132
 4483 05f0 0200     		.2byte	0x2
 4484 05f2 30       		.byte	0x30
 4485 05f3 9F       		.byte	0x9f
 4486 05f4 4A000000 		.4byte	.LVL132
 4487 05f8 4C000000 		.4byte	.LVL133
 4488 05fc 0100     		.2byte	0x1
 4489 05fe 50       		.byte	0x50
 4490 05ff 4C000000 		.4byte	.LVL133
 4491 0603 7C000000 		.4byte	.LVL135
 4492 0607 0200     		.2byte	0x2
 4493 0609 30       		.byte	0x30
 4494 060a 9F       		.byte	0x9f
 4495 060b 7C000000 		.4byte	.LVL135
 4496 060f 7E000000 		.4byte	.LVL136
 4497 0613 0100     		.2byte	0x1
 4498 0615 50       		.byte	0x50
 4499 0616 7E000000 		.4byte	.LVL136
 4500 061a D6000000 		.4byte	.LVL147
 4501 061e 0200     		.2byte	0x2
 4502 0620 30       		.byte	0x30
 4503 0621 9F       		.byte	0x9f
 4504 0622 D6000000 		.4byte	.LVL147
 4505 0626 D8000000 		.4byte	.LVL148
 4506 062a 0100     		.2byte	0x1
 4507 062c 50       		.byte	0x50
 4508 062d D8000000 		.4byte	.LVL148
 4509 0631 DC000000 		.4byte	.LVL149
 4510 0635 0200     		.2byte	0x2
 4511 0637 30       		.byte	0x30
 4512 0638 9F       		.byte	0x9f
 4513 0639 DC000000 		.4byte	.LVL149
 4514 063d DE000000 		.4byte	.LVL150
 4515 0641 0100     		.2byte	0x1
 4516 0643 50       		.byte	0x50
 4517 0644 DE000000 		.4byte	.LVL150
 4518 0648 12010000 		.4byte	.LVL152
 4519 064c 0200     		.2byte	0x2
 4520 064e 30       		.byte	0x30
 4521 064f 9F       		.byte	0x9f
 4522 0650 12010000 		.4byte	.LVL152
 4523 0654 14010000 		.4byte	.LVL153
ARM GAS  C:\Users\TERENC~1\AppData\Local\Temp\ccVnttLg.s 			page 106


 4524 0658 0100     		.2byte	0x1
 4525 065a 50       		.byte	0x50
 4526 065b 14010000 		.4byte	.LVL153
 4527 065f 2E010000 		.4byte	.LVL154
 4528 0663 0200     		.2byte	0x2
 4529 0665 30       		.byte	0x30
 4530 0666 9F       		.byte	0x9f
 4531 0667 2E010000 		.4byte	.LVL154
 4532 066b 30010000 		.4byte	.LVL155
 4533 066f 0100     		.2byte	0x1
 4534 0671 50       		.byte	0x50
 4535 0672 30010000 		.4byte	.LVL155
 4536 0676 3E010000 		.4byte	.LVL157
 4537 067a 0200     		.2byte	0x2
 4538 067c 30       		.byte	0x30
 4539 067d 9F       		.byte	0x9f
 4540 067e 3E010000 		.4byte	.LVL157
 4541 0682 40010000 		.4byte	.LVL158
 4542 0686 0100     		.2byte	0x1
 4543 0688 50       		.byte	0x50
 4544 0689 40010000 		.4byte	.LVL158
 4545 068d 54010000 		.4byte	.LVL160
 4546 0691 0200     		.2byte	0x2
 4547 0693 30       		.byte	0x30
 4548 0694 9F       		.byte	0x9f
 4549 0695 54010000 		.4byte	.LVL160
 4550 0699 56010000 		.4byte	.LVL161
 4551 069d 0100     		.2byte	0x1
 4552 069f 50       		.byte	0x50
 4553 06a0 56010000 		.4byte	.LVL161
 4554 06a4 76010000 		.4byte	.LVL163
 4555 06a8 0200     		.2byte	0x2
 4556 06aa 30       		.byte	0x30
 4557 06ab 9F       		.byte	0x9f
 4558 06ac 76010000 		.4byte	.LVL163
 4559 06b0 78010000 		.4byte	.LVL164
 4560 06b4 0100     		.2byte	0x1
 4561 06b6 50       		.byte	0x50
 4562 06b7 78010000 		.4byte	.LVL164
 4563 06bb B6010000 		.4byte	.LVL171
 4564 06bf 0200     		.2byte	0x2
 4565 06c1 30       		.byte	0x30
 4566 06c2 9F       		.byte	0x9f
 4567 06c3 B6010000 		.4byte	.LVL171
 4568 06c7 B8010000 		.4byte	.LVL172
 4569 06cb 0100     		.2byte	0x1
 4570 06cd 50       		.byte	0x50
 4571 06ce B8010000 		.4byte	.LVL172
 4572 06d2 EA010000 		.4byte	.LVL176
 4573 06d6 0200     		.2byte	0x2
 4574 06d8 30       		.byte	0x30
 4575 06d9 9F       		.byte	0x9f
 4576 06da EA010000 		.4byte	.LVL176
 4577 06de EC010000 		.4byte	.LVL177
 4578 06e2 0100     		.2byte	0x1
 4579 06e4 50       		.byte	0x50
 4580 06e5 EC010000 		.4byte	.LVL177
ARM GAS  C:\Users\TERENC~1\AppData\Local\Temp\ccVnttLg.s 			page 107


 4581 06e9 08020000 		.4byte	.LVL179
 4582 06ed 0200     		.2byte	0x2
 4583 06ef 30       		.byte	0x30
 4584 06f0 9F       		.byte	0x9f
 4585 06f1 08020000 		.4byte	.LVL179
 4586 06f5 0A020000 		.4byte	.LVL180
 4587 06f9 0100     		.2byte	0x1
 4588 06fb 50       		.byte	0x50
 4589 06fc 0A020000 		.4byte	.LVL180
 4590 0700 20020000 		.4byte	.LVL181
 4591 0704 0200     		.2byte	0x2
 4592 0706 30       		.byte	0x30
 4593 0707 9F       		.byte	0x9f
 4594 0708 20020000 		.4byte	.LVL181
 4595 070c 22020000 		.4byte	.LVL182
 4596 0710 0100     		.2byte	0x1
 4597 0712 50       		.byte	0x50
 4598 0713 22020000 		.4byte	.LVL182
 4599 0717 3C020000 		.4byte	.LVL183
 4600 071b 0200     		.2byte	0x2
 4601 071d 30       		.byte	0x30
 4602 071e 9F       		.byte	0x9f
 4603 071f 3C020000 		.4byte	.LVL183
 4604 0723 3E020000 		.4byte	.LVL184
 4605 0727 0100     		.2byte	0x1
 4606 0729 50       		.byte	0x50
 4607 072a 3E020000 		.4byte	.LVL184
 4608 072e 5A020000 		.4byte	.LVL186
 4609 0732 0200     		.2byte	0x2
 4610 0734 30       		.byte	0x30
 4611 0735 9F       		.byte	0x9f
 4612 0736 5A020000 		.4byte	.LVL186
 4613 073a 5C020000 		.4byte	.LVL187
 4614 073e 0100     		.2byte	0x1
 4615 0740 50       		.byte	0x50
 4616 0741 5C020000 		.4byte	.LVL187
 4617 0745 74020000 		.4byte	.LVL188
 4618 0749 0200     		.2byte	0x2
 4619 074b 30       		.byte	0x30
 4620 074c 9F       		.byte	0x9f
 4621 074d 74020000 		.4byte	.LVL188
 4622 0751 76020000 		.4byte	.LVL189
 4623 0755 0100     		.2byte	0x1
 4624 0757 50       		.byte	0x50
 4625 0758 76020000 		.4byte	.LVL189
 4626 075c 90020000 		.4byte	.LVL190
 4627 0760 0200     		.2byte	0x2
 4628 0762 30       		.byte	0x30
 4629 0763 9F       		.byte	0x9f
 4630 0764 90020000 		.4byte	.LVL190
 4631 0768 92020000 		.4byte	.LVL191
 4632 076c 0100     		.2byte	0x1
 4633 076e 50       		.byte	0x50
 4634 076f 92020000 		.4byte	.LVL191
 4635 0773 CC020000 		.4byte	.LVL200
 4636 0777 0200     		.2byte	0x2
 4637 0779 30       		.byte	0x30
ARM GAS  C:\Users\TERENC~1\AppData\Local\Temp\ccVnttLg.s 			page 108


 4638 077a 9F       		.byte	0x9f
 4639 077b CC020000 		.4byte	.LVL200
 4640 077f 10030000 		.4byte	.LFE161
 4641 0783 0100     		.2byte	0x1
 4642 0785 50       		.byte	0x50
 4643 0786 00000000 		.4byte	0
 4644 078a 00000000 		.4byte	0
 4645              	.LLST36:
 4646 078e C4010000 		.4byte	.LVL174
 4647 0792 E5010000 		.4byte	.LVL175-1
 4648 0796 0100     		.2byte	0x1
 4649 0798 51       		.byte	0x51
 4650 0799 00000000 		.4byte	0
 4651 079d 00000000 		.4byte	0
 4652              	.LLST37:
 4653 07a1 7C010000 		.4byte	.LVL166
 4654 07a5 A2010000 		.4byte	.LVL168
 4655 07a9 0100     		.2byte	0x1
 4656 07ab 54       		.byte	0x54
 4657 07ac A6020000 		.4byte	.LVL197
 4658 07b0 AA020000 		.4byte	.LVL199
 4659 07b4 0100     		.2byte	0x1
 4660 07b6 54       		.byte	0x54
 4661 07b7 00000000 		.4byte	0
 4662 07bb 00000000 		.4byte	0
 4663              	.LLST38:
 4664 07bf 06000000 		.4byte	.LVL129
 4665 07c3 32000000 		.4byte	.LVL130
 4666 07c7 0100     		.2byte	0x1
 4667 07c9 53       		.byte	0x53
 4668 07ca DE000000 		.4byte	.LVL150
 4669 07ce E2000000 		.4byte	.LVL151
 4670 07d2 0100     		.2byte	0x1
 4671 07d4 53       		.byte	0x53
 4672 07d5 30010000 		.4byte	.LVL155
 4673 07d9 32010000 		.4byte	.LVL156
 4674 07dd 0100     		.2byte	0x1
 4675 07df 53       		.byte	0x53
 4676 07e0 40010000 		.4byte	.LVL158
 4677 07e4 44010000 		.4byte	.LVL159
 4678 07e8 0100     		.2byte	0x1
 4679 07ea 53       		.byte	0x53
 4680 07eb 56010000 		.4byte	.LVL161
 4681 07ef 6A010000 		.4byte	.LVL162
 4682 07f3 0100     		.2byte	0x1
 4683 07f5 53       		.byte	0x53
 4684 07f6 78010000 		.4byte	.LVL164
 4685 07fa 7A010000 		.4byte	.LVL165
 4686 07fe 0100     		.2byte	0x1
 4687 0800 53       		.byte	0x53
 4688 0801 B8010000 		.4byte	.LVL172
 4689 0805 BB010000 		.4byte	.LVL173-1
 4690 0809 0100     		.2byte	0x1
 4691 080b 53       		.byte	0x53
 4692 080c EC010000 		.4byte	.LVL177
 4693 0810 F0010000 		.4byte	.LVL178
 4694 0814 0100     		.2byte	0x1
ARM GAS  C:\Users\TERENC~1\AppData\Local\Temp\ccVnttLg.s 			page 109


 4695 0816 53       		.byte	0x53
 4696 0817 3E020000 		.4byte	.LVL184
 4697 081b 42020000 		.4byte	.LVL185
 4698 081f 0100     		.2byte	0x1
 4699 0821 53       		.byte	0x53
 4700 0822 92020000 		.4byte	.LVL191
 4701 0826 96020000 		.4byte	.LVL192
 4702 082a 0100     		.2byte	0x1
 4703 082c 53       		.byte	0x53
 4704 082d A2020000 		.4byte	.LVL196
 4705 0831 A6020000 		.4byte	.LVL197
 4706 0835 0100     		.2byte	0x1
 4707 0837 53       		.byte	0x53
 4708 0838 00000000 		.4byte	0
 4709 083c 00000000 		.4byte	0
 4710              	.LLST39:
 4711 0840 06000000 		.4byte	.LVL129
 4712 0844 88000000 		.4byte	.LVL137
 4713 0848 0200     		.2byte	0x2
 4714 084a 30       		.byte	0x30
 4715 084b 9F       		.byte	0x9f
 4716 084c 88000000 		.4byte	.LVL137
 4717 0850 92000000 		.4byte	.LVL142
 4718 0854 0100     		.2byte	0x1
 4719 0856 52       		.byte	0x52
 4720 0857 92000000 		.4byte	.LVL142
 4721 085b 96000000 		.4byte	.LVL143
 4722 085f 0200     		.2byte	0x2
 4723 0861 30       		.byte	0x30
 4724 0862 9F       		.byte	0x9f
 4725 0863 96000000 		.4byte	.LVL143
 4726 0867 BF000000 		.4byte	.LVL145-1
 4727 086b 0100     		.2byte	0x1
 4728 086d 52       		.byte	0x52
 4729 086e C2000000 		.4byte	.LVL146
 4730 0872 D5000000 		.4byte	.LVL147-1
 4731 0876 0100     		.2byte	0x1
 4732 0878 52       		.byte	0x52
 4733 0879 D8000000 		.4byte	.LVL148
 4734 087d 9A020000 		.4byte	.LVL194
 4735 0881 0200     		.2byte	0x2
 4736 0883 30       		.byte	0x30
 4737 0884 9F       		.byte	0x9f
 4738 0885 9A020000 		.4byte	.LVL194
 4739 0889 9E020000 		.4byte	.LVL195
 4740 088d 0100     		.2byte	0x1
 4741 088f 52       		.byte	0x52
 4742 0890 9E020000 		.4byte	.LVL195
 4743 0894 CC020000 		.4byte	.LVL200
 4744 0898 0200     		.2byte	0x2
 4745 089a 30       		.byte	0x30
 4746 089b 9F       		.byte	0x9f
 4747 089c 00000000 		.4byte	0
 4748 08a0 00000000 		.4byte	0
 4749              	.LLST40:
 4750 08a4 88000000 		.4byte	.LVL137
 4751 08a8 8E000000 		.4byte	.LVL140
ARM GAS  C:\Users\TERENC~1\AppData\Local\Temp\ccVnttLg.s 			page 110


 4752 08ac 0100     		.2byte	0x1
 4753 08ae 53       		.byte	0x53
 4754 08af 90000000 		.4byte	.LVL141
 4755 08b3 92000000 		.4byte	.LVL142
 4756 08b7 0100     		.2byte	0x1
 4757 08b9 53       		.byte	0x53
 4758 08ba 96000000 		.4byte	.LVL143
 4759 08be A6000000 		.4byte	.LVL144
 4760 08c2 0100     		.2byte	0x1
 4761 08c4 53       		.byte	0x53
 4762 08c5 00000000 		.4byte	0
 4763 08c9 00000000 		.4byte	0
 4764              	.LLST41:
 4765 08cd 8A000000 		.4byte	.LVL138
 4766 08d1 92000000 		.4byte	.LVL142
 4767 08d5 0100     		.2byte	0x1
 4768 08d7 51       		.byte	0x51
 4769 08d8 00000000 		.4byte	0
 4770 08dc 00000000 		.4byte	0
 4771              	.LLST42:
 4772 08e0 3C000000 		.4byte	.LVL131
 4773 08e4 49000000 		.4byte	.LVL132-1
 4774 08e8 0100     		.2byte	0x1
 4775 08ea 50       		.byte	0x50
 4776 08eb 5E000000 		.4byte	.LVL134
 4777 08ef 7B000000 		.4byte	.LVL135-1
 4778 08f3 0100     		.2byte	0x1
 4779 08f5 50       		.byte	0x50
 4780 08f6 88010000 		.4byte	.LVL167
 4781 08fa AE010000 		.4byte	.LVL169
 4782 08fe 0100     		.2byte	0x1
 4783 0900 50       		.byte	0x50
 4784 0901 96020000 		.4byte	.LVL192
 4785 0905 98020000 		.4byte	.LVL193
 4786 0909 0100     		.2byte	0x1
 4787 090b 50       		.byte	0x50
 4788 090c A6020000 		.4byte	.LVL197
 4789 0910 A8020000 		.4byte	.LVL198
 4790 0914 0100     		.2byte	0x1
 4791 0916 50       		.byte	0x50
 4792 0917 00000000 		.4byte	0
 4793 091b 00000000 		.4byte	0
 4794              		.section	.debug_aranges,"",%progbits
 4795 0000 7C000000 		.4byte	0x7c
 4796 0004 0200     		.2byte	0x2
 4797 0006 00000000 		.4byte	.Ldebug_info0
 4798 000a 04       		.byte	0x4
 4799 000b 00       		.byte	0
 4800 000c 0000     		.2byte	0
 4801 000e 0000     		.2byte	0
 4802 0010 00000000 		.4byte	.LFB162
 4803 0014 64000000 		.4byte	.LFE162-.LFB162
 4804 0018 00000000 		.4byte	.LFB163
 4805 001c CC000000 		.4byte	.LFE163-.LFB163
 4806 0020 00000000 		.4byte	.LFB164
 4807 0024 44000000 		.4byte	.LFE164-.LFB164
 4808 0028 00000000 		.4byte	.LFB167
ARM GAS  C:\Users\TERENC~1\AppData\Local\Temp\ccVnttLg.s 			page 111


 4809 002c 28000000 		.4byte	.LFE167-.LFB167
 4810 0030 00000000 		.4byte	.LFB166
 4811 0034 7C010000 		.4byte	.LFE166-.LFB166
 4812 0038 00000000 		.4byte	.LFB168
 4813 003c 18000000 		.4byte	.LFE168-.LFB168
 4814 0040 00000000 		.4byte	.LFB169
 4815 0044 28000000 		.4byte	.LFE169-.LFB169
 4816 0048 00000000 		.4byte	.LFB165
 4817 004c C0010000 		.4byte	.LFE165-.LFB165
 4818 0050 00000000 		.4byte	.LFB170
 4819 0054 54000000 		.4byte	.LFE170-.LFB170
 4820 0058 00000000 		.4byte	.LFB171
 4821 005c 6C000000 		.4byte	.LFE171-.LFB171
 4822 0060 00000000 		.4byte	.LFB172
 4823 0064 B0000000 		.4byte	.LFE172-.LFB172
 4824 0068 00000000 		.4byte	.LFB173
 4825 006c 50000000 		.4byte	.LFE173-.LFB173
 4826 0070 00000000 		.4byte	.LFB161
 4827 0074 10030000 		.4byte	.LFE161-.LFB161
 4828 0078 00000000 		.4byte	0
 4829 007c 00000000 		.4byte	0
 4830              		.section	.debug_ranges,"",%progbits
 4831              	.Ldebug_ranges0:
 4832 0000 00000000 		.4byte	.LFB162
 4833 0004 64000000 		.4byte	.LFE162
 4834 0008 00000000 		.4byte	.LFB163
 4835 000c CC000000 		.4byte	.LFE163
 4836 0010 00000000 		.4byte	.LFB164
 4837 0014 44000000 		.4byte	.LFE164
 4838 0018 00000000 		.4byte	.LFB167
 4839 001c 28000000 		.4byte	.LFE167
 4840 0020 00000000 		.4byte	.LFB166
 4841 0024 7C010000 		.4byte	.LFE166
 4842 0028 00000000 		.4byte	.LFB168
 4843 002c 18000000 		.4byte	.LFE168
 4844 0030 00000000 		.4byte	.LFB169
 4845 0034 28000000 		.4byte	.LFE169
 4846 0038 00000000 		.4byte	.LFB165
 4847 003c C0010000 		.4byte	.LFE165
 4848 0040 00000000 		.4byte	.LFB170
 4849 0044 54000000 		.4byte	.LFE170
 4850 0048 00000000 		.4byte	.LFB171
 4851 004c 6C000000 		.4byte	.LFE171
 4852 0050 00000000 		.4byte	.LFB172
 4853 0054 B0000000 		.4byte	.LFE172
 4854 0058 00000000 		.4byte	.LFB173
 4855 005c 50000000 		.4byte	.LFE173
 4856 0060 00000000 		.4byte	.LFB161
 4857 0064 10030000 		.4byte	.LFE161
 4858 0068 00000000 		.4byte	0
 4859 006c 00000000 		.4byte	0
 4860              		.section	.debug_line,"",%progbits
 4861              	.Ldebug_line0:
 4862 0000 A8030000 		.section	.debug_str,"MS",%progbits,1
 4862      02006B00 
 4862      00000201 
 4862      FB0E0D00 
ARM GAS  C:\Users\TERENC~1\AppData\Local\Temp\ccVnttLg.s 			page 112


 4862      01010101 
 4863              	.LASF38:
 4864 0000 70537461 		.ascii	"pStatusBlock\000"
 4864      74757342 
 4864      6C6F636B 
 4864      00
 4865              	.LASF36:
 4866 000d 636F756E 		.ascii	"count\000"
 4866      7400
 4867              	.LASF10:
 4868 0013 75696E74 		.ascii	"uint16\000"
 4868      313600
 4869              	.LASF80:
 4870 001a 55534246 		.ascii	"USBFS_TerminateEP\000"
 4870      535F5465 
 4870      726D696E 
 4870      61746545 
 4870      5000
 4871              	.LASF110:
 4872 002c 55534246 		.ascii	"USBFS_currentTD\000"
 4872      535F6375 
 4872      7272656E 
 4872      74544400 
 4873              	.LASF113:
 4874 003c 55534246 		.ascii	"USBFS_InitControlRead\000"
 4874      535F496E 
 4874      6974436F 
 4874      6E74726F 
 4874      6C526561 
 4875              	.LASF115:
 4876 0052 474E5520 		.ascii	"GNU C11 5.4.1 20160609 (release) [ARM/embedded-5-br"
 4876      43313120 
 4876      352E342E 
 4876      31203230 
 4876      31363036 
 4877 0085 616E6368 		.ascii	"anch revision 237715] -mcpu=cortex-m0 -mthumb -g -O"
 4877      20726576 
 4877      6973696F 
 4877      6E203233 
 4877      37373135 
 4878 00b8 67202D66 		.ascii	"g -ffunction-sections -ffat-lto-objects\000"
 4878      66756E63 
 4878      74696F6E 
 4878      2D736563 
 4878      74696F6E 
 4879              	.LASF68:
 4880 00e0 636F6E66 		.ascii	"confIndex\000"
 4880      496E6465 
 4880      7800
 4881              	.LASF7:
 4882 00ea 6C6F6E67 		.ascii	"long long unsigned int\000"
 4882      206C6F6E 
 4882      6720756E 
 4882      7369676E 
 4882      65642069 
 4883              	.LASF23:
 4884 0101 61646472 		.ascii	"addr\000"
ARM GAS  C:\Users\TERENC~1\AppData\Local\Temp\ccVnttLg.s 			page 113


 4884      00
 4885              	.LASF43:
 4886 0106 55534246 		.ascii	"USBFS_ep0_data_struct\000"
 4886      535F6570 
 4886      305F6461 
 4886      74615F73 
 4886      74727563 
 4887              	.LASF48:
 4888 011c 65704366 		.ascii	"epCfg\000"
 4888      6700
 4889              	.LASF59:
 4890 0122 55534246 		.ascii	"USBFS_sie_eps_struct\000"
 4890      535F7369 
 4890      655F6570 
 4890      735F7374 
 4890      72756374 
 4891              	.LASF116:
 4892 0137 47656E65 		.ascii	"Generated_Source\\PSoC4\\USBFS_std.c\000"
 4892      72617465 
 4892      645F536F 
 4892      75726365 
 4892      5C50536F 
 4893              	.LASF61:
 4894 015a 55534246 		.ascii	"USBFS_arb_eps_struct\000"
 4894      535F6172 
 4894      625F6570 
 4894      735F7374 
 4894      72756374 
 4895              	.LASF81:
 4896 016f 65704E75 		.ascii	"epNumber\000"
 4896      6D626572 
 4896      00
 4897              	.LASF6:
 4898 0178 6C6F6E67 		.ascii	"long long int\000"
 4898      206C6F6E 
 4898      6720696E 
 4898      7400
 4899              	.LASF0:
 4900 0186 7369676E 		.ascii	"signed char\000"
 4900      65642063 
 4900      68617200 
 4901              	.LASF94:
 4902 0192 55534246 		.ascii	"USBFS_tBuffer\000"
 4902      535F7442 
 4902      75666665 
 4902      7200
 4903              	.LASF63:
 4904 01a0 55534246 		.ascii	"USBFS_ReadDieID\000"
 4904      535F5265 
 4904      61644469 
 4904      65494400 
 4905              	.LASF106:
 4906 01b0 55534246 		.ascii	"USBFS_deviceAddress\000"
 4906      535F6465 
 4906      76696365 
 4906      41646472 
 4906      65737300 
ARM GAS  C:\Users\TERENC~1\AppData\Local\Temp\ccVnttLg.s 			page 114


 4907              	.LASF84:
 4908 01c4 55534246 		.ascii	"USBFS_ClearEndpointHalt\000"
 4908      535F436C 
 4908      65617245 
 4908      6E64706F 
 4908      696E7448 
 4909              	.LASF103:
 4910 01dc 55534246 		.ascii	"USBFS_interfaceNumber\000"
 4910      535F696E 
 4910      74657266 
 4910      6163654E 
 4910      756D6265 
 4911              	.LASF77:
 4912 01f2 55534246 		.ascii	"USBFS_Config\000"
 4912      535F436F 
 4912      6E666967 
 4912      00
 4913              	.LASF57:
 4914 01ff 55534246 		.ascii	"USBFS_arb_ep_struct\000"
 4914      535F6172 
 4914      625F6570 
 4914      5F737472 
 4914      75637400 
 4915              	.LASF64:
 4916 0213 55534246 		.ascii	"USBFS_ConfigReg\000"
 4916      535F436F 
 4916      6E666967 
 4916      52656700 
 4917              	.LASF4:
 4918 0223 6C6F6E67 		.ascii	"long int\000"
 4918      20696E74 
 4918      00
 4919              	.LASF9:
 4920 022c 75696E74 		.ascii	"uint8\000"
 4920      3800
 4921              	.LASF22:
 4922 0232 6570546F 		.ascii	"epToggle\000"
 4922      67676C65 
 4922      00
 4923              	.LASF52:
 4924 023b 72775761 		.ascii	"rwWa\000"
 4924      00
 4925              	.LASF13:
 4926 0240 646F7562 		.ascii	"double\000"
 4926      6C6500
 4927              	.LASF50:
 4928 0247 65705372 		.ascii	"epSr\000"
 4928      00
 4929              	.LASF32:
 4930 024c 545F5553 		.ascii	"T_USBFS_EP_SETTINGS_BLOCK\000"
 4930      4246535F 
 4930      45505F53 
 4930      45545449 
 4930      4E47535F 
 4931              	.LASF82:
 4932 0266 55534246 		.ascii	"USBFS_SetEndpointHalt\000"
 4932      535F5365 
ARM GAS  C:\Users\TERENC~1\AppData\Local\Temp\ccVnttLg.s 			page 115


 4932      74456E64 
 4932      706F696E 
 4932      7448616C 
 4933              	.LASF11:
 4934 027c 75696E74 		.ascii	"uint32\000"
 4934      333200
 4935              	.LASF37:
 4936 0283 70446174 		.ascii	"pData\000"
 4936      6100
 4937              	.LASF58:
 4938 0289 73696545 		.ascii	"sieEp\000"
 4938      7000
 4939              	.LASF24:
 4940 028f 65704D6F 		.ascii	"epMode\000"
 4940      646500
 4941              	.LASF65:
 4942 0296 65705479 		.ascii	"epType\000"
 4942      706500
 4943              	.LASF90:
 4944 029d 626D5265 		.ascii	"bmRequestType\000"
 4944      71756573 
 4944      74547970 
 4944      6500
 4945              	.LASF51:
 4946 02ab 72657365 		.ascii	"reserved\000"
 4946      72766564 
 4946      00
 4947              	.LASF111:
 4948 02b4 43794765 		.ascii	"CyGetUniqueId\000"
 4948      74556E69 
 4948      71756549 
 4948      6400
 4949              	.LASF8:
 4950 02c2 756E7369 		.ascii	"unsigned int\000"
 4950      676E6564 
 4950      20696E74 
 4950      00
 4951              	.LASF5:
 4952 02cf 6C6F6E67 		.ascii	"long unsigned int\000"
 4952      20756E73 
 4952      69676E65 
 4952      6420696E 
 4952      7400
 4953              	.LASF74:
 4954 02e1 55534246 		.ascii	"USBFS_GetInterfaceClassTablePtr\000"
 4954      535F4765 
 4954      74496E74 
 4954      65726661 
 4954      6365436C 
 4955              	.LASF96:
 4956 0301 55534246 		.ascii	"USBFS_configuration\000"
 4956      535F636F 
 4956      6E666967 
 4956      75726174 
 4956      696F6E00 
 4957              	.LASF3:
 4958 0315 73686F72 		.ascii	"short unsigned int\000"
ARM GAS  C:\Users\TERENC~1\AppData\Local\Temp\ccVnttLg.s 			page 116


 4958      7420756E 
 4958      7369676E 
 4958      65642069 
 4958      6E7400
 4959              	.LASF79:
 4960 0328 70446573 		.ascii	"pDescr\000"
 4960      637200
 4961              	.LASF47:
 4962 032f 55534246 		.ascii	"USBFS_sie_ep_struct\000"
 4962      535F7369 
 4962      655F6570 
 4962      5F737472 
 4962      75637400 
 4963              	.LASF75:
 4964 0343 70496E74 		.ascii	"pInterfaceClass\000"
 4964      65726661 
 4964      6365436C 
 4964      61737300 
 4965              	.LASF60:
 4966 0353 61726245 		.ascii	"arbEp\000"
 4966      7000
 4967              	.LASF27:
 4968 0359 696E7465 		.ascii	"interface\000"
 4968      72666163 
 4968      6500
 4969              	.LASF85:
 4970 0363 55534246 		.ascii	"USBFS_ValidateAlternateSetting\000"
 4970      535F5661 
 4970      6C696461 
 4970      7465416C 
 4970      7465726E 
 4971              	.LASF97:
 4972 0382 55534246 		.ascii	"USBFS_configurationChanged\000"
 4972      535F636F 
 4972      6E666967 
 4972      75726174 
 4972      696F6E43 
 4973              	.LASF16:
 4974 039d 72656733 		.ascii	"reg32\000"
 4974      3200
 4975              	.LASF108:
 4976 03a3 55534246 		.ascii	"USBFS_interfaceClass\000"
 4976      535F696E 
 4976      74657266 
 4976      61636543 
 4976      6C617373 
 4977              	.LASF71:
 4978 03b8 63757245 		.ascii	"curEp\000"
 4978      7000
 4979              	.LASF21:
 4980 03be 68774570 		.ascii	"hwEpState\000"
 4980      53746174 
 4980      6500
 4981              	.LASF93:
 4982 03c8 64657363 		.ascii	"descrLength\000"
 4982      724C656E 
 4982      67746800 
ARM GAS  C:\Users\TERENC~1\AppData\Local\Temp\ccVnttLg.s 			page 117


 4983              	.LASF18:
 4984 03d4 73697A65 		.ascii	"sizetype\000"
 4984      74797065 
 4984      00
 4985              	.LASF17:
 4986 03dd 6C6F6E67 		.ascii	"long double\000"
 4986      20646F75 
 4986      626C6500 
 4987              	.LASF69:
 4988 03e9 70546D70 		.ascii	"pTmp\000"
 4988      00
 4989              	.LASF40:
 4990 03ee 705F6C69 		.ascii	"p_list\000"
 4990      737400
 4991              	.LASF19:
 4992 03f5 61747472 		.ascii	"attrib\000"
 4992      696200
 4993              	.LASF100:
 4994 03fc 55534246 		.ascii	"USBFS_TABLE\000"
 4994      535F5441 
 4994      424C4500 
 4995              	.LASF55:
 4996 0408 72775261 		.ascii	"rwRaMsb\000"
 4996      4D736200 
 4997              	.LASF44:
 4998 0410 6570436E 		.ascii	"epCnt0\000"
 4998      743000
 4999              	.LASF45:
 5000 0417 6570436E 		.ascii	"epCnt1\000"
 5000      743100
 5001              	.LASF70:
 5002 041e 55534246 		.ascii	"USBFS_ConfigAltChanged\000"
 5002      535F436F 
 5002      6E666967 
 5002      416C7443 
 5002      68616E67 
 5003              	.LASF35:
 5004 0435 545F5553 		.ascii	"T_USBFS_XFER_STATUS_BLOCK\000"
 5004      4246535F 
 5004      58464552 
 5004      5F535441 
 5004      5455535F 
 5005              	.LASF46:
 5006 044f 65704372 		.ascii	"epCr0\000"
 5006      3000
 5007              	.LASF72:
 5008 0455 696E7465 		.ascii	"interfaceNum\000"
 5008      72666163 
 5008      654E756D 
 5008      00
 5009              	.LASF99:
 5010 0462 55534246 		.ascii	"USBFS_DEVICE0_DESCR\000"
 5010      535F4445 
 5010      56494345 
 5010      305F4445 
 5010      53435200 
 5011              	.LASF12:
ARM GAS  C:\Users\TERENC~1\AppData\Local\Temp\ccVnttLg.s 			page 118


 5012 0476 666C6F61 		.ascii	"float\000"
 5012      7400
 5013              	.LASF101:
 5014 047c 55534246 		.ascii	"USBFS_STRING_DESCRIPTORS\000"
 5014      535F5354 
 5014      52494E47 
 5014      5F444553 
 5014      43524950 
 5015              	.LASF20:
 5016 0495 61706945 		.ascii	"apiEpState\000"
 5016      70537461 
 5016      746500
 5017              	.LASF78:
 5018 04a0 636C6561 		.ascii	"clearAltSetting\000"
 5018      72416C74 
 5018      53657474 
 5018      696E6700 
 5019              	.LASF89:
 5020 04b0 636F6E66 		.ascii	"configurationN\000"
 5020      69677572 
 5020      6174696F 
 5020      6E4E00
 5021              	.LASF109:
 5022 04bf 55534246 		.ascii	"USBFS_EP\000"
 5022      535F4550 
 5022      00
 5023              	.LASF91:
 5024 04c8 70537472 		.ascii	"pStr\000"
 5024      00
 5025              	.LASF67:
 5026 04cd 64657363 		.ascii	"descr\000"
 5026      7200
 5027              	.LASF1:
 5028 04d3 756E7369 		.ascii	"unsigned char\000"
 5028      676E6564 
 5028      20636861 
 5028      7200
 5029              	.LASF66:
 5030 04e1 55534246 		.ascii	"USBFS_EpStateInit\000"
 5030      535F4570 
 5030      53746174 
 5030      65496E69 
 5030      7400
 5031              	.LASF2:
 5032 04f3 73686F72 		.ascii	"short int\000"
 5032      7420696E 
 5032      7400
 5033              	.LASF39:
 5034 04fd 545F5553 		.ascii	"T_USBFS_TD\000"
 5034      4246535F 
 5034      544400
 5035              	.LASF73:
 5036 0508 55534246 		.ascii	"USBFS_GetConfigTablePtr\000"
 5036      535F4765 
 5036      74436F6E 
 5036      66696754 
 5036      61626C65 
ARM GAS  C:\Users\TERENC~1\AppData\Local\Temp\ccVnttLg.s 			page 119


 5037              	.LASF54:
 5038 0520 72775261 		.ascii	"rwRa\000"
 5038      00
 5039              	.LASF104:
 5040 0525 55534246 		.ascii	"USBFS_interfaceSetting\000"
 5040      535F696E 
 5040      74657266 
 5040      61636553 
 5040      65747469 
 5041              	.LASF28:
 5042 053c 545F5553 		.ascii	"T_USBFS_EP_CTL_BLOCK\000"
 5042      4246535F 
 5042      45505F43 
 5042      544C5F42 
 5042      4C4F434B 
 5043              	.LASF112:
 5044 0551 55534246 		.ascii	"USBFS_InitNoDataControlTransfer\000"
 5044      535F496E 
 5044      69744E6F 
 5044      44617461 
 5044      436F6E74 
 5045              	.LASF95:
 5046 0571 55534246 		.ascii	"USBFS_device\000"
 5046      535F6465 
 5046      76696365 
 5046      00
 5047              	.LASF30:
 5048 057e 61747472 		.ascii	"attributes\000"
 5048      69627574 
 5048      657300
 5049              	.LASF118:
 5050 0589 55534246 		.ascii	"USBFS_GetDeviceTablePtr\000"
 5050      535F4765 
 5050      74446576 
 5050      69636554 
 5050      61626C65 
 5051              	.LASF117:
 5052 05a1 433A5C64 		.ascii	"C:\\dev\\git\\Icebreaker\\Icebreaker.cydsn\000"
 5052      65765C67 
 5052      69745C49 
 5052      63656272 
 5052      65616B65 
 5053              	.LASF29:
 5054 05c8 616C7453 		.ascii	"altSetting\000"
 5054      65747469 
 5054      6E6700
 5055              	.LASF15:
 5056 05d3 63686172 		.ascii	"char\000"
 5056      00
 5057              	.LASF26:
 5058 05d8 62756666 		.ascii	"bufferSize\000"
 5058      65725369 
 5058      7A6500
 5059              	.LASF83:
 5060 05e3 72657175 		.ascii	"requestHandled\000"
 5060      65737448 
 5060      616E646C 
ARM GAS  C:\Users\TERENC~1\AppData\Local\Temp\ccVnttLg.s 			page 120


 5060      656400
 5061              	.LASF76:
 5062 05f2 63757272 		.ascii	"currentInterfacesNum\000"
 5062      656E7449 
 5062      6E746572 
 5062      66616365 
 5062      734E756D 
 5063              	.LASF25:
 5064 0607 62756666 		.ascii	"buffOffset\000"
 5064      4F666673 
 5064      657400
 5065              	.LASF14:
 5066 0612 63686172 		.ascii	"char8\000"
 5066      3800
 5067              	.LASF62:
 5068 0618 756E6971 		.ascii	"uniqueId\000"
 5068      75654964 
 5068      00
 5069              	.LASF88:
 5070 0621 696E7465 		.ascii	"interfaceNumber\000"
 5070      72666163 
 5070      654E756D 
 5070      62657200 
 5071              	.LASF98:
 5072 0631 55534246 		.ascii	"USBFS_deviceStatus\000"
 5072      535F6465 
 5072      76696365 
 5072      53746174 
 5072      757300
 5073              	.LASF34:
 5074 0644 6C656E67 		.ascii	"length\000"
 5074      746800
 5075              	.LASF92:
 5076 064b 6E537472 		.ascii	"nStr\000"
 5076      00
 5077              	.LASF102:
 5078 0650 55534246 		.ascii	"USBFS_idSerialNumberStringDescriptor\000"
 5078      535F6964 
 5078      53657269 
 5078      616C4E75 
 5078      6D626572 
 5079              	.LASF33:
 5080 0675 73746174 		.ascii	"status\000"
 5080      757300
 5081              	.LASF114:
 5082 067c 55534246 		.ascii	"USBFS_DispatchClassRqst\000"
 5082      535F4469 
 5082      73706174 
 5082      6368436C 
 5082      61737352 
 5083              	.LASF56:
 5084 0694 72774472 		.ascii	"rwDr\000"
 5084      00
 5085              	.LASF86:
 5086 0699 63757249 		.ascii	"curInterfacesNum\000"
 5086      6E746572 
 5086      66616365 
ARM GAS  C:\Users\TERENC~1\AppData\Local\Temp\ccVnttLg.s 			page 121


 5086      734E756D 
 5086      00
 5087              	.LASF42:
 5088 06aa 65704461 		.ascii	"epData\000"
 5088      746100
 5089              	.LASF31:
 5090 06b1 624D6973 		.ascii	"bMisc\000"
 5090      6300
 5091              	.LASF53:
 5092 06b7 72775761 		.ascii	"rwWaMsb\000"
 5092      4D736200 
 5093              	.LASF107:
 5094 06bf 55534246 		.ascii	"USBFS_interfaceStatus\000"
 5094      535F696E 
 5094      74657266 
 5094      61636553 
 5094      74617475 
 5095              	.LASF49:
 5096 06d5 6570496E 		.ascii	"epIntEn\000"
 5096      74456E00 
 5097              	.LASF105:
 5098 06dd 55534246 		.ascii	"USBFS_interfaceSettingLast\000"
 5098      535F696E 
 5098      74657266 
 5098      61636553 
 5098      65747469 
 5099              	.LASF87:
 5100 06f8 55534246 		.ascii	"USBFS_HandleStandardRqst\000"
 5100      535F4861 
 5100      6E646C65 
 5100      5374616E 
 5100      64617264 
 5101              	.LASF41:
 5102 0711 545F5553 		.ascii	"T_USBFS_LUT\000"
 5102      4246535F 
 5102      4C555400 
 5103              		.ident	"GCC: (GNU Tools for ARM Embedded Processors) 5.4.1 20160609 (release) [ARM/embedded-5-bran
