ARM GAS  C:\Users\TERENC~1\AppData\Local\Temp\ccPNrapd.s 			page 1


   1              		.syntax unified
   2              		.cpu cortex-m0
   3              		.fpu softvfp
   4              		.eabi_attribute 20, 1
   5              		.eabi_attribute 21, 1
   6              		.eabi_attribute 23, 3
   7              		.eabi_attribute 24, 1
   8              		.eabi_attribute 25, 1
   9              		.eabi_attribute 26, 1
  10              		.eabi_attribute 30, 1
  11              		.eabi_attribute 34, 0
  12              		.eabi_attribute 18, 4
  13              		.thumb
  14              		.syntax unified
  15              		.file	"USBFS_pm.c"
  16              		.text
  17              	.Ltext0:
  18              		.cfi_sections	.debug_frame
  19              		.section	.text.USBFS_DP_ISR,"ax",%progbits
  20              		.align	2
  21              		.global	USBFS_DP_ISR
  22              		.code	16
  23              		.thumb_func
  24              		.type	USBFS_DP_ISR, %function
  25              	USBFS_DP_ISR:
  26              	.LFB161:
  27              		.file 1 "Generated_Source\\PSoC4\\USBFS_pm.c"
   1:Generated_Source\PSoC4/USBFS_pm.c **** /***************************************************************************//**
   2:Generated_Source\PSoC4/USBFS_pm.c **** * \file USBFS_pm.c
   3:Generated_Source\PSoC4/USBFS_pm.c **** * \version 3.20
   4:Generated_Source\PSoC4/USBFS_pm.c **** *
   5:Generated_Source\PSoC4/USBFS_pm.c **** * \brief
   6:Generated_Source\PSoC4/USBFS_pm.c **** *  This file provides Suspend/Resume APIs implementation.
   7:Generated_Source\PSoC4/USBFS_pm.c **** *
   8:Generated_Source\PSoC4/USBFS_pm.c **** ********************************************************************************
   9:Generated_Source\PSoC4/USBFS_pm.c **** * \copyright
  10:Generated_Source\PSoC4/USBFS_pm.c **** * Copyright 2008-2016, Cypress Semiconductor Corporation.  All rights reserved.
  11:Generated_Source\PSoC4/USBFS_pm.c **** * You may use this file only in accordance with the license, terms, conditions,
  12:Generated_Source\PSoC4/USBFS_pm.c **** * disclaimers, and limitations in the end user license agreement accompanying
  13:Generated_Source\PSoC4/USBFS_pm.c **** * the software package with which this file was provided.
  14:Generated_Source\PSoC4/USBFS_pm.c **** *******************************************************************************/
  15:Generated_Source\PSoC4/USBFS_pm.c **** 
  16:Generated_Source\PSoC4/USBFS_pm.c **** #include "USBFS_pvt.h"
  17:Generated_Source\PSoC4/USBFS_pm.c **** #include "USBFS_Dp.h"
  18:Generated_Source\PSoC4/USBFS_pm.c **** #include "cyapicallbacks.h"
  19:Generated_Source\PSoC4/USBFS_pm.c **** 
  20:Generated_Source\PSoC4/USBFS_pm.c **** /***************************************
  21:Generated_Source\PSoC4/USBFS_pm.c **** * Custom Declarations
  22:Generated_Source\PSoC4/USBFS_pm.c **** ***************************************/
  23:Generated_Source\PSoC4/USBFS_pm.c **** /* `#START PM_CUSTOM_DECLARATIONS` Place your declaration here */
  24:Generated_Source\PSoC4/USBFS_pm.c **** 
  25:Generated_Source\PSoC4/USBFS_pm.c **** /* `#END` */
  26:Generated_Source\PSoC4/USBFS_pm.c **** 
  27:Generated_Source\PSoC4/USBFS_pm.c **** 
  28:Generated_Source\PSoC4/USBFS_pm.c **** /***************************************
  29:Generated_Source\PSoC4/USBFS_pm.c **** * Local data allocation
  30:Generated_Source\PSoC4/USBFS_pm.c **** ***************************************/
ARM GAS  C:\Users\TERENC~1\AppData\Local\Temp\ccPNrapd.s 			page 2


  31:Generated_Source\PSoC4/USBFS_pm.c **** 
  32:Generated_Source\PSoC4/USBFS_pm.c **** static USBFS_BACKUP_STRUCT  USBFS_backup;
  33:Generated_Source\PSoC4/USBFS_pm.c **** 
  34:Generated_Source\PSoC4/USBFS_pm.c **** #if (USBFS_DP_ISR_ACTIVE)
  35:Generated_Source\PSoC4/USBFS_pm.c ****     /*******************************************************************************
  36:Generated_Source\PSoC4/USBFS_pm.c ****     * Function Name: USBFS_DP_ISR
  37:Generated_Source\PSoC4/USBFS_pm.c ****     ****************************************************************************//**
  38:Generated_Source\PSoC4/USBFS_pm.c ****     *
  39:Generated_Source\PSoC4/USBFS_pm.c ****     *  This Interrupt Service Routine handles DP pin changes for wake-up from
  40:Generated_Source\PSoC4/USBFS_pm.c ****     *  the sleep mode.
  41:Generated_Source\PSoC4/USBFS_pm.c ****     *
  42:Generated_Source\PSoC4/USBFS_pm.c ****     *******************************************************************************/
  43:Generated_Source\PSoC4/USBFS_pm.c ****     CY_ISR(USBFS_DP_ISR)
  44:Generated_Source\PSoC4/USBFS_pm.c ****     {
  28              		.loc 1 44 0
  29              		.cfi_startproc
  30              		@ args = 0, pretend = 0, frame = 0
  31              		@ frame_needed = 0, uses_anonymous_args = 0
  32 0000 10B5     		push	{r4, lr}
  33              		.cfi_def_cfa_offset 8
  34              		.cfi_offset 4, -8
  35              		.cfi_offset 14, -4
  45:Generated_Source\PSoC4/USBFS_pm.c ****     #ifdef USBFS_DP_ISR_ENTRY_CALLBACK
  46:Generated_Source\PSoC4/USBFS_pm.c ****         USBFS_DP_ISR_EntryCallback();
  47:Generated_Source\PSoC4/USBFS_pm.c ****     #endif /* (USBFS_DP_ISR_ENTRY_CALLBACK) */
  48:Generated_Source\PSoC4/USBFS_pm.c **** 
  49:Generated_Source\PSoC4/USBFS_pm.c ****         /* `#START DP_USER_CODE` Place your code here */
  50:Generated_Source\PSoC4/USBFS_pm.c **** 
  51:Generated_Source\PSoC4/USBFS_pm.c ****         /* `#END` */
  52:Generated_Source\PSoC4/USBFS_pm.c **** 
  53:Generated_Source\PSoC4/USBFS_pm.c ****         (void) USBFS_Dp_ClearInterrupt();
  36              		.loc 1 53 0
  37 0002 FFF7FEFF 		bl	USBFS_Dp_ClearInterrupt
  38              	.LVL0:
  54:Generated_Source\PSoC4/USBFS_pm.c **** 		
  55:Generated_Source\PSoC4/USBFS_pm.c **** 	#ifdef USBFS_DP_ISR_EXIT_CALLBACK
  56:Generated_Source\PSoC4/USBFS_pm.c ****         USBFS_DP_ISR_ExitCallback();
  57:Generated_Source\PSoC4/USBFS_pm.c ****     #endif /* (USBFS_DP_ISR_EXIT_CALLBACK) */
  58:Generated_Source\PSoC4/USBFS_pm.c ****     }
  39              		.loc 1 58 0
  40              		@ sp needed
  41 0006 10BD     		pop	{r4, pc}
  42              		.cfi_endproc
  43              	.LFE161:
  44              		.size	USBFS_DP_ISR, .-USBFS_DP_ISR
  45              		.section	.text.USBFS_SaveConfig,"ax",%progbits
  46              		.align	2
  47              		.global	USBFS_SaveConfig
  48              		.code	16
  49              		.thumb_func
  50              		.type	USBFS_SaveConfig, %function
  51              	USBFS_SaveConfig:
  52              	.LFB162:
  59:Generated_Source\PSoC4/USBFS_pm.c **** #endif /* (USBFS_DP_ISR_ACTIVE) */
  60:Generated_Source\PSoC4/USBFS_pm.c **** 
  61:Generated_Source\PSoC4/USBFS_pm.c **** 
  62:Generated_Source\PSoC4/USBFS_pm.c **** /*******************************************************************************
ARM GAS  C:\Users\TERENC~1\AppData\Local\Temp\ccPNrapd.s 			page 3


  63:Generated_Source\PSoC4/USBFS_pm.c **** * Function Name: USBFS_SaveConfig
  64:Generated_Source\PSoC4/USBFS_pm.c **** ****************************************************************************//**
  65:Generated_Source\PSoC4/USBFS_pm.c **** *
  66:Generated_Source\PSoC4/USBFS_pm.c **** *  Saves the current user configuration.
  67:Generated_Source\PSoC4/USBFS_pm.c **** *
  68:Generated_Source\PSoC4/USBFS_pm.c **** * \reentrant
  69:Generated_Source\PSoC4/USBFS_pm.c **** *  No.
  70:Generated_Source\PSoC4/USBFS_pm.c **** *
  71:Generated_Source\PSoC4/USBFS_pm.c **** *******************************************************************************/
  72:Generated_Source\PSoC4/USBFS_pm.c **** void USBFS_SaveConfig(void) 
  73:Generated_Source\PSoC4/USBFS_pm.c **** {
  53              		.loc 1 73 0
  54              		.cfi_startproc
  55              		@ args = 0, pretend = 0, frame = 0
  56              		@ frame_needed = 0, uses_anonymous_args = 0
  57              		@ link register save eliminated.
  74:Generated_Source\PSoC4/USBFS_pm.c ****     /* Empty function added for the compatibility purpose. */
  75:Generated_Source\PSoC4/USBFS_pm.c **** }
  58              		.loc 1 75 0
  59              		@ sp needed
  60 0000 7047     		bx	lr
  61              		.cfi_endproc
  62              	.LFE162:
  63              		.size	USBFS_SaveConfig, .-USBFS_SaveConfig
  64 0002 C046     		.section	.text.USBFS_RestoreConfig,"ax",%progbits
  65              		.align	2
  66              		.global	USBFS_RestoreConfig
  67              		.code	16
  68              		.thumb_func
  69              		.type	USBFS_RestoreConfig, %function
  70              	USBFS_RestoreConfig:
  71              	.LFB163:
  76:Generated_Source\PSoC4/USBFS_pm.c **** 
  77:Generated_Source\PSoC4/USBFS_pm.c **** 
  78:Generated_Source\PSoC4/USBFS_pm.c **** /*******************************************************************************
  79:Generated_Source\PSoC4/USBFS_pm.c **** * Function Name: USBFS_RestoreConfig
  80:Generated_Source\PSoC4/USBFS_pm.c **** ****************************************************************************//**
  81:Generated_Source\PSoC4/USBFS_pm.c **** *
  82:Generated_Source\PSoC4/USBFS_pm.c **** *  Restores the current user configuration.
  83:Generated_Source\PSoC4/USBFS_pm.c **** *
  84:Generated_Source\PSoC4/USBFS_pm.c **** * \reentrant
  85:Generated_Source\PSoC4/USBFS_pm.c **** *  No.
  86:Generated_Source\PSoC4/USBFS_pm.c **** *
  87:Generated_Source\PSoC4/USBFS_pm.c **** *******************************************************************************/
  88:Generated_Source\PSoC4/USBFS_pm.c **** void USBFS_RestoreConfig(void) 
  89:Generated_Source\PSoC4/USBFS_pm.c **** {
  72              		.loc 1 89 0
  73              		.cfi_startproc
  74              		@ args = 0, pretend = 0, frame = 0
  75              		@ frame_needed = 0, uses_anonymous_args = 0
  76 0000 10B5     		push	{r4, lr}
  77              		.cfi_def_cfa_offset 8
  78              		.cfi_offset 4, -8
  79              		.cfi_offset 14, -4
  90:Generated_Source\PSoC4/USBFS_pm.c ****     if (USBFS_configuration != 0u)
  80              		.loc 1 90 0
  81 0002 044B     		ldr	r3, .L5
ARM GAS  C:\Users\TERENC~1\AppData\Local\Temp\ccPNrapd.s 			page 4


  82 0004 1B78     		ldrb	r3, [r3]
  83 0006 002B     		cmp	r3, #0
  84 0008 03D0     		beq	.L3
  91:Generated_Source\PSoC4/USBFS_pm.c ****     {
  92:Generated_Source\PSoC4/USBFS_pm.c ****         USBFS_ConfigReg();
  85              		.loc 1 92 0
  86 000a FFF7FEFF 		bl	USBFS_ConfigReg
  87              	.LVL1:
  93:Generated_Source\PSoC4/USBFS_pm.c ****         USBFS_EpStateInit();
  88              		.loc 1 93 0
  89 000e FFF7FEFF 		bl	USBFS_EpStateInit
  90              	.LVL2:
  91              	.L3:
  94:Generated_Source\PSoC4/USBFS_pm.c ****     }
  95:Generated_Source\PSoC4/USBFS_pm.c **** }
  92              		.loc 1 95 0
  93              		@ sp needed
  94 0012 10BD     		pop	{r4, pc}
  95              	.L6:
  96              		.align	2
  97              	.L5:
  98 0014 00000000 		.word	USBFS_configuration
  99              		.cfi_endproc
 100              	.LFE163:
 101              		.size	USBFS_RestoreConfig, .-USBFS_RestoreConfig
 102              		.section	.text.USBFS_Suspend,"ax",%progbits
 103              		.align	2
 104              		.global	USBFS_Suspend
 105              		.code	16
 106              		.thumb_func
 107              		.type	USBFS_Suspend, %function
 108              	USBFS_Suspend:
 109              	.LFB164:
  96:Generated_Source\PSoC4/USBFS_pm.c **** 
  97:Generated_Source\PSoC4/USBFS_pm.c **** 
  98:Generated_Source\PSoC4/USBFS_pm.c **** /*******************************************************************************
  99:Generated_Source\PSoC4/USBFS_pm.c **** * Function Name: USBFS_Suspend
 100:Generated_Source\PSoC4/USBFS_pm.c **** ****************************************************************************//**
 101:Generated_Source\PSoC4/USBFS_pm.c **** *
 102:Generated_Source\PSoC4/USBFS_pm.c **** *  This function prepares the USBFS component to enter low power mode. The 
 103:Generated_Source\PSoC4/USBFS_pm.c **** *  interrupt on falling edge on Dp pin is configured to wakeup device when the 
 104:Generated_Source\PSoC4/USBFS_pm.c **** *  host drives resume condition. The pull-up is enabled on the Dp line while 
 105:Generated_Source\PSoC4/USBFS_pm.c **** *  device is in low power mode. The supported low power modes are Deep Sleep 
 106:Generated_Source\PSoC4/USBFS_pm.c **** *  (PSoC 4200L) and Sleep (PSoC 3/ PSoC 5LP).
 107:Generated_Source\PSoC4/USBFS_pm.c **** *  
 108:Generated_Source\PSoC4/USBFS_pm.c **** *  *Note* For PSoC 4200L devices, this function should not be called before 
 109:Generated_Source\PSoC4/USBFS_pm.c **** *  entering Sleep.
 110:Generated_Source\PSoC4/USBFS_pm.c **** *  
 111:Generated_Source\PSoC4/USBFS_pm.c **** *  *Note* After enter low power mode, the data which is left in the IN or OUT 
 112:Generated_Source\PSoC4/USBFS_pm.c **** *  endpoint buffers is not restored after wakeup and lost. Therefore it should 
 113:Generated_Source\PSoC4/USBFS_pm.c **** *  be stored in the SRAM for OUT endpoint or read by the host for IN endpoint 
 114:Generated_Source\PSoC4/USBFS_pm.c **** *  before enter low power mode.
 115:Generated_Source\PSoC4/USBFS_pm.c **** *
 116:Generated_Source\PSoC4/USBFS_pm.c **** * \globalvars
 117:Generated_Source\PSoC4/USBFS_pm.c **** *  USBFS_backup.enable:  modified.
 118:Generated_Source\PSoC4/USBFS_pm.c **** *
 119:Generated_Source\PSoC4/USBFS_pm.c **** * \reentrant
ARM GAS  C:\Users\TERENC~1\AppData\Local\Temp\ccPNrapd.s 			page 5


 120:Generated_Source\PSoC4/USBFS_pm.c **** *  No.
 121:Generated_Source\PSoC4/USBFS_pm.c **** *
 122:Generated_Source\PSoC4/USBFS_pm.c **** *******************************************************************************/
 123:Generated_Source\PSoC4/USBFS_pm.c **** void USBFS_Suspend(void) 
 124:Generated_Source\PSoC4/USBFS_pm.c **** {
 110              		.loc 1 124 0
 111              		.cfi_startproc
 112              		@ args = 0, pretend = 0, frame = 0
 113              		@ frame_needed = 0, uses_anonymous_args = 0
 114 0000 70B5     		push	{r4, r5, r6, lr}
 115              		.cfi_def_cfa_offset 16
 116              		.cfi_offset 4, -16
 117              		.cfi_offset 5, -12
 118              		.cfi_offset 6, -8
 119              		.cfi_offset 14, -4
 125:Generated_Source\PSoC4/USBFS_pm.c ****     uint8 enableInterrupts;
 126:Generated_Source\PSoC4/USBFS_pm.c **** 
 127:Generated_Source\PSoC4/USBFS_pm.c ****     enableInterrupts = CyEnterCriticalSection();
 120              		.loc 1 127 0
 121 0002 FFF7FEFF 		bl	CyEnterCriticalSection
 122              	.LVL3:
 123 0006 0400     		movs	r4, r0
 124              	.LVL4:
 128:Generated_Source\PSoC4/USBFS_pm.c **** 
 129:Generated_Source\PSoC4/USBFS_pm.c ****     if (0u != (USBFS_CR0_REG & USBFS_CR0_ENABLE))
 125              		.loc 1 129 0
 126 0008 144B     		ldr	r3, .L10
 127 000a 1B68     		ldr	r3, [r3]
 128 000c 1B06     		lsls	r3, r3, #24
 129 000e 16D5     		bpl	.L8
 130:Generated_Source\PSoC4/USBFS_pm.c ****     {
 131:Generated_Source\PSoC4/USBFS_pm.c ****         /* USB block is enabled. */
 132:Generated_Source\PSoC4/USBFS_pm.c ****         USBFS_backup.enableState = 1u;
 130              		.loc 1 132 0
 131 0010 134D     		ldr	r5, .L10+4
 132 0012 0126     		movs	r6, #1
 133 0014 2E70     		strb	r6, [r5]
 133:Generated_Source\PSoC4/USBFS_pm.c **** 
 134:Generated_Source\PSoC4/USBFS_pm.c ****     #if (USBFS_EP_MANAGEMENT_DMA)
 135:Generated_Source\PSoC4/USBFS_pm.c ****         USBFS_Stop_DMA(USBFS_MAX_EP);
 134              		.loc 1 135 0
 135 0016 0920     		movs	r0, #9
 136 0018 FFF7FEFF 		bl	USBFS_Stop_DMA
 137              	.LVL5:
 136:Generated_Source\PSoC4/USBFS_pm.c ****     #endif /* (USBFS_EP_MANAGEMENT_DMA) */
 137:Generated_Source\PSoC4/USBFS_pm.c **** 
 138:Generated_Source\PSoC4/USBFS_pm.c ****     #if (CY_PSOC4)
 139:Generated_Source\PSoC4/USBFS_pm.c ****         /* Suspend enter sequence. */
 140:Generated_Source\PSoC4/USBFS_pm.c ****         USBFS_POWER_CTRL_REG |= (USBFS_POWER_CTRL_SUSPEND |
 138              		.loc 1 140 0
 139 001c 114A     		ldr	r2, .L10+8
 140 001e 1168     		ldr	r1, [r2]
 141 0020 0C23     		movs	r3, #12
 142 0022 0B43     		orrs	r3, r1
 143 0024 1360     		str	r3, [r2]
 141:Generated_Source\PSoC4/USBFS_pm.c ****                                             USBFS_POWER_CTRL_SUSPEND_DEL);
 142:Generated_Source\PSoC4/USBFS_pm.c **** 
ARM GAS  C:\Users\TERENC~1\AppData\Local\Temp\ccPNrapd.s 			page 6


 143:Generated_Source\PSoC4/USBFS_pm.c ****         /* Store state of USB regulator and disable it. */
 144:Generated_Source\PSoC4/USBFS_pm.c ****         USBFS_backup.mode = (uint8)  (USBFS_CR1_REG & USBFS_CR1_REG_ENABLE);
 144              		.loc 1 144 0
 145 0026 104B     		ldr	r3, .L10+12
 146 0028 1A68     		ldr	r2, [r3]
 147 002a 0121     		movs	r1, #1
 148 002c 0A40     		ands	r2, r1
 149 002e 6A70     		strb	r2, [r5, #1]
 145:Generated_Source\PSoC4/USBFS_pm.c ****         USBFS_CR1_REG    &= (uint32) ~USBFS_CR1_REG_ENABLE;
 150              		.loc 1 145 0
 151 0030 1A68     		ldr	r2, [r3]
 152 0032 B243     		bics	r2, r6
 153 0034 1A60     		str	r2, [r3]
 146:Generated_Source\PSoC4/USBFS_pm.c ****         
 147:Generated_Source\PSoC4/USBFS_pm.c ****         /* Store SIE interrupt sources. Valid bits are 0 - 4. */
 148:Generated_Source\PSoC4/USBFS_pm.c ****         USBFS_backup.intrSeiMask = (uint8) USBFS_INTR_SIE_MASK_REG;
 154              		.loc 1 148 0
 155 0036 0D4B     		ldr	r3, .L10+16
 156 0038 1B68     		ldr	r3, [r3]
 157 003a AB70     		strb	r3, [r5, #2]
 158 003c 02E0     		b	.L9
 159              	.L8:
 149:Generated_Source\PSoC4/USBFS_pm.c **** 
 150:Generated_Source\PSoC4/USBFS_pm.c ****     #else
 151:Generated_Source\PSoC4/USBFS_pm.c ****         /* Ensure USB transmit enable is low (USB_USBIO_CR0.ten). - Manual Transmission - Disabled.
 152:Generated_Source\PSoC4/USBFS_pm.c ****         USBFS_USBIO_CR0_REG &= (uint8) ~USBFS_USBIO_CR0_TEN;
 153:Generated_Source\PSoC4/USBFS_pm.c ****         CyDelayUs(USBFS_WAIT_REG_STABILITY_50NS);  /*~50ns delay. */
 154:Generated_Source\PSoC4/USBFS_pm.c **** 
 155:Generated_Source\PSoC4/USBFS_pm.c ****         /* Disable the USBIO by asserting PM.USB_CR0.fsusbio_pd_n(Inverted) and pd_pullup_hv(Invert
 156:Generated_Source\PSoC4/USBFS_pm.c ****         USBFS_PM_USB_CR0_REG &= (uint8) ~(USBFS_PM_USB_CR0_PD_N |
 157:Generated_Source\PSoC4/USBFS_pm.c ****                                                      USBFS_PM_USB_CR0_PD_PULLUP_N);
 158:Generated_Source\PSoC4/USBFS_pm.c **** 
 159:Generated_Source\PSoC4/USBFS_pm.c ****         /* Disable the SIE. */
 160:Generated_Source\PSoC4/USBFS_pm.c ****         USBFS_CR0_REG &= (uint8) ~USBFS_CR0_ENABLE;
 161:Generated_Source\PSoC4/USBFS_pm.c **** 
 162:Generated_Source\PSoC4/USBFS_pm.c ****         CyDelayUs(USBFS_WAIT_REG_STABILITY_50NS);  /* ~50ns delay. */
 163:Generated_Source\PSoC4/USBFS_pm.c ****         /* Store mode and disable VRegulator. */
 164:Generated_Source\PSoC4/USBFS_pm.c ****         USBFS_backup.mode = (uint8) (USBFS_CR1_REG & USBFS_CR1_REG_ENABLE);
 165:Generated_Source\PSoC4/USBFS_pm.c ****         USBFS_CR1_REG    &= (uint8) ~USBFS_CR1_REG_ENABLE;
 166:Generated_Source\PSoC4/USBFS_pm.c **** 
 167:Generated_Source\PSoC4/USBFS_pm.c ****         CyDelayUs(USBFS_WAIT_REG_STABILITY_1US); /* min 0.5us delay required. */
 168:Generated_Source\PSoC4/USBFS_pm.c **** 
 169:Generated_Source\PSoC4/USBFS_pm.c ****         /* Disable the USBIO reference by setting PM.USB_CR0.fsusbio_ref_en.*/
 170:Generated_Source\PSoC4/USBFS_pm.c ****         USBFS_PM_USB_CR0_REG &= (uint8) ~USBFS_PM_USB_CR0_REF_EN;
 171:Generated_Source\PSoC4/USBFS_pm.c **** 
 172:Generated_Source\PSoC4/USBFS_pm.c ****         /* Switch DP and DM terminals to GPIO mode and disconnect 1.5k pull-up. */
 173:Generated_Source\PSoC4/USBFS_pm.c ****         USBFS_USBIO_CR1_REG |= USBFS_USBIO_CR1_IOMODE;
 174:Generated_Source\PSoC4/USBFS_pm.c **** 
 175:Generated_Source\PSoC4/USBFS_pm.c ****         /* Disable USBFS block. */
 176:Generated_Source\PSoC4/USBFS_pm.c ****         /* Clear power active and standby mode templates: disable USB block. */
 177:Generated_Source\PSoC4/USBFS_pm.c ****         USBFS_PM_ACT_CFG_REG  &= (uint8) ~USBFS_PM_ACT_EN_FSUSB;
 178:Generated_Source\PSoC4/USBFS_pm.c ****         USBFS_PM_STBY_CFG_REG &= (uint8) ~USBFS_PM_STBY_EN_FSUSB;
 179:Generated_Source\PSoC4/USBFS_pm.c **** 
 180:Generated_Source\PSoC4/USBFS_pm.c ****         CyDelayUs(USBFS_WAIT_REG_STABILITY_1US); /* min 0.5us delay required. */
 181:Generated_Source\PSoC4/USBFS_pm.c ****     #endif /* (CY_PSOC4) */
 182:Generated_Source\PSoC4/USBFS_pm.c ****     }
 183:Generated_Source\PSoC4/USBFS_pm.c ****     else
ARM GAS  C:\Users\TERENC~1\AppData\Local\Temp\ccPNrapd.s 			page 7


 184:Generated_Source\PSoC4/USBFS_pm.c ****     {
 185:Generated_Source\PSoC4/USBFS_pm.c ****         USBFS_backup.enableState = 0u;
 160              		.loc 1 185 0
 161 003e 0022     		movs	r2, #0
 162 0040 074B     		ldr	r3, .L10+4
 163 0042 1A70     		strb	r2, [r3]
 164              	.L9:
 186:Generated_Source\PSoC4/USBFS_pm.c ****     }
 187:Generated_Source\PSoC4/USBFS_pm.c **** 
 188:Generated_Source\PSoC4/USBFS_pm.c ****     CyExitCriticalSection(enableInterrupts);
 165              		.loc 1 188 0
 166 0044 2000     		movs	r0, r4
 167 0046 FFF7FEFF 		bl	CyExitCriticalSection
 168              	.LVL6:
 189:Generated_Source\PSoC4/USBFS_pm.c **** 
 190:Generated_Source\PSoC4/USBFS_pm.c **** #if (USBFS_DP_ISR_ACTIVE)
 191:Generated_Source\PSoC4/USBFS_pm.c ****     /* Clear active mode Dp interrupt source history. */
 192:Generated_Source\PSoC4/USBFS_pm.c ****     (void) USBFS_Dp_ClearInterrupt();
 169              		.loc 1 192 0
 170 004a FFF7FEFF 		bl	USBFS_Dp_ClearInterrupt
 171              	.LVL7:
 193:Generated_Source\PSoC4/USBFS_pm.c ****     CyIntClearPending(USBFS_DP_INTC_VECT_NUM);
 172              		.loc 1 193 0
 173 004e 0520     		movs	r0, #5
 174 0050 FFF7FEFF 		bl	CyIntClearPending
 175              	.LVL8:
 194:Generated_Source\PSoC4/USBFS_pm.c **** 
 195:Generated_Source\PSoC4/USBFS_pm.c ****     CyIntEnable      (USBFS_DP_INTC_VECT_NUM);
 176              		.loc 1 195 0
 177 0054 0520     		movs	r0, #5
 178 0056 FFF7FEFF 		bl	CyIntEnable
 179              	.LVL9:
 196:Generated_Source\PSoC4/USBFS_pm.c **** #endif /* (USBFS_DP_ISR_ACTIVE). */
 197:Generated_Source\PSoC4/USBFS_pm.c **** }
 180              		.loc 1 197 0
 181              		@ sp needed
 182              	.LVL10:
 183 005a 70BD     		pop	{r4, r5, r6, pc}
 184              	.L11:
 185              		.align	2
 186              	.L10:
 187 005c 20002C40 		.word	1076625440
 188 0060 00000000 		.word	.LANCHOR0
 189 0064 00202C40 		.word	1076633600
 190 0068 24002C40 		.word	1076625444
 191 006c 28202C40 		.word	1076633640
 192              		.cfi_endproc
 193              	.LFE164:
 194              		.size	USBFS_Suspend, .-USBFS_Suspend
 195              		.section	.text.USBFS_Resume,"ax",%progbits
 196              		.align	2
 197              		.global	USBFS_Resume
 198              		.code	16
 199              		.thumb_func
 200              		.type	USBFS_Resume, %function
 201              	USBFS_Resume:
 202              	.LFB165:
ARM GAS  C:\Users\TERENC~1\AppData\Local\Temp\ccPNrapd.s 			page 8


 198:Generated_Source\PSoC4/USBFS_pm.c **** 
 199:Generated_Source\PSoC4/USBFS_pm.c **** 
 200:Generated_Source\PSoC4/USBFS_pm.c **** /*******************************************************************************
 201:Generated_Source\PSoC4/USBFS_pm.c **** * Function Name: USBFS_Resume
 202:Generated_Source\PSoC4/USBFS_pm.c **** ****************************************************************************//**
 203:Generated_Source\PSoC4/USBFS_pm.c **** *
 204:Generated_Source\PSoC4/USBFS_pm.c **** *  This function prepares the USBFS component for active mode operation after 
 205:Generated_Source\PSoC4/USBFS_pm.c **** *  exit low power mode. It restores the component active mode configuration such 
 206:Generated_Source\PSoC4/USBFS_pm.c **** *  as device address assigned previously by the host, endpoints buffer and disables 
 207:Generated_Source\PSoC4/USBFS_pm.c **** *  interrupt on Dp pin.
 208:Generated_Source\PSoC4/USBFS_pm.c **** *  The supported low power modes are Deep Sleep (PSoC 4200L) and Sleep 
 209:Generated_Source\PSoC4/USBFS_pm.c **** *  (PSoC 3/ PSoC 5LP).
 210:Generated_Source\PSoC4/USBFS_pm.c **** *  
 211:Generated_Source\PSoC4/USBFS_pm.c **** *  *Note* For PSoC 4200L devices, this function should not be called after 
 212:Generated_Source\PSoC4/USBFS_pm.c **** *  exiting Sleep.
 213:Generated_Source\PSoC4/USBFS_pm.c **** *  
 214:Generated_Source\PSoC4/USBFS_pm.c **** *  *Note* To resume communication with the host, the data endpoints must be 
 215:Generated_Source\PSoC4/USBFS_pm.c **** *  managed: the OUT endpoints must be enabled and IN endpoints must be loaded 
 216:Generated_Source\PSoC4/USBFS_pm.c **** *  with data. For DMA with Automatic Buffer Management, all endpoints buffers 
 217:Generated_Source\PSoC4/USBFS_pm.c **** *  must be initialized again before making them available to the host.
 218:Generated_Source\PSoC4/USBFS_pm.c **** *
 219:Generated_Source\PSoC4/USBFS_pm.c **** *
 220:Generated_Source\PSoC4/USBFS_pm.c **** * \globalvars
 221:Generated_Source\PSoC4/USBFS_pm.c **** *  USBFS_backup - checked.
 222:Generated_Source\PSoC4/USBFS_pm.c **** *
 223:Generated_Source\PSoC4/USBFS_pm.c **** * \reentrant
 224:Generated_Source\PSoC4/USBFS_pm.c **** *  No.
 225:Generated_Source\PSoC4/USBFS_pm.c **** *
 226:Generated_Source\PSoC4/USBFS_pm.c **** *******************************************************************************/
 227:Generated_Source\PSoC4/USBFS_pm.c **** void USBFS_Resume(void) 
 228:Generated_Source\PSoC4/USBFS_pm.c **** {
 203              		.loc 1 228 0
 204              		.cfi_startproc
 205              		@ args = 0, pretend = 0, frame = 0
 206              		@ frame_needed = 0, uses_anonymous_args = 0
 207 0000 70B5     		push	{r4, r5, r6, lr}
 208              		.cfi_def_cfa_offset 16
 209              		.cfi_offset 4, -16
 210              		.cfi_offset 5, -12
 211              		.cfi_offset 6, -8
 212              		.cfi_offset 14, -4
 229:Generated_Source\PSoC4/USBFS_pm.c ****     uint8 enableInterrupts;
 230:Generated_Source\PSoC4/USBFS_pm.c **** 
 231:Generated_Source\PSoC4/USBFS_pm.c ****     enableInterrupts = CyEnterCriticalSection();
 213              		.loc 1 231 0
 214 0002 FFF7FEFF 		bl	CyEnterCriticalSection
 215              	.LVL11:
 216 0006 0400     		movs	r4, r0
 217              	.LVL12:
 232:Generated_Source\PSoC4/USBFS_pm.c **** 
 233:Generated_Source\PSoC4/USBFS_pm.c ****     if (0u != USBFS_backup.enableState)
 218              		.loc 1 233 0
 219 0008 1A4B     		ldr	r3, .L14
 220 000a 1B78     		ldrb	r3, [r3]
 221 000c 002B     		cmp	r3, #0
 222 000e 2CD0     		beq	.L13
 234:Generated_Source\PSoC4/USBFS_pm.c ****     {
ARM GAS  C:\Users\TERENC~1\AppData\Local\Temp\ccPNrapd.s 			page 9


 235:Generated_Source\PSoC4/USBFS_pm.c ****     #if (USBFS_DP_ISR_ACTIVE)
 236:Generated_Source\PSoC4/USBFS_pm.c ****         CyIntDisable(USBFS_DP_INTC_VECT_NUM);
 223              		.loc 1 236 0
 224 0010 0520     		movs	r0, #5
 225 0012 FFF7FEFF 		bl	CyIntDisable
 226              	.LVL13:
 237:Generated_Source\PSoC4/USBFS_pm.c ****     #endif /* (USBFS_DP_ISR_ACTIVE) */
 238:Generated_Source\PSoC4/USBFS_pm.c **** 
 239:Generated_Source\PSoC4/USBFS_pm.c ****     #if (CY_PSOC4)
 240:Generated_Source\PSoC4/USBFS_pm.c ****         /* Enable clock to USB IP. */
 241:Generated_Source\PSoC4/USBFS_pm.c ****         USBFS_USB_CLK_EN_REG |= USBFS_USB_CLK_CSR_CLK_EN;
 227              		.loc 1 241 0
 228 0016 1849     		ldr	r1, .L14+4
 229 0018 0B68     		ldr	r3, [r1]
 230 001a 0122     		movs	r2, #1
 231 001c 1343     		orrs	r3, r2
 232 001e 0B60     		str	r3, [r1]
 242:Generated_Source\PSoC4/USBFS_pm.c **** 
 243:Generated_Source\PSoC4/USBFS_pm.c ****         /* Restore arbiter configuration for DMA transfers. */
 244:Generated_Source\PSoC4/USBFS_pm.c ****         #if (USBFS_EP_MANAGEMENT_DMA)
 245:Generated_Source\PSoC4/USBFS_pm.c ****             #if (USBFS_ARB_ISR_ACTIVE)
 246:Generated_Source\PSoC4/USBFS_pm.c ****                 /* Enable ARB EP interrupt sources. */
 247:Generated_Source\PSoC4/USBFS_pm.c ****                 USBFS_ARB_INT_EN_REG = USBFS_DEFAULT_ARB_INT_EN;
 233              		.loc 1 247 0
 234 0020 2F21     		movs	r1, #47
 235 0022 164B     		ldr	r3, .L14+8
 236 0024 1960     		str	r1, [r3]
 248:Generated_Source\PSoC4/USBFS_pm.c ****             #endif /* (USBFS_EP_MANAGEMENT_DMA) */
 249:Generated_Source\PSoC4/USBFS_pm.c **** 
 250:Generated_Source\PSoC4/USBFS_pm.c ****             /* Configure arbiter for Manual or Auto DMA operation and clear 
 251:Generated_Source\PSoC4/USBFS_pm.c ****             * configuration completion. 
 252:Generated_Source\PSoC4/USBFS_pm.c ****             */
 253:Generated_Source\PSoC4/USBFS_pm.c ****             USBFS_ARB_CFG_REG = USBFS_DEFAULT_ARB_CFG;
 237              		.loc 1 253 0
 238 0026 2131     		adds	r1, r1, #33
 239 0028 154B     		ldr	r3, .L14+12
 240 002a 1960     		str	r1, [r3]
 254:Generated_Source\PSoC4/USBFS_pm.c ****         #endif /* (USBFS_EP_MANAGEMENT_DMA) */
 255:Generated_Source\PSoC4/USBFS_pm.c **** 
 256:Generated_Source\PSoC4/USBFS_pm.c ****         /* Restore level (hi, lo, med) for each interrupt source. */
 257:Generated_Source\PSoC4/USBFS_pm.c ****         USBFS_INTR_LVL_SEL_REG = USBFS_DEFAULT_INTR_LVL_SEL;
 241              		.loc 1 257 0
 242 002c 1549     		ldr	r1, .L14+16
 243 002e 164B     		ldr	r3, .L14+20
 244 0030 1960     		str	r1, [r3]
 258:Generated_Source\PSoC4/USBFS_pm.c ****         
 259:Generated_Source\PSoC4/USBFS_pm.c ****         /* Store SIE interrupt sources. */
 260:Generated_Source\PSoC4/USBFS_pm.c ****         USBFS_INTR_SIE_MASK_REG = (uint32) USBFS_backup.intrSeiMask;
 245              		.loc 1 260 0
 246 0032 104D     		ldr	r5, .L14
 247 0034 A978     		ldrb	r1, [r5, #2]
 248 0036 154B     		ldr	r3, .L14+24
 249 0038 1960     		str	r1, [r3]
 261:Generated_Source\PSoC4/USBFS_pm.c **** 
 262:Generated_Source\PSoC4/USBFS_pm.c ****         /* Set EP0.CR: ACK Setup, NAK IN/OUT. */
 263:Generated_Source\PSoC4/USBFS_pm.c ****         USBFS_EP0_CR_REG = USBFS_MODE_NAK_IN_OUT;
 250              		.loc 1 263 0
ARM GAS  C:\Users\TERENC~1\AppData\Local\Temp\ccPNrapd.s 			page 10


 251 003a 154B     		ldr	r3, .L14+28
 252 003c 1A60     		str	r2, [r3]
 264:Generated_Source\PSoC4/USBFS_pm.c **** 
 265:Generated_Source\PSoC4/USBFS_pm.c ****         /* Restore data EP1-8 configuration. */
 266:Generated_Source\PSoC4/USBFS_pm.c ****         USBFS_RestoreConfig();
 253              		.loc 1 266 0
 254 003e FFF7FEFF 		bl	USBFS_RestoreConfig
 255              	.LVL14:
 267:Generated_Source\PSoC4/USBFS_pm.c **** 
 268:Generated_Source\PSoC4/USBFS_pm.c ****         /* Restore state of USB regulator and wait until it supples stable power. */
 269:Generated_Source\PSoC4/USBFS_pm.c ****         USBFS_CR1_REG |= USBFS_backup.mode;
 256              		.loc 1 269 0
 257 0042 144A     		ldr	r2, .L14+32
 258 0044 1368     		ldr	r3, [r2]
 259 0046 6978     		ldrb	r1, [r5, #1]
 260 0048 0B43     		orrs	r3, r1
 261 004a 1360     		str	r3, [r2]
 270:Generated_Source\PSoC4/USBFS_pm.c ****         CyDelayUs(USBFS_WAIT_VREF_STABILITY);
 262              		.loc 1 270 0
 263 004c 0020     		movs	r0, #0
 264 004e FFF7FEFF 		bl	CyDelayUs
 265              	.LVL15:
 271:Generated_Source\PSoC4/USBFS_pm.c **** 
 272:Generated_Source\PSoC4/USBFS_pm.c ****         /* Suspend exit sequence. */
 273:Generated_Source\PSoC4/USBFS_pm.c ****         USBFS_POWER_CTRL_REG &= (uint32) ~USBFS_POWER_CTRL_SUSPEND;
 266              		.loc 1 273 0
 267 0052 114D     		ldr	r5, .L14+36
 268 0054 2B68     		ldr	r3, [r5]
 269 0056 0422     		movs	r2, #4
 270 0058 9343     		bics	r3, r2
 271 005a 2B60     		str	r3, [r5]
 274:Generated_Source\PSoC4/USBFS_pm.c ****         CyDelayUs(USBFS_WAIT_SUSPEND_DEL_DISABLE);
 272              		.loc 1 274 0
 273 005c 0220     		movs	r0, #2
 274 005e FFF7FEFF 		bl	CyDelayUs
 275              	.LVL16:
 275:Generated_Source\PSoC4/USBFS_pm.c ****         USBFS_POWER_CTRL_REG &= (uint32) ~USBFS_POWER_CTRL_SUSPEND_DEL;
 276              		.loc 1 275 0
 277 0062 2B68     		ldr	r3, [r5]
 278 0064 0822     		movs	r2, #8
 279 0066 9343     		bics	r3, r2
 280 0068 2B60     		str	r3, [r5]
 281              	.L13:
 276:Generated_Source\PSoC4/USBFS_pm.c **** 
 277:Generated_Source\PSoC4/USBFS_pm.c ****     #else
 278:Generated_Source\PSoC4/USBFS_pm.c ****         /* Set power active and standby mode templates: enable USB block. */
 279:Generated_Source\PSoC4/USBFS_pm.c ****         USBFS_PM_ACT_CFG_REG  |= USBFS_PM_ACT_EN_FSUSB;
 280:Generated_Source\PSoC4/USBFS_pm.c ****         USBFS_PM_STBY_CFG_REG |= USBFS_PM_STBY_EN_FSUSB;
 281:Generated_Source\PSoC4/USBFS_pm.c **** 
 282:Generated_Source\PSoC4/USBFS_pm.c ****         /* Enable core clock. */
 283:Generated_Source\PSoC4/USBFS_pm.c ****         USBFS_USB_CLK_EN_REG |= USBFS_USB_CLK_ENABLE;
 284:Generated_Source\PSoC4/USBFS_pm.c **** 
 285:Generated_Source\PSoC4/USBFS_pm.c ****         /* Enable the USBIO reference by setting PM.USB_CR0.fsusbio_ref_en.*/
 286:Generated_Source\PSoC4/USBFS_pm.c ****         USBFS_PM_USB_CR0_REG |= USBFS_PM_USB_CR0_REF_EN;
 287:Generated_Source\PSoC4/USBFS_pm.c **** 
 288:Generated_Source\PSoC4/USBFS_pm.c ****         /* The reference is available ~40us after power restored. */
 289:Generated_Source\PSoC4/USBFS_pm.c ****         CyDelayUs(USBFS_WAIT_VREF_RESTORE);
ARM GAS  C:\Users\TERENC~1\AppData\Local\Temp\ccPNrapd.s 			page 11


 290:Generated_Source\PSoC4/USBFS_pm.c ****         /* Restore state of USB regulator and wait until it supples stable power. */
 291:Generated_Source\PSoC4/USBFS_pm.c ****         USBFS_CR1_REG |= USBFS_backup.mode;
 292:Generated_Source\PSoC4/USBFS_pm.c ****         CyDelayUs(USBFS_WAIT_VREF_STABILITY);   /*~50ns delay. */
 293:Generated_Source\PSoC4/USBFS_pm.c **** 
 294:Generated_Source\PSoC4/USBFS_pm.c ****         /* Enable USBIO. */
 295:Generated_Source\PSoC4/USBFS_pm.c ****         USBFS_PM_USB_CR0_REG |= USBFS_PM_USB_CR0_PD_N;
 296:Generated_Source\PSoC4/USBFS_pm.c ****         CyDelayUs(USBFS_WAIT_PD_PULLUP_N_ENABLE);
 297:Generated_Source\PSoC4/USBFS_pm.c ****         /* Set the USBIO pull-up enable. */
 298:Generated_Source\PSoC4/USBFS_pm.c ****         USBFS_PM_USB_CR0_REG |= USBFS_PM_USB_CR0_PD_PULLUP_N;
 299:Generated_Source\PSoC4/USBFS_pm.c **** 
 300:Generated_Source\PSoC4/USBFS_pm.c ****         /* Restore arbiter configuration for DMA transfers. */
 301:Generated_Source\PSoC4/USBFS_pm.c ****         #if (USBFS_EP_MANAGEMENT_DMA)
 302:Generated_Source\PSoC4/USBFS_pm.c ****             #if (USBFS_ARB_ISR_ACTIVE)
 303:Generated_Source\PSoC4/USBFS_pm.c ****                 /* Enable ARB EP interrupt sources. */
 304:Generated_Source\PSoC4/USBFS_pm.c ****                 USBFS_ARB_INT_EN_REG = USBFS_DEFAULT_ARB_INT_EN;
 305:Generated_Source\PSoC4/USBFS_pm.c ****             #endif /* (USBFS_EP_MANAGEMENT_DMA) */
 306:Generated_Source\PSoC4/USBFS_pm.c **** 
 307:Generated_Source\PSoC4/USBFS_pm.c ****             /* Configure arbiter for Manual or Auto DMA operation and clear 
 308:Generated_Source\PSoC4/USBFS_pm.c ****             * configuration completion. 
 309:Generated_Source\PSoC4/USBFS_pm.c ****             */
 310:Generated_Source\PSoC4/USBFS_pm.c ****             USBFS_ARB_CFG_REG = USBFS_DEFAULT_ARB_CFG;
 311:Generated_Source\PSoC4/USBFS_pm.c ****         #endif /* (USBFS_EP_MANAGEMENT_DMA) */
 312:Generated_Source\PSoC4/USBFS_pm.c **** 
 313:Generated_Source\PSoC4/USBFS_pm.c ****         /* Set EP0.CR: ACK Setup, STALL IN/OUT. */
 314:Generated_Source\PSoC4/USBFS_pm.c ****         USBFS_EP0_CR_REG = USBFS_MODE_STALL_IN_OUT;
 315:Generated_Source\PSoC4/USBFS_pm.c **** 
 316:Generated_Source\PSoC4/USBFS_pm.c ****         /* Enable the USB IP to respond to USB traffic with the last address. */
 317:Generated_Source\PSoC4/USBFS_pm.c ****         USBFS_CR0_REG |= USBFS_CR0_ENABLE;
 318:Generated_Source\PSoC4/USBFS_pm.c ****         CyDelayCycles(USBFS_WAIT_CR0_REG_STABILITY);
 319:Generated_Source\PSoC4/USBFS_pm.c **** 
 320:Generated_Source\PSoC4/USBFS_pm.c ****         /* Enable D+ pull-up and keep USB control on IO. */
 321:Generated_Source\PSoC4/USBFS_pm.c ****         USBFS_USBIO_CR1_REG = USBFS_USBIO_CR1_USBPUEN;
 322:Generated_Source\PSoC4/USBFS_pm.c **** 
 323:Generated_Source\PSoC4/USBFS_pm.c ****         /* Restore data EP1-8 configuration. */
 324:Generated_Source\PSoC4/USBFS_pm.c ****         USBFS_RestoreConfig();
 325:Generated_Source\PSoC4/USBFS_pm.c ****     #endif /* (CY_PSOC4) */
 326:Generated_Source\PSoC4/USBFS_pm.c ****     }
 327:Generated_Source\PSoC4/USBFS_pm.c **** 
 328:Generated_Source\PSoC4/USBFS_pm.c ****     CyExitCriticalSection(enableInterrupts);
 282              		.loc 1 328 0
 283 006a 2000     		movs	r0, r4
 284 006c FFF7FEFF 		bl	CyExitCriticalSection
 285              	.LVL17:
 329:Generated_Source\PSoC4/USBFS_pm.c **** }
 286              		.loc 1 329 0
 287              		@ sp needed
 288              	.LVL18:
 289 0070 70BD     		pop	{r4, r5, r6, pc}
 290              	.L15:
 291 0072 C046     		.align	2
 292              	.L14:
 293 0074 00000000 		.word	.LANCHOR0
 294 0078 74022C40 		.word	1076626036
 295 007c 78022C40 		.word	1076626040
 296 0080 70022C40 		.word	1076626032
 297 0084 28002004 		.word	69206056
 298 0088 30202C40 		.word	1076633648
ARM GAS  C:\Users\TERENC~1\AppData\Local\Temp\ccPNrapd.s 			page 12


 299 008c 28202C40 		.word	1076633640
 300 0090 A0002C40 		.word	1076625568
 301 0094 24002C40 		.word	1076625444
 302 0098 00202C40 		.word	1076633600
 303              		.cfi_endproc
 304              	.LFE165:
 305              		.size	USBFS_Resume, .-USBFS_Resume
 306              		.bss
 307              		.align	2
 308              		.set	.LANCHOR0,. + 0
 309              		.type	USBFS_backup, %object
 310              		.size	USBFS_backup, 3
 311              	USBFS_backup:
 312 0000 000000   		.space	3
 313              		.text
 314              	.Letext0:
 315              		.file 2 "Generated_Source\\PSoC4\\cytypes.h"
 316              		.file 3 "Generated_Source\\PSoC4\\USBFS.h"
 317              		.file 4 "Generated_Source\\PSoC4\\USBFS_Dp.h"
 318              		.file 5 "Generated_Source\\PSoC4\\USBFS_pvt.h"
 319              		.file 6 "Generated_Source\\PSoC4\\CyLib.h"