ARM GAS  C:\Users\TERENC~1\AppData\Local\Temp\ccbv3k4D.s 			page 1


   1              		.syntax unified
   2              		.cpu cortex-m0
   3              		.fpu softvfp
   4              		.eabi_attribute 20, 1
   5              		.eabi_attribute 21, 1
   6              		.eabi_attribute 23, 3
   7              		.eabi_attribute 24, 1
   8              		.eabi_attribute 25, 1
   9              		.eabi_attribute 26, 1
  10              		.eabi_attribute 30, 1
  11              		.eabi_attribute 34, 0
  12              		.eabi_attribute 18, 4
  13              		.thumb
  14              		.syntax unified
  15              		.file	"USBFS_ep1_dma.c"
  16              		.text
  17              	.Ltext0:
  18              		.cfi_sections	.debug_frame
  19              		.section	.text.USBFS_ep1_dma_Init,"ax",%progbits
  20              		.align	2
  21              		.global	USBFS_ep1_dma_Init
  22              		.code	16
  23              		.thumb_func
  24              		.type	USBFS_ep1_dma_Init, %function
  25              	USBFS_ep1_dma_Init:
  26              	.LFB33:
  27              		.file 1 "Generated_Source\\PSoC4\\USBFS_ep1_dma.c"
   1:Generated_Source\PSoC4/USBFS_ep1_dma.c **** /*******************************************************************************
   2:Generated_Source\PSoC4/USBFS_ep1_dma.c **** * File Name: USBFS_ep1_dma.h
   3:Generated_Source\PSoC4/USBFS_ep1_dma.c **** * Version 1.0
   4:Generated_Source\PSoC4/USBFS_ep1_dma.c **** *
   5:Generated_Source\PSoC4/USBFS_ep1_dma.c **** * Description:
   6:Generated_Source\PSoC4/USBFS_ep1_dma.c **** *  This file contains all of the channel DMA API functions.
   7:Generated_Source\PSoC4/USBFS_ep1_dma.c **** *
   8:Generated_Source\PSoC4/USBFS_ep1_dma.c **** ********************************************************************************
   9:Generated_Source\PSoC4/USBFS_ep1_dma.c **** * Copyright 2015, Cypress Semiconductor Corporation. All rights reserved.
  10:Generated_Source\PSoC4/USBFS_ep1_dma.c **** * You may use this file only in accordance with the license, terms, conditions,
  11:Generated_Source\PSoC4/USBFS_ep1_dma.c **** * disclaimers, and limitations in the end user license agreement accompanying
  12:Generated_Source\PSoC4/USBFS_ep1_dma.c **** * the software package with which this file was provided.
  13:Generated_Source\PSoC4/USBFS_ep1_dma.c **** *******************************************************************************/
  14:Generated_Source\PSoC4/USBFS_ep1_dma.c **** 
  15:Generated_Source\PSoC4/USBFS_ep1_dma.c **** #include "USBFS_ep1_dma.h"
  16:Generated_Source\PSoC4/USBFS_ep1_dma.c **** 
  17:Generated_Source\PSoC4/USBFS_ep1_dma.c **** uint8 USBFS_ep1_dma_initVar = 0u;
  18:Generated_Source\PSoC4/USBFS_ep1_dma.c **** 
  19:Generated_Source\PSoC4/USBFS_ep1_dma.c **** 
  20:Generated_Source\PSoC4/USBFS_ep1_dma.c **** /*******************************************************************************
  21:Generated_Source\PSoC4/USBFS_ep1_dma.c **** * Function Name: USBFS_ep1_dma_Start
  22:Generated_Source\PSoC4/USBFS_ep1_dma.c **** ********************************************************************************
  23:Generated_Source\PSoC4/USBFS_ep1_dma.c **** *
  24:Generated_Source\PSoC4/USBFS_ep1_dma.c **** * Summary:
  25:Generated_Source\PSoC4/USBFS_ep1_dma.c **** *  Calls Init() to configure the DMA channel based on the customizer settings if
  26:Generated_Source\PSoC4/USBFS_ep1_dma.c **** *  the channel has not been initialized before.
  27:Generated_Source\PSoC4/USBFS_ep1_dma.c **** *  Sets source and destination address, validates descriptor 0 and enables the
  28:Generated_Source\PSoC4/USBFS_ep1_dma.c **** *  channel. After calling this function the DMA channel is active and waiting
  29:Generated_Source\PSoC4/USBFS_ep1_dma.c **** *  for a trigger.
  30:Generated_Source\PSoC4/USBFS_ep1_dma.c **** *
ARM GAS  C:\Users\TERENC~1\AppData\Local\Temp\ccbv3k4D.s 			page 2


  31:Generated_Source\PSoC4/USBFS_ep1_dma.c **** * Parameters:
  32:Generated_Source\PSoC4/USBFS_ep1_dma.c **** *  srcAddress: Address of DMA transfer source for descriptor 0.
  33:Generated_Source\PSoC4/USBFS_ep1_dma.c **** *  dstAddress: Address of DMA transfer destination for descriptor 0.
  34:Generated_Source\PSoC4/USBFS_ep1_dma.c **** *                   
  35:Generated_Source\PSoC4/USBFS_ep1_dma.c **** * Return:
  36:Generated_Source\PSoC4/USBFS_ep1_dma.c **** *  None.
  37:Generated_Source\PSoC4/USBFS_ep1_dma.c **** *
  38:Generated_Source\PSoC4/USBFS_ep1_dma.c **** *******************************************************************************/
  39:Generated_Source\PSoC4/USBFS_ep1_dma.c **** void USBFS_ep1_dma_Start(void * srcAddress, void * dstAddress)
  40:Generated_Source\PSoC4/USBFS_ep1_dma.c **** {
  41:Generated_Source\PSoC4/USBFS_ep1_dma.c ****     if(0u == USBFS_ep1_dma_initVar)
  42:Generated_Source\PSoC4/USBFS_ep1_dma.c ****     {
  43:Generated_Source\PSoC4/USBFS_ep1_dma.c ****         USBFS_ep1_dma_Init();
  44:Generated_Source\PSoC4/USBFS_ep1_dma.c ****         USBFS_ep1_dma_initVar = 1u;
  45:Generated_Source\PSoC4/USBFS_ep1_dma.c ****     }
  46:Generated_Source\PSoC4/USBFS_ep1_dma.c ****     CyDmaEnable();
  47:Generated_Source\PSoC4/USBFS_ep1_dma.c ****     USBFS_ep1_dma_SetSrcAddress(0, srcAddress);
  48:Generated_Source\PSoC4/USBFS_ep1_dma.c ****     USBFS_ep1_dma_SetDstAddress(0, dstAddress);
  49:Generated_Source\PSoC4/USBFS_ep1_dma.c ****     USBFS_ep1_dma_ValidateDescriptor(0);
  50:Generated_Source\PSoC4/USBFS_ep1_dma.c ****     USBFS_ep1_dma_ChEnable();
  51:Generated_Source\PSoC4/USBFS_ep1_dma.c **** }
  52:Generated_Source\PSoC4/USBFS_ep1_dma.c **** 
  53:Generated_Source\PSoC4/USBFS_ep1_dma.c **** 
  54:Generated_Source\PSoC4/USBFS_ep1_dma.c **** /*******************************************************************************
  55:Generated_Source\PSoC4/USBFS_ep1_dma.c **** * Function Name: USBFS_ep1_dma_Init
  56:Generated_Source\PSoC4/USBFS_ep1_dma.c **** ********************************************************************************
  57:Generated_Source\PSoC4/USBFS_ep1_dma.c **** *
  58:Generated_Source\PSoC4/USBFS_ep1_dma.c **** * Summary:
  59:Generated_Source\PSoC4/USBFS_ep1_dma.c **** *  Initializes the DMA channel based on the parameters set in the component
  60:Generated_Source\PSoC4/USBFS_ep1_dma.c **** *  customizer. It is not necessary to call USBFS_ep1_dma_Init() because the
  61:Generated_Source\PSoC4/USBFS_ep1_dma.c **** *  USBFS_ep1_dma_Start() API calls this function, which is the preferred method
  62:Generated_Source\PSoC4/USBFS_ep1_dma.c **** *  to begin component operation.
  63:Generated_Source\PSoC4/USBFS_ep1_dma.c **** *
  64:Generated_Source\PSoC4/USBFS_ep1_dma.c **** * Parameters:
  65:Generated_Source\PSoC4/USBFS_ep1_dma.c **** *  None.
  66:Generated_Source\PSoC4/USBFS_ep1_dma.c **** *                   
  67:Generated_Source\PSoC4/USBFS_ep1_dma.c **** * Return:
  68:Generated_Source\PSoC4/USBFS_ep1_dma.c **** *  None.
  69:Generated_Source\PSoC4/USBFS_ep1_dma.c **** *
  70:Generated_Source\PSoC4/USBFS_ep1_dma.c **** * Side effect:
  71:Generated_Source\PSoC4/USBFS_ep1_dma.c **** *  The first descriptor is set to descriptor 0. This function should not be
  72:Generated_Source\PSoC4/USBFS_ep1_dma.c **** *  called while the channel is enabled. All settings will be reset to their
  73:Generated_Source\PSoC4/USBFS_ep1_dma.c **** *  initial values.
  74:Generated_Source\PSoC4/USBFS_ep1_dma.c **** *
  75:Generated_Source\PSoC4/USBFS_ep1_dma.c **** *******************************************************************************/
  76:Generated_Source\PSoC4/USBFS_ep1_dma.c **** void USBFS_ep1_dma_Init(void)
  77:Generated_Source\PSoC4/USBFS_ep1_dma.c **** {
  28              		.loc 1 77 0
  29              		.cfi_startproc
  30              		@ args = 0, pretend = 0, frame = 0
  31              		@ frame_needed = 0, uses_anonymous_args = 0
  32              		@ link register save eliminated.
  78:Generated_Source\PSoC4/USBFS_ep1_dma.c ****     CYDMA_CH_CTL_BASE.ctl[USBFS_ep1_dma_CHANNEL] = USBFS_ep1_dma_CHANNEL_CFG;
  33              		.loc 1 78 0
  34 0000 0022     		movs	r2, #0
  35 0002 054B     		ldr	r3, .L2
  36 0004 1A62     		str	r2, [r3, #32]
ARM GAS  C:\Users\TERENC~1\AppData\Local\Temp\ccbv3k4D.s 			page 3


  79:Generated_Source\PSoC4/USBFS_ep1_dma.c ****     CYDMA_DESCR_BASE.descriptor[USBFS_ep1_dma_CHANNEL][0].ctl = USBFS_ep1_dma_DESCR0_CFG;
  37              		.loc 1 79 0
  38 0006 054B     		ldr	r3, .L2+4
  39 0008 0548     		ldr	r0, .L2+8
  40 000a 8421     		movs	r1, #132
  41 000c 4900     		lsls	r1, r1, #1
  42 000e 5850     		str	r0, [r3, r1]
  80:Generated_Source\PSoC4/USBFS_ep1_dma.c ****     CYDMA_DESCR_BASE.descriptor[USBFS_ep1_dma_CHANNEL][1].ctl = USBFS_ep1_dma_DESCR1_CFG;
  43              		.loc 1 80 0
  44 0010 1031     		adds	r1, r1, #16
  45 0012 5A50     		str	r2, [r3, r1]
  81:Generated_Source\PSoC4/USBFS_ep1_dma.c **** 
  82:Generated_Source\PSoC4/USBFS_ep1_dma.c ****     /* If the Generate IRQ option is selected for descriptor 0 or 1, set the
  83:Generated_Source\PSoC4/USBFS_ep1_dma.c ****     * channel bit field in the DMA interrupt mask register.
  84:Generated_Source\PSoC4/USBFS_ep1_dma.c ****     */
  85:Generated_Source\PSoC4/USBFS_ep1_dma.c ****     #if (0u != ((USBFS_ep1_dma_DESCR0_CFG | USBFS_ep1_dma_DESCR1_CFG) & CYDMA_GENERATE_IRQ))
  86:Generated_Source\PSoC4/USBFS_ep1_dma.c ****         CYDMA_INTR_MASK_REG |= USBFS_ep1_dma_CHANNEL_MASK;
  87:Generated_Source\PSoC4/USBFS_ep1_dma.c ****     #endif /* (0u != ((USBFS_ep1_dma_DESCR0_CFG | USBFS_ep1_dma_DESCR1_CFG) & CYDMA_GENERATE_IRQ)) 
  88:Generated_Source\PSoC4/USBFS_ep1_dma.c **** }
  46              		.loc 1 88 0
  47              		@ sp needed
  48 0014 7047     		bx	lr
  49              	.L3:
  50 0016 C046     		.align	2
  51              	.L2:
  52 0018 80101040 		.word	1074794624
  53 001c 00181040 		.word	1074796544
  54 0020 00004044 		.word	1145044992
  55              		.cfi_endproc
  56              	.LFE33:
  57              		.size	USBFS_ep1_dma_Init, .-USBFS_ep1_dma_Init
  58              		.section	.text.USBFS_ep1_dma_Start,"ax",%progbits
  59              		.align	2
  60              		.global	USBFS_ep1_dma_Start
  61              		.code	16
  62              		.thumb_func
  63              		.type	USBFS_ep1_dma_Start, %function
  64              	USBFS_ep1_dma_Start:
  65              	.LFB32:
  40:Generated_Source\PSoC4/USBFS_ep1_dma.c ****     if(0u == USBFS_ep1_dma_initVar)
  66              		.loc 1 40 0
  67              		.cfi_startproc
  68              		@ args = 0, pretend = 0, frame = 0
  69              		@ frame_needed = 0, uses_anonymous_args = 0
  70              	.LVL0:
  71 0000 70B5     		push	{r4, r5, r6, lr}
  72              		.cfi_def_cfa_offset 16
  73              		.cfi_offset 4, -16
  74              		.cfi_offset 5, -12
  75              		.cfi_offset 6, -8
  76              		.cfi_offset 14, -4
  77 0002 0500     		movs	r5, r0
  78 0004 0C00     		movs	r4, r1
  41:Generated_Source\PSoC4/USBFS_ep1_dma.c ****     {
  79              		.loc 1 41 0
  80 0006 0E4B     		ldr	r3, .L6
  81 0008 1B78     		ldrb	r3, [r3]
ARM GAS  C:\Users\TERENC~1\AppData\Local\Temp\ccbv3k4D.s 			page 4


  82 000a 002B     		cmp	r3, #0
  83 000c 04D1     		bne	.L5
  43:Generated_Source\PSoC4/USBFS_ep1_dma.c ****         USBFS_ep1_dma_initVar = 1u;
  84              		.loc 1 43 0
  85 000e FFF7FEFF 		bl	USBFS_ep1_dma_Init
  86              	.LVL1:
  44:Generated_Source\PSoC4/USBFS_ep1_dma.c ****     }
  87              		.loc 1 44 0
  88 0012 0122     		movs	r2, #1
  89 0014 0A4B     		ldr	r3, .L6
  90 0016 1A70     		strb	r2, [r3]
  91              	.L5:
  46:Generated_Source\PSoC4/USBFS_ep1_dma.c ****     USBFS_ep1_dma_SetSrcAddress(0, srcAddress);
  92              		.loc 1 46 0
  93 0018 FFF7FEFF 		bl	CyDmaEnable
  94              	.LVL2:
  95              	.LBB10:
  96              	.LBB11:
  97              		.file 2 "Generated_Source\\PSoC4\\USBFS_ep1_dma.h"
   1:Generated_Source\PSoC4/USBFS_ep1_dma.h **** /*******************************************************************************
   2:Generated_Source\PSoC4/USBFS_ep1_dma.h **** * File Name: USBFS_ep1_dma.h
   3:Generated_Source\PSoC4/USBFS_ep1_dma.h **** * Version 1.0
   4:Generated_Source\PSoC4/USBFS_ep1_dma.h **** *
   5:Generated_Source\PSoC4/USBFS_ep1_dma.h **** * Description:
   6:Generated_Source\PSoC4/USBFS_ep1_dma.h **** *  This file provides DMA channel defines and API function definitions.
   7:Generated_Source\PSoC4/USBFS_ep1_dma.h **** *
   8:Generated_Source\PSoC4/USBFS_ep1_dma.h **** ********************************************************************************
   9:Generated_Source\PSoC4/USBFS_ep1_dma.h **** * Copyright 2015, Cypress Semiconductor Corporation. All rights reserved.
  10:Generated_Source\PSoC4/USBFS_ep1_dma.h **** * You may use this file only in accordance with the license, terms, conditions,
  11:Generated_Source\PSoC4/USBFS_ep1_dma.h **** * disclaimers, and limitations in the end user license agreement accompanying
  12:Generated_Source\PSoC4/USBFS_ep1_dma.h **** * the software package with which this file was provided.
  13:Generated_Source\PSoC4/USBFS_ep1_dma.h **** *******************************************************************************/
  14:Generated_Source\PSoC4/USBFS_ep1_dma.h **** 
  15:Generated_Source\PSoC4/USBFS_ep1_dma.h **** #ifndef CY_DMA_CHANNEL_USBFS_ep1_dma_H
  16:Generated_Source\PSoC4/USBFS_ep1_dma.h **** #define CY_DMA_CHANNEL_USBFS_ep1_dma_H
  17:Generated_Source\PSoC4/USBFS_ep1_dma.h **** 
  18:Generated_Source\PSoC4/USBFS_ep1_dma.h **** #include "CyDMA.h"
  19:Generated_Source\PSoC4/USBFS_ep1_dma.h **** 
  20:Generated_Source\PSoC4/USBFS_ep1_dma.h ****     
  21:Generated_Source\PSoC4/USBFS_ep1_dma.h **** /***************************************
  22:Generated_Source\PSoC4/USBFS_ep1_dma.h **** *   Conditional Compilation Parameters
  23:Generated_Source\PSoC4/USBFS_ep1_dma.h **** ***************************************/
  24:Generated_Source\PSoC4/USBFS_ep1_dma.h **** 
  25:Generated_Source\PSoC4/USBFS_ep1_dma.h **** #define USBFS_ep1_dma_CHANNEL           (USBFS_ep1_dma__CHANNEL_NUMBER)
  26:Generated_Source\PSoC4/USBFS_ep1_dma.h **** #define USBFS_ep1_dma_CHANNEL_MASK      ((uint32)(1UL << USBFS_ep1_dma_CHANNEL))
  27:Generated_Source\PSoC4/USBFS_ep1_dma.h **** 
  28:Generated_Source\PSoC4/USBFS_ep1_dma.h **** 
  29:Generated_Source\PSoC4/USBFS_ep1_dma.h **** /***************************************
  30:Generated_Source\PSoC4/USBFS_ep1_dma.h **** *        Function Prototypes
  31:Generated_Source\PSoC4/USBFS_ep1_dma.h **** ***************************************/
  32:Generated_Source\PSoC4/USBFS_ep1_dma.h **** 
  33:Generated_Source\PSoC4/USBFS_ep1_dma.h **** /* Functions specific to this DMA channel */
  34:Generated_Source\PSoC4/USBFS_ep1_dma.h **** void USBFS_ep1_dma_Init(void);
  35:Generated_Source\PSoC4/USBFS_ep1_dma.h **** void USBFS_ep1_dma_Start(void * srcAddress, void * dstAddress);
  36:Generated_Source\PSoC4/USBFS_ep1_dma.h **** 
  37:Generated_Source\PSoC4/USBFS_ep1_dma.h **** /* Inline functions that call global API functions */
  38:Generated_Source\PSoC4/USBFS_ep1_dma.h **** static void   USBFS_ep1_dma_ChEnable(void);
ARM GAS  C:\Users\TERENC~1\AppData\Local\Temp\ccbv3k4D.s 			page 5


  39:Generated_Source\PSoC4/USBFS_ep1_dma.h **** static void   USBFS_ep1_dma_ChDisable(void);
  40:Generated_Source\PSoC4/USBFS_ep1_dma.h **** static void   USBFS_ep1_dma_Trigger(void);
  41:Generated_Source\PSoC4/USBFS_ep1_dma.h **** static void   USBFS_ep1_dma_SetPriority(int32 priority);
  42:Generated_Source\PSoC4/USBFS_ep1_dma.h **** static int32  USBFS_ep1_dma_GetPriority(void);
  43:Generated_Source\PSoC4/USBFS_ep1_dma.h **** static void   USBFS_ep1_dma_SetNextDescriptor(int32 descriptor);
  44:Generated_Source\PSoC4/USBFS_ep1_dma.h **** static int32  USBFS_ep1_dma_GetNextDescriptor(void);
  45:Generated_Source\PSoC4/USBFS_ep1_dma.h **** static void   USBFS_ep1_dma_SetConfiguration(int32 descriptor, const cydma_init_struct * config);
  46:Generated_Source\PSoC4/USBFS_ep1_dma.h **** static void   USBFS_ep1_dma_ValidateDescriptor(int32 descriptor);
  47:Generated_Source\PSoC4/USBFS_ep1_dma.h **** static uint32 USBFS_ep1_dma_GetDescriptorStatus(int32 descriptor);
  48:Generated_Source\PSoC4/USBFS_ep1_dma.h **** static void   USBFS_ep1_dma_SetSrcAddress(int32 descriptor, void * srcAddress);
  49:Generated_Source\PSoC4/USBFS_ep1_dma.h **** static void * USBFS_ep1_dma_GetSrcAddress(int32 descriptor);
  50:Generated_Source\PSoC4/USBFS_ep1_dma.h **** static void   USBFS_ep1_dma_SetDstAddress(int32 descriptor, void * dstAddress);
  51:Generated_Source\PSoC4/USBFS_ep1_dma.h **** static void * USBFS_ep1_dma_GetDstAddress(int32 descriptor);
  52:Generated_Source\PSoC4/USBFS_ep1_dma.h **** static void   USBFS_ep1_dma_SetDataElementSize(int32 descriptor, uint32 dataElementSize);
  53:Generated_Source\PSoC4/USBFS_ep1_dma.h **** static uint32 USBFS_ep1_dma_GetDataElementSize(int32 descriptor);
  54:Generated_Source\PSoC4/USBFS_ep1_dma.h **** static void   USBFS_ep1_dma_SetNumDataElements(int32 descriptor, int32 numDataElements);
  55:Generated_Source\PSoC4/USBFS_ep1_dma.h **** static int32  USBFS_ep1_dma_GetNumDataElements(int32 descriptor);
  56:Generated_Source\PSoC4/USBFS_ep1_dma.h **** static void   USBFS_ep1_dma_SetSrcDstTransferWidth(int32 descriptor, uint32 transferWidth);
  57:Generated_Source\PSoC4/USBFS_ep1_dma.h **** static uint32 USBFS_ep1_dma_GetSrcDstTransferWidth(int32 descriptor);
  58:Generated_Source\PSoC4/USBFS_ep1_dma.h **** static void   USBFS_ep1_dma_SetAddressIncrement(int32 descriptor, uint32 addressIncrement);
  59:Generated_Source\PSoC4/USBFS_ep1_dma.h **** static uint32 USBFS_ep1_dma_GetAddressIncrement(int32 descriptor);
  60:Generated_Source\PSoC4/USBFS_ep1_dma.h **** static void   USBFS_ep1_dma_SetTriggerType(int32 descriptor, uint32 triggerType);
  61:Generated_Source\PSoC4/USBFS_ep1_dma.h **** static uint32 USBFS_ep1_dma_GetTriggerType(int32 descriptor);
  62:Generated_Source\PSoC4/USBFS_ep1_dma.h **** static void   USBFS_ep1_dma_SetTransferMode(int32 descriptor, uint32 transferMode);
  63:Generated_Source\PSoC4/USBFS_ep1_dma.h **** static uint32 USBFS_ep1_dma_GetTransferMode(int32 descriptor);
  64:Generated_Source\PSoC4/USBFS_ep1_dma.h **** static void   USBFS_ep1_dma_SetPreemptable(int32 descriptor, uint32 preemptable);
  65:Generated_Source\PSoC4/USBFS_ep1_dma.h **** static uint32 USBFS_ep1_dma_GetPreemptable(int32 descriptor);
  66:Generated_Source\PSoC4/USBFS_ep1_dma.h **** static void   USBFS_ep1_dma_SetPostCompletionActions(int32 descriptor, uint32 actions);
  67:Generated_Source\PSoC4/USBFS_ep1_dma.h **** static uint32 USBFS_ep1_dma_GetPostCompletionAction(int32 descriptor);
  68:Generated_Source\PSoC4/USBFS_ep1_dma.h **** static cydma_callback_t USBFS_ep1_dma_SetInterruptCallback(cydma_callback_t callback);
  69:Generated_Source\PSoC4/USBFS_ep1_dma.h **** static cydma_callback_t USBFS_ep1_dma_GetInterruptCallback(void);
  70:Generated_Source\PSoC4/USBFS_ep1_dma.h **** 
  71:Generated_Source\PSoC4/USBFS_ep1_dma.h **** 
  72:Generated_Source\PSoC4/USBFS_ep1_dma.h **** /*******************************************************************************
  73:Generated_Source\PSoC4/USBFS_ep1_dma.h **** * Function Name: USBFS_ep1_dma_ChEnable
  74:Generated_Source\PSoC4/USBFS_ep1_dma.h **** ********************************************************************************
  75:Generated_Source\PSoC4/USBFS_ep1_dma.h **** *
  76:Generated_Source\PSoC4/USBFS_ep1_dma.h **** * Summary:
  77:Generated_Source\PSoC4/USBFS_ep1_dma.h **** *  Enables the DMA channel. It is not necessary to call USBFS_ep1_dma_ChEnable()
  78:Generated_Source\PSoC4/USBFS_ep1_dma.h **** *  because the USBFS_ep1_dma_Start() API calls this function, which is the
  79:Generated_Source\PSoC4/USBFS_ep1_dma.h **** *  preferred method to begin the component operation.
  80:Generated_Source\PSoC4/USBFS_ep1_dma.h **** *
  81:Generated_Source\PSoC4/USBFS_ep1_dma.h **** * Parameters:
  82:Generated_Source\PSoC4/USBFS_ep1_dma.h **** *  None.
  83:Generated_Source\PSoC4/USBFS_ep1_dma.h **** *                   
  84:Generated_Source\PSoC4/USBFS_ep1_dma.h **** * Return:
  85:Generated_Source\PSoC4/USBFS_ep1_dma.h **** *  None.
  86:Generated_Source\PSoC4/USBFS_ep1_dma.h **** *
  87:Generated_Source\PSoC4/USBFS_ep1_dma.h **** * Side effect:
  88:Generated_Source\PSoC4/USBFS_ep1_dma.h **** *  If this function is called before USBFS_ep1_dma_Start(), or USBFS_ep1_dma_Init()
  89:Generated_Source\PSoC4/USBFS_ep1_dma.h **** *  or USBFS_ep1_dma_SetConfiguration(), and USBFS_ep1_dma_SetSrcAddress()
  90:Generated_Source\PSoC4/USBFS_ep1_dma.h **** *  and USBFS_ep1_dma_SetDstAddress the operation of the DMA is 
  91:Generated_Source\PSoC4/USBFS_ep1_dma.h **** *  undefined and could result in system data corruption. 
  92:Generated_Source\PSoC4/USBFS_ep1_dma.h **** *
  93:Generated_Source\PSoC4/USBFS_ep1_dma.h **** *******************************************************************************/
  94:Generated_Source\PSoC4/USBFS_ep1_dma.h **** static CY_INLINE void USBFS_ep1_dma_ChEnable(void)
  95:Generated_Source\PSoC4/USBFS_ep1_dma.h **** {
ARM GAS  C:\Users\TERENC~1\AppData\Local\Temp\ccbv3k4D.s 			page 6


  96:Generated_Source\PSoC4/USBFS_ep1_dma.h ****     CyDmaChEnable(USBFS_ep1_dma_CHANNEL);
  97:Generated_Source\PSoC4/USBFS_ep1_dma.h **** }
  98:Generated_Source\PSoC4/USBFS_ep1_dma.h **** 
  99:Generated_Source\PSoC4/USBFS_ep1_dma.h **** 
 100:Generated_Source\PSoC4/USBFS_ep1_dma.h **** /*******************************************************************************
 101:Generated_Source\PSoC4/USBFS_ep1_dma.h **** * Function Name: USBFS_ep1_dma_ChDisable
 102:Generated_Source\PSoC4/USBFS_ep1_dma.h **** ********************************************************************************
 103:Generated_Source\PSoC4/USBFS_ep1_dma.h **** *
 104:Generated_Source\PSoC4/USBFS_ep1_dma.h **** * Summary:
 105:Generated_Source\PSoC4/USBFS_ep1_dma.h **** *  Disables the DMA channel.
 106:Generated_Source\PSoC4/USBFS_ep1_dma.h **** *
 107:Generated_Source\PSoC4/USBFS_ep1_dma.h **** * Parameters:
 108:Generated_Source\PSoC4/USBFS_ep1_dma.h **** *  None.
 109:Generated_Source\PSoC4/USBFS_ep1_dma.h **** *                   
 110:Generated_Source\PSoC4/USBFS_ep1_dma.h **** * Return:
 111:Generated_Source\PSoC4/USBFS_ep1_dma.h **** *  None.
 112:Generated_Source\PSoC4/USBFS_ep1_dma.h **** *
 113:Generated_Source\PSoC4/USBFS_ep1_dma.h **** * Side effect:
 114:Generated_Source\PSoC4/USBFS_ep1_dma.h **** *  If this function is called during a DMA transfer the transfer is aborted. 
 115:Generated_Source\PSoC4/USBFS_ep1_dma.h **** *
 116:Generated_Source\PSoC4/USBFS_ep1_dma.h **** *******************************************************************************/
 117:Generated_Source\PSoC4/USBFS_ep1_dma.h **** static CY_INLINE void USBFS_ep1_dma_ChDisable(void)
 118:Generated_Source\PSoC4/USBFS_ep1_dma.h **** {
 119:Generated_Source\PSoC4/USBFS_ep1_dma.h ****     CyDmaChDisable(USBFS_ep1_dma_CHANNEL);
 120:Generated_Source\PSoC4/USBFS_ep1_dma.h **** }
 121:Generated_Source\PSoC4/USBFS_ep1_dma.h **** 
 122:Generated_Source\PSoC4/USBFS_ep1_dma.h **** 
 123:Generated_Source\PSoC4/USBFS_ep1_dma.h **** /*******************************************************************************
 124:Generated_Source\PSoC4/USBFS_ep1_dma.h **** * Function Name: USBFS_ep1_dma_Trigger
 125:Generated_Source\PSoC4/USBFS_ep1_dma.h **** ********************************************************************************
 126:Generated_Source\PSoC4/USBFS_ep1_dma.h **** *
 127:Generated_Source\PSoC4/USBFS_ep1_dma.h **** * Summary:
 128:Generated_Source\PSoC4/USBFS_ep1_dma.h **** *  Triggers the DMA channel, this is useful only for software triggers. This is
 129:Generated_Source\PSoC4/USBFS_ep1_dma.h **** *  not needed when hardware triggers are used.
 130:Generated_Source\PSoC4/USBFS_ep1_dma.h **** *
 131:Generated_Source\PSoC4/USBFS_ep1_dma.h **** * Parameters:
 132:Generated_Source\PSoC4/USBFS_ep1_dma.h **** *  None.
 133:Generated_Source\PSoC4/USBFS_ep1_dma.h **** *                   
 134:Generated_Source\PSoC4/USBFS_ep1_dma.h **** * Return:
 135:Generated_Source\PSoC4/USBFS_ep1_dma.h **** *  None. 
 136:Generated_Source\PSoC4/USBFS_ep1_dma.h **** *
 137:Generated_Source\PSoC4/USBFS_ep1_dma.h **** *******************************************************************************/
 138:Generated_Source\PSoC4/USBFS_ep1_dma.h **** static CY_INLINE void USBFS_ep1_dma_Trigger(void)
 139:Generated_Source\PSoC4/USBFS_ep1_dma.h **** {
 140:Generated_Source\PSoC4/USBFS_ep1_dma.h ****     CyDmaTrigger(USBFS_ep1_dma_CHANNEL);
 141:Generated_Source\PSoC4/USBFS_ep1_dma.h **** }
 142:Generated_Source\PSoC4/USBFS_ep1_dma.h **** 
 143:Generated_Source\PSoC4/USBFS_ep1_dma.h **** 
 144:Generated_Source\PSoC4/USBFS_ep1_dma.h **** /*******************************************************************************
 145:Generated_Source\PSoC4/USBFS_ep1_dma.h **** * Function Name: USBFS_ep1_dma_SetPriority
 146:Generated_Source\PSoC4/USBFS_ep1_dma.h **** ********************************************************************************
 147:Generated_Source\PSoC4/USBFS_ep1_dma.h **** *
 148:Generated_Source\PSoC4/USBFS_ep1_dma.h **** * Summary:
 149:Generated_Source\PSoC4/USBFS_ep1_dma.h **** *  Sets the priority for the channel.
 150:Generated_Source\PSoC4/USBFS_ep1_dma.h **** *
 151:Generated_Source\PSoC4/USBFS_ep1_dma.h **** * Parameters:
 152:Generated_Source\PSoC4/USBFS_ep1_dma.h **** *  priority: Priority for channel. Priority can be 0,1,2, or 3.
ARM GAS  C:\Users\TERENC~1\AppData\Local\Temp\ccbv3k4D.s 			page 7


 153:Generated_Source\PSoC4/USBFS_ep1_dma.h **** *            0 is the highest priority.
 154:Generated_Source\PSoC4/USBFS_ep1_dma.h **** *                   
 155:Generated_Source\PSoC4/USBFS_ep1_dma.h **** * Return:
 156:Generated_Source\PSoC4/USBFS_ep1_dma.h **** *  None.
 157:Generated_Source\PSoC4/USBFS_ep1_dma.h **** *
 158:Generated_Source\PSoC4/USBFS_ep1_dma.h **** * Side effect:
 159:Generated_Source\PSoC4/USBFS_ep1_dma.h **** *  This function should not be called while the channel is enabled.
 160:Generated_Source\PSoC4/USBFS_ep1_dma.h **** *
 161:Generated_Source\PSoC4/USBFS_ep1_dma.h **** *******************************************************************************/
 162:Generated_Source\PSoC4/USBFS_ep1_dma.h **** static CY_INLINE void USBFS_ep1_dma_SetPriority(int32 priority)
 163:Generated_Source\PSoC4/USBFS_ep1_dma.h **** {
 164:Generated_Source\PSoC4/USBFS_ep1_dma.h ****     CyDmaSetPriority(USBFS_ep1_dma_CHANNEL, priority);
 165:Generated_Source\PSoC4/USBFS_ep1_dma.h **** }
 166:Generated_Source\PSoC4/USBFS_ep1_dma.h **** 
 167:Generated_Source\PSoC4/USBFS_ep1_dma.h **** 
 168:Generated_Source\PSoC4/USBFS_ep1_dma.h **** /*******************************************************************************
 169:Generated_Source\PSoC4/USBFS_ep1_dma.h **** * Function Name: USBFS_ep1_dma_GetPriority
 170:Generated_Source\PSoC4/USBFS_ep1_dma.h **** ********************************************************************************
 171:Generated_Source\PSoC4/USBFS_ep1_dma.h **** *
 172:Generated_Source\PSoC4/USBFS_ep1_dma.h **** * Summary:
 173:Generated_Source\PSoC4/USBFS_ep1_dma.h **** *  Gets the priority for the channel.
 174:Generated_Source\PSoC4/USBFS_ep1_dma.h **** *
 175:Generated_Source\PSoC4/USBFS_ep1_dma.h **** * Parameters:
 176:Generated_Source\PSoC4/USBFS_ep1_dma.h **** *  None.
 177:Generated_Source\PSoC4/USBFS_ep1_dma.h **** *                   
 178:Generated_Source\PSoC4/USBFS_ep1_dma.h **** * Return:
 179:Generated_Source\PSoC4/USBFS_ep1_dma.h **** *  Priority for channel. Priority can be 0,1,2, or 3. 0 is the highest priority.
 180:Generated_Source\PSoC4/USBFS_ep1_dma.h **** *
 181:Generated_Source\PSoC4/USBFS_ep1_dma.h **** *******************************************************************************/
 182:Generated_Source\PSoC4/USBFS_ep1_dma.h **** static CY_INLINE int32 USBFS_ep1_dma_GetPriority(void)
 183:Generated_Source\PSoC4/USBFS_ep1_dma.h **** {
 184:Generated_Source\PSoC4/USBFS_ep1_dma.h ****     return (CyDmaGetPriority(USBFS_ep1_dma_CHANNEL));
 185:Generated_Source\PSoC4/USBFS_ep1_dma.h **** }
 186:Generated_Source\PSoC4/USBFS_ep1_dma.h **** 
 187:Generated_Source\PSoC4/USBFS_ep1_dma.h **** 
 188:Generated_Source\PSoC4/USBFS_ep1_dma.h **** /*******************************************************************************
 189:Generated_Source\PSoC4/USBFS_ep1_dma.h **** * Function Name: USBFS_ep1_dma_SetNextDescriptor
 190:Generated_Source\PSoC4/USBFS_ep1_dma.h **** ********************************************************************************
 191:Generated_Source\PSoC4/USBFS_ep1_dma.h **** *
 192:Generated_Source\PSoC4/USBFS_ep1_dma.h **** * Summary:
 193:Generated_Source\PSoC4/USBFS_ep1_dma.h **** *  Sets the descriptor that should be run the next time the channel is
 194:Generated_Source\PSoC4/USBFS_ep1_dma.h **** *  triggered.
 195:Generated_Source\PSoC4/USBFS_ep1_dma.h **** *
 196:Generated_Source\PSoC4/USBFS_ep1_dma.h **** * Parameters:
 197:Generated_Source\PSoC4/USBFS_ep1_dma.h **** *  descriptor: Next Descriptor to run (0 or 1).
 198:Generated_Source\PSoC4/USBFS_ep1_dma.h **** *                   
 199:Generated_Source\PSoC4/USBFS_ep1_dma.h **** * Side effect:
 200:Generated_Source\PSoC4/USBFS_ep1_dma.h **** *  This function should not be called while the channel is enabled.
 201:Generated_Source\PSoC4/USBFS_ep1_dma.h **** *
 202:Generated_Source\PSoC4/USBFS_ep1_dma.h **** *******************************************************************************/
 203:Generated_Source\PSoC4/USBFS_ep1_dma.h **** static CY_INLINE void USBFS_ep1_dma_SetNextDescriptor(int32 descriptor)
 204:Generated_Source\PSoC4/USBFS_ep1_dma.h **** {
 205:Generated_Source\PSoC4/USBFS_ep1_dma.h ****     CyDmaSetNextDescriptor(USBFS_ep1_dma_CHANNEL, descriptor);
 206:Generated_Source\PSoC4/USBFS_ep1_dma.h **** }
 207:Generated_Source\PSoC4/USBFS_ep1_dma.h **** 
 208:Generated_Source\PSoC4/USBFS_ep1_dma.h **** 
 209:Generated_Source\PSoC4/USBFS_ep1_dma.h **** /*******************************************************************************
ARM GAS  C:\Users\TERENC~1\AppData\Local\Temp\ccbv3k4D.s 			page 8


 210:Generated_Source\PSoC4/USBFS_ep1_dma.h **** * Function Name: USBFS_ep1_dma_GetNextDescriptor
 211:Generated_Source\PSoC4/USBFS_ep1_dma.h **** ********************************************************************************
 212:Generated_Source\PSoC4/USBFS_ep1_dma.h **** *
 213:Generated_Source\PSoC4/USBFS_ep1_dma.h **** * Summary:
 214:Generated_Source\PSoC4/USBFS_ep1_dma.h **** *  Returns the next descriptor that should be run, as set by 
 215:Generated_Source\PSoC4/USBFS_ep1_dma.h **** *  USBFS_ep1_dma_SetNextDescriptor().
 216:Generated_Source\PSoC4/USBFS_ep1_dma.h **** *
 217:Generated_Source\PSoC4/USBFS_ep1_dma.h **** * Parameters:
 218:Generated_Source\PSoC4/USBFS_ep1_dma.h **** *  None.
 219:Generated_Source\PSoC4/USBFS_ep1_dma.h **** *                   
 220:Generated_Source\PSoC4/USBFS_ep1_dma.h **** * Return:
 221:Generated_Source\PSoC4/USBFS_ep1_dma.h **** *  Next Descriptor to run (0 or 1).
 222:Generated_Source\PSoC4/USBFS_ep1_dma.h **** *
 223:Generated_Source\PSoC4/USBFS_ep1_dma.h **** *******************************************************************************/
 224:Generated_Source\PSoC4/USBFS_ep1_dma.h **** static CY_INLINE int32 USBFS_ep1_dma_GetNextDescriptor(void)
 225:Generated_Source\PSoC4/USBFS_ep1_dma.h **** {
 226:Generated_Source\PSoC4/USBFS_ep1_dma.h ****     return (CyDmaGetNextDescriptor(USBFS_ep1_dma_CHANNEL));
 227:Generated_Source\PSoC4/USBFS_ep1_dma.h **** }
 228:Generated_Source\PSoC4/USBFS_ep1_dma.h **** 
 229:Generated_Source\PSoC4/USBFS_ep1_dma.h **** 
 230:Generated_Source\PSoC4/USBFS_ep1_dma.h **** /*******************************************************************************
 231:Generated_Source\PSoC4/USBFS_ep1_dma.h **** * Function Name: USBFS_ep1_dma_SetConfiguration
 232:Generated_Source\PSoC4/USBFS_ep1_dma.h **** ********************************************************************************
 233:Generated_Source\PSoC4/USBFS_ep1_dma.h **** *
 234:Generated_Source\PSoC4/USBFS_ep1_dma.h **** * Summary:
 235:Generated_Source\PSoC4/USBFS_ep1_dma.h **** *  Sets configuration information for the specified descriptor.
 236:Generated_Source\PSoC4/USBFS_ep1_dma.h **** *
 237:Generated_Source\PSoC4/USBFS_ep1_dma.h **** * Parameters:
 238:Generated_Source\PSoC4/USBFS_ep1_dma.h **** *  descriptor: Descriptor (0 or 1) modified by this function.
 239:Generated_Source\PSoC4/USBFS_ep1_dma.h **** *  config: Pointer to a configuration structure. Refer to cydma_init_struct
 240:Generated_Source\PSoC4/USBFS_ep1_dma.h **** *          structure definition in CyDMA_P4.h or the component datasheet.
 241:Generated_Source\PSoC4/USBFS_ep1_dma.h **** *                   
 242:Generated_Source\PSoC4/USBFS_ep1_dma.h **** * Return:
 243:Generated_Source\PSoC4/USBFS_ep1_dma.h **** *  None.
 244:Generated_Source\PSoC4/USBFS_ep1_dma.h **** *
 245:Generated_Source\PSoC4/USBFS_ep1_dma.h **** * Side effect:
 246:Generated_Source\PSoC4/USBFS_ep1_dma.h **** *  The status register associated with the specified descriptor is reset to
 247:Generated_Source\PSoC4/USBFS_ep1_dma.h **** *  zero after this function call. This function also validates the descriptor.
 248:Generated_Source\PSoC4/USBFS_ep1_dma.h **** *  This function should not be called while the descriptor is active.
 249:Generated_Source\PSoC4/USBFS_ep1_dma.h **** *  This can be checked by calling CyDmaGetStatus().
 250:Generated_Source\PSoC4/USBFS_ep1_dma.h **** *
 251:Generated_Source\PSoC4/USBFS_ep1_dma.h **** *******************************************************************************/
 252:Generated_Source\PSoC4/USBFS_ep1_dma.h **** static CY_INLINE void USBFS_ep1_dma_SetConfiguration(int32 descriptor, const cydma_init_struct * co
 253:Generated_Source\PSoC4/USBFS_ep1_dma.h **** {
 254:Generated_Source\PSoC4/USBFS_ep1_dma.h ****     CyDmaSetConfiguration(USBFS_ep1_dma_CHANNEL, descriptor, config);
 255:Generated_Source\PSoC4/USBFS_ep1_dma.h **** }
 256:Generated_Source\PSoC4/USBFS_ep1_dma.h **** 
 257:Generated_Source\PSoC4/USBFS_ep1_dma.h **** 
 258:Generated_Source\PSoC4/USBFS_ep1_dma.h **** /*******************************************************************************
 259:Generated_Source\PSoC4/USBFS_ep1_dma.h **** * Function Name: USBFS_ep1_dma_ValidateDescriptor
 260:Generated_Source\PSoC4/USBFS_ep1_dma.h **** ********************************************************************************
 261:Generated_Source\PSoC4/USBFS_ep1_dma.h **** *
 262:Generated_Source\PSoC4/USBFS_ep1_dma.h **** * Summary:
 263:Generated_Source\PSoC4/USBFS_ep1_dma.h **** *  Validates the specified descriptor after it has been invalidated.
 264:Generated_Source\PSoC4/USBFS_ep1_dma.h **** *
 265:Generated_Source\PSoC4/USBFS_ep1_dma.h **** * Parameters:
 266:Generated_Source\PSoC4/USBFS_ep1_dma.h **** *  descriptor: Descriptor (0 or 1) modified by this function.
ARM GAS  C:\Users\TERENC~1\AppData\Local\Temp\ccbv3k4D.s 			page 9


 267:Generated_Source\PSoC4/USBFS_ep1_dma.h **** *                   
 268:Generated_Source\PSoC4/USBFS_ep1_dma.h **** * Return:
 269:Generated_Source\PSoC4/USBFS_ep1_dma.h **** *  None. 
 270:Generated_Source\PSoC4/USBFS_ep1_dma.h **** *
 271:Generated_Source\PSoC4/USBFS_ep1_dma.h **** * Side effect:
 272:Generated_Source\PSoC4/USBFS_ep1_dma.h **** *  The status register associated with the specified descriptor is reset to
 273:Generated_Source\PSoC4/USBFS_ep1_dma.h **** *  zero after this function call. This function should not be called while the
 274:Generated_Source\PSoC4/USBFS_ep1_dma.h **** *  descriptor is active. This can be checked by calling CyDmaGetStatus().
 275:Generated_Source\PSoC4/USBFS_ep1_dma.h **** *
 276:Generated_Source\PSoC4/USBFS_ep1_dma.h **** *******************************************************************************/
 277:Generated_Source\PSoC4/USBFS_ep1_dma.h **** static CY_INLINE void USBFS_ep1_dma_ValidateDescriptor(int32 descriptor)
 278:Generated_Source\PSoC4/USBFS_ep1_dma.h **** {
 279:Generated_Source\PSoC4/USBFS_ep1_dma.h ****     CyDmaValidateDescriptor(USBFS_ep1_dma_CHANNEL, descriptor);
 280:Generated_Source\PSoC4/USBFS_ep1_dma.h **** }
 281:Generated_Source\PSoC4/USBFS_ep1_dma.h **** 
 282:Generated_Source\PSoC4/USBFS_ep1_dma.h **** 
 283:Generated_Source\PSoC4/USBFS_ep1_dma.h **** /*******************************************************************************
 284:Generated_Source\PSoC4/USBFS_ep1_dma.h **** * Function Name: USBFS_ep1_dma_GetDescriptorStatus
 285:Generated_Source\PSoC4/USBFS_ep1_dma.h **** ********************************************************************************
 286:Generated_Source\PSoC4/USBFS_ep1_dma.h **** *
 287:Generated_Source\PSoC4/USBFS_ep1_dma.h **** * Summary:
 288:Generated_Source\PSoC4/USBFS_ep1_dma.h **** *  Returns the status of the specified descriptor.
 289:Generated_Source\PSoC4/USBFS_ep1_dma.h **** *
 290:Generated_Source\PSoC4/USBFS_ep1_dma.h **** * Parameters:
 291:Generated_Source\PSoC4/USBFS_ep1_dma.h **** *  descriptor: Descriptor (0 or 1) modified by this function.
 292:Generated_Source\PSoC4/USBFS_ep1_dma.h **** *                   
 293:Generated_Source\PSoC4/USBFS_ep1_dma.h **** * Return:
 294:Generated_Source\PSoC4/USBFS_ep1_dma.h **** *  Returns the contents of the specified descriptors status register. Refer to 
 295:Generated_Source\PSoC4/USBFS_ep1_dma.h **** *  descriptor status register bit definitions in CyDMA_P4.h or the API
 296:Generated_Source\PSoC4/USBFS_ep1_dma.h **** *  description in the DMA channel datasheet for more information.
 297:Generated_Source\PSoC4/USBFS_ep1_dma.h **** *
 298:Generated_Source\PSoC4/USBFS_ep1_dma.h **** *******************************************************************************/
 299:Generated_Source\PSoC4/USBFS_ep1_dma.h **** static CY_INLINE uint32 USBFS_ep1_dma_GetDescriptorStatus(int32 descriptor)
 300:Generated_Source\PSoC4/USBFS_ep1_dma.h **** {
 301:Generated_Source\PSoC4/USBFS_ep1_dma.h ****     return (CyDmaGetDescriptorStatus(USBFS_ep1_dma_CHANNEL, descriptor));
 302:Generated_Source\PSoC4/USBFS_ep1_dma.h **** }
 303:Generated_Source\PSoC4/USBFS_ep1_dma.h **** 
 304:Generated_Source\PSoC4/USBFS_ep1_dma.h **** 
 305:Generated_Source\PSoC4/USBFS_ep1_dma.h **** /*******************************************************************************
 306:Generated_Source\PSoC4/USBFS_ep1_dma.h **** * Function Name: USBFS_ep1_dma_SetSrcAddress
 307:Generated_Source\PSoC4/USBFS_ep1_dma.h **** ********************************************************************************
 308:Generated_Source\PSoC4/USBFS_ep1_dma.h **** *
 309:Generated_Source\PSoC4/USBFS_ep1_dma.h **** * Summary:
 310:Generated_Source\PSoC4/USBFS_ep1_dma.h **** *  Configures the source address for the specified descriptor.
 311:Generated_Source\PSoC4/USBFS_ep1_dma.h **** *
 312:Generated_Source\PSoC4/USBFS_ep1_dma.h **** * Parameters:
 313:Generated_Source\PSoC4/USBFS_ep1_dma.h **** *  descriptor: Descriptor (0 or 1) modified by this function.
 314:Generated_Source\PSoC4/USBFS_ep1_dma.h **** *  srcAddress: Address of DMA transfer source.
 315:Generated_Source\PSoC4/USBFS_ep1_dma.h **** *                   
 316:Generated_Source\PSoC4/USBFS_ep1_dma.h **** * Return:
 317:Generated_Source\PSoC4/USBFS_ep1_dma.h **** *  None.
 318:Generated_Source\PSoC4/USBFS_ep1_dma.h **** *
 319:Generated_Source\PSoC4/USBFS_ep1_dma.h **** * Side effect:
 320:Generated_Source\PSoC4/USBFS_ep1_dma.h **** *  This function should not be called when the specified descriptor is active
 321:Generated_Source\PSoC4/USBFS_ep1_dma.h **** *  in the DMA transfer engine. This can be checked by calling CyDmaGetStatus(). 
 322:Generated_Source\PSoC4/USBFS_ep1_dma.h **** *
 323:Generated_Source\PSoC4/USBFS_ep1_dma.h **** *******************************************************************************/
ARM GAS  C:\Users\TERENC~1\AppData\Local\Temp\ccbv3k4D.s 			page 10


 324:Generated_Source\PSoC4/USBFS_ep1_dma.h **** static CY_INLINE void USBFS_ep1_dma_SetSrcAddress(int32 descriptor, void * srcAddress)
 325:Generated_Source\PSoC4/USBFS_ep1_dma.h **** {
 326:Generated_Source\PSoC4/USBFS_ep1_dma.h ****     CyDmaSetSrcAddress(USBFS_ep1_dma_CHANNEL, descriptor, srcAddress);
  98              		.loc 2 326 0
  99 001c 2A00     		movs	r2, r5
 100 001e 0021     		movs	r1, #0
 101 0020 0820     		movs	r0, #8
 102 0022 FFF7FEFF 		bl	CyDmaSetSrcAddress
 103              	.LVL3:
 104              	.LBE11:
 105              	.LBE10:
 106              	.LBB12:
 107              	.LBB13:
 327:Generated_Source\PSoC4/USBFS_ep1_dma.h **** }
 328:Generated_Source\PSoC4/USBFS_ep1_dma.h **** 
 329:Generated_Source\PSoC4/USBFS_ep1_dma.h **** 
 330:Generated_Source\PSoC4/USBFS_ep1_dma.h **** /*******************************************************************************
 331:Generated_Source\PSoC4/USBFS_ep1_dma.h **** * Function Name: USBFS_ep1_dma_GetSrcAddress
 332:Generated_Source\PSoC4/USBFS_ep1_dma.h **** ********************************************************************************
 333:Generated_Source\PSoC4/USBFS_ep1_dma.h **** *
 334:Generated_Source\PSoC4/USBFS_ep1_dma.h **** * Summary:
 335:Generated_Source\PSoC4/USBFS_ep1_dma.h **** *  Returns the source address for the specified descriptor, set by either 
 336:Generated_Source\PSoC4/USBFS_ep1_dma.h **** *  USBFS_ep1_dma_Start() or USBFS_ep1_dma_SetSrcAddress().
 337:Generated_Source\PSoC4/USBFS_ep1_dma.h **** *
 338:Generated_Source\PSoC4/USBFS_ep1_dma.h **** * Parameters:
 339:Generated_Source\PSoC4/USBFS_ep1_dma.h **** *  descriptor: Specifies descriptor (0 or 1) used by this function.
 340:Generated_Source\PSoC4/USBFS_ep1_dma.h **** *                   
 341:Generated_Source\PSoC4/USBFS_ep1_dma.h **** * Return:
 342:Generated_Source\PSoC4/USBFS_ep1_dma.h **** *  Source address written to specified descriptor.
 343:Generated_Source\PSoC4/USBFS_ep1_dma.h **** *
 344:Generated_Source\PSoC4/USBFS_ep1_dma.h **** *******************************************************************************/
 345:Generated_Source\PSoC4/USBFS_ep1_dma.h **** static CY_INLINE void * USBFS_ep1_dma_GetSrcAddress(int32 descriptor)
 346:Generated_Source\PSoC4/USBFS_ep1_dma.h **** {
 347:Generated_Source\PSoC4/USBFS_ep1_dma.h ****     return (CyDmaGetSrcAddress(USBFS_ep1_dma_CHANNEL, descriptor));
 348:Generated_Source\PSoC4/USBFS_ep1_dma.h **** }
 349:Generated_Source\PSoC4/USBFS_ep1_dma.h **** 
 350:Generated_Source\PSoC4/USBFS_ep1_dma.h **** 
 351:Generated_Source\PSoC4/USBFS_ep1_dma.h **** /*******************************************************************************
 352:Generated_Source\PSoC4/USBFS_ep1_dma.h **** * Function Name: USBFS_ep1_dma_SetDstAddress
 353:Generated_Source\PSoC4/USBFS_ep1_dma.h **** ********************************************************************************
 354:Generated_Source\PSoC4/USBFS_ep1_dma.h **** *
 355:Generated_Source\PSoC4/USBFS_ep1_dma.h **** * Summary:
 356:Generated_Source\PSoC4/USBFS_ep1_dma.h **** *  Configures the destination address for the specified descriptor.
 357:Generated_Source\PSoC4/USBFS_ep1_dma.h **** *
 358:Generated_Source\PSoC4/USBFS_ep1_dma.h **** * Parameters:
 359:Generated_Source\PSoC4/USBFS_ep1_dma.h **** *  descriptor: Descriptor (0 or 1) modified by this function.
 360:Generated_Source\PSoC4/USBFS_ep1_dma.h **** *  dstAddress: Address of DMA transfer destination.
 361:Generated_Source\PSoC4/USBFS_ep1_dma.h **** *                   
 362:Generated_Source\PSoC4/USBFS_ep1_dma.h **** * Return:
 363:Generated_Source\PSoC4/USBFS_ep1_dma.h **** *  None.
 364:Generated_Source\PSoC4/USBFS_ep1_dma.h **** *
 365:Generated_Source\PSoC4/USBFS_ep1_dma.h **** * Side effect:
 366:Generated_Source\PSoC4/USBFS_ep1_dma.h **** *  This function should not be called when the specified descriptor is active
 367:Generated_Source\PSoC4/USBFS_ep1_dma.h **** *  in the DMA transfer engine. This can be checked by calling CyDmaGetStatus(). 
 368:Generated_Source\PSoC4/USBFS_ep1_dma.h **** *
 369:Generated_Source\PSoC4/USBFS_ep1_dma.h **** *******************************************************************************/
 370:Generated_Source\PSoC4/USBFS_ep1_dma.h **** static CY_INLINE void USBFS_ep1_dma_SetDstAddress(int32 descriptor, void * dstAddress)
ARM GAS  C:\Users\TERENC~1\AppData\Local\Temp\ccbv3k4D.s 			page 11


 371:Generated_Source\PSoC4/USBFS_ep1_dma.h **** {
 372:Generated_Source\PSoC4/USBFS_ep1_dma.h ****     CyDmaSetDstAddress(USBFS_ep1_dma_CHANNEL, descriptor, dstAddress);
 108              		.loc 2 372 0
 109 0026 2200     		movs	r2, r4
 110 0028 0021     		movs	r1, #0
 111 002a 0820     		movs	r0, #8
 112 002c FFF7FEFF 		bl	CyDmaSetDstAddress
 113              	.LVL4:
 114              	.LBE13:
 115              	.LBE12:
 116              	.LBB14:
 117              	.LBB15:
 279:Generated_Source\PSoC4/USBFS_ep1_dma.h **** }
 118              		.loc 2 279 0
 119 0030 0021     		movs	r1, #0
 120 0032 0820     		movs	r0, #8
 121 0034 FFF7FEFF 		bl	CyDmaValidateDescriptor
 122              	.LVL5:
 123              	.LBE15:
 124              	.LBE14:
 125              	.LBB16:
 126              	.LBB17:
  96:Generated_Source\PSoC4/USBFS_ep1_dma.h **** }
 127              		.loc 2 96 0
 128 0038 0820     		movs	r0, #8
 129 003a FFF7FEFF 		bl	CyDmaChEnable
 130              	.LVL6:
 131              	.LBE17:
 132              	.LBE16:
  51:Generated_Source\PSoC4/USBFS_ep1_dma.c **** 
 133              		.loc 1 51 0
 134              		@ sp needed
 135              	.LVL7:
 136              	.LVL8:
 137 003e 70BD     		pop	{r4, r5, r6, pc}
 138              	.L7:
 139              		.align	2
 140              	.L6:
 141 0040 00000000 		.word	.LANCHOR0
 142              		.cfi_endproc
 143              	.LFE32:
 144              		.size	USBFS_ep1_dma_Start, .-USBFS_ep1_dma_Start
 145              		.global	USBFS_ep1_dma_initVar
 146              		.bss
 147              		.set	.LANCHOR0,. + 0
 148              		.type	USBFS_ep1_dma_initVar, %object
 149              		.size	USBFS_ep1_dma_initVar, 1
 150              	USBFS_ep1_dma_initVar:
 151 0000 00       		.space	1
 152              		.text
 153              	.Letext0:
 154              		.file 3 "Generated_Source\\PSoC4\\cytypes.h"
 155              		.file 4 "Generated_Source\\PSoC4\\CyDMA.h"