ARM GAS  C:\Users\TERENC~1\AppData\Local\Temp\ccVnttLg.s 			page 1


   1              		.syntax unified
   2              		.cpu cortex-m0
   3              		.fpu softvfp
   4              		.eabi_attribute 20, 1
   5              		.eabi_attribute 21, 1
   6              		.eabi_attribute 23, 3
   7              		.eabi_attribute 24, 1
   8              		.eabi_attribute 25, 1
   9              		.eabi_attribute 26, 1
  10              		.eabi_attribute 30, 1
  11              		.eabi_attribute 34, 0
  12              		.eabi_attribute 18, 4
  13              		.thumb
  14              		.syntax unified
  15              		.file	"USBFS_std.c"
  16              		.text
  17              	.Ltext0:
  18              		.cfi_sections	.debug_frame
  19              		.section	.text.USBFS_ReadDieID,"ax",%progbits
  20              		.align	2
  21              		.global	USBFS_ReadDieID
  22              		.code	16
  23              		.thumb_func
  24              		.type	USBFS_ReadDieID, %function
  25              	USBFS_ReadDieID:
  26              	.LFB162:
  27              		.file 1 "Generated_Source\\PSoC4\\USBFS_std.c"
   1:Generated_Source\PSoC4/USBFS_std.c **** /***************************************************************************//**
   2:Generated_Source\PSoC4/USBFS_std.c **** * \file USBFS_std.c
   3:Generated_Source\PSoC4/USBFS_std.c **** * \version 3.20
   4:Generated_Source\PSoC4/USBFS_std.c **** *
   5:Generated_Source\PSoC4/USBFS_std.c **** * \brief
   6:Generated_Source\PSoC4/USBFS_std.c **** *  This file contains the USB Standard request handler.
   7:Generated_Source\PSoC4/USBFS_std.c **** *
   8:Generated_Source\PSoC4/USBFS_std.c **** ********************************************************************************
   9:Generated_Source\PSoC4/USBFS_std.c **** * \copyright
  10:Generated_Source\PSoC4/USBFS_std.c **** * Copyright 2008-2016, Cypress Semiconductor Corporation.  All rights reserved.
  11:Generated_Source\PSoC4/USBFS_std.c **** * You may use this file only in accordance with the license, terms, conditions,
  12:Generated_Source\PSoC4/USBFS_std.c **** * disclaimers, and limitations in the end user license agreement accompanying
  13:Generated_Source\PSoC4/USBFS_std.c **** * the software package with which this file was provided.
  14:Generated_Source\PSoC4/USBFS_std.c **** *******************************************************************************/
  15:Generated_Source\PSoC4/USBFS_std.c **** 
  16:Generated_Source\PSoC4/USBFS_std.c **** #include "USBFS_pvt.h"
  17:Generated_Source\PSoC4/USBFS_std.c **** 
  18:Generated_Source\PSoC4/USBFS_std.c **** /***************************************
  19:Generated_Source\PSoC4/USBFS_std.c **** *   Static data allocation
  20:Generated_Source\PSoC4/USBFS_std.c **** ***************************************/
  21:Generated_Source\PSoC4/USBFS_std.c **** 
  22:Generated_Source\PSoC4/USBFS_std.c **** #if defined(USBFS_ENABLE_FWSN_STRING)
  23:Generated_Source\PSoC4/USBFS_std.c ****     static volatile uint8* USBFS_fwSerialNumberStringDescriptor;
  24:Generated_Source\PSoC4/USBFS_std.c ****     static volatile uint8  USBFS_snStringConfirm = USBFS_FALSE;
  25:Generated_Source\PSoC4/USBFS_std.c **** #endif  /* (USBFS_ENABLE_FWSN_STRING) */
  26:Generated_Source\PSoC4/USBFS_std.c **** 
  27:Generated_Source\PSoC4/USBFS_std.c **** #if defined(USBFS_ENABLE_FWSN_STRING)
  28:Generated_Source\PSoC4/USBFS_std.c ****     /***************************************************************************
  29:Generated_Source\PSoC4/USBFS_std.c ****     * Function Name: USBFS_SerialNumString
  30:Generated_Source\PSoC4/USBFS_std.c ****     ************************************************************************//**
ARM GAS  C:\Users\TERENC~1\AppData\Local\Temp\ccVnttLg.s 			page 2


  31:Generated_Source\PSoC4/USBFS_std.c ****     *
  32:Generated_Source\PSoC4/USBFS_std.c ****     *  This function is available only when the User Call Back option in the 
  33:Generated_Source\PSoC4/USBFS_std.c ****     *  Serial Number String descriptor properties is selected. Application 
  34:Generated_Source\PSoC4/USBFS_std.c ****     *  firmware can provide the source of the USB device serial number string 
  35:Generated_Source\PSoC4/USBFS_std.c ****     *  descriptor during run time. The default string is used if the application 
  36:Generated_Source\PSoC4/USBFS_std.c ****     *  firmware does not use this function or sets the wrong string descriptor.
  37:Generated_Source\PSoC4/USBFS_std.c ****     *
  38:Generated_Source\PSoC4/USBFS_std.c ****     *  \param snString:  Pointer to the user-defined string descriptor. The 
  39:Generated_Source\PSoC4/USBFS_std.c ****     *  string descriptor should meet the Universal Serial Bus Specification 
  40:Generated_Source\PSoC4/USBFS_std.c ****     *  revision 2.0 chapter 9.6.7
  41:Generated_Source\PSoC4/USBFS_std.c ****     *  Offset|Size|Value|Description
  42:Generated_Source\PSoC4/USBFS_std.c ****     *  ------|----|------|---------------------------------
  43:Generated_Source\PSoC4/USBFS_std.c ****     *  0     |1   |N     |Size of this descriptor in bytes
  44:Generated_Source\PSoC4/USBFS_std.c ****     *  1     |1   |0x03  |STRING Descriptor Type
  45:Generated_Source\PSoC4/USBFS_std.c ****     *  2     |N-2 |Number|UNICODE encoded string
  46:Generated_Source\PSoC4/USBFS_std.c ****     *  
  47:Generated_Source\PSoC4/USBFS_std.c ****     * *For example:* uint8 snString[16]={0x0E,0x03,'F',0,'W',0,'S',0,'N',0,'0',0,'1',0};
  48:Generated_Source\PSoC4/USBFS_std.c ****     *
  49:Generated_Source\PSoC4/USBFS_std.c ****     * \reentrant
  50:Generated_Source\PSoC4/USBFS_std.c ****     *  No.
  51:Generated_Source\PSoC4/USBFS_std.c ****     *
  52:Generated_Source\PSoC4/USBFS_std.c ****     ***************************************************************************/
  53:Generated_Source\PSoC4/USBFS_std.c ****     void  USBFS_SerialNumString(uint8 snString[]) 
  54:Generated_Source\PSoC4/USBFS_std.c ****     {
  55:Generated_Source\PSoC4/USBFS_std.c ****         USBFS_snStringConfirm = USBFS_FALSE;
  56:Generated_Source\PSoC4/USBFS_std.c ****         
  57:Generated_Source\PSoC4/USBFS_std.c ****         if (snString != NULL)
  58:Generated_Source\PSoC4/USBFS_std.c ****         {
  59:Generated_Source\PSoC4/USBFS_std.c ****             /* Check descriptor validation */
  60:Generated_Source\PSoC4/USBFS_std.c ****             if ((snString[0u] > 1u) && (snString[1u] == USBFS_DESCR_STRING))
  61:Generated_Source\PSoC4/USBFS_std.c ****             {
  62:Generated_Source\PSoC4/USBFS_std.c ****                 USBFS_fwSerialNumberStringDescriptor = snString;
  63:Generated_Source\PSoC4/USBFS_std.c ****                 USBFS_snStringConfirm = USBFS_TRUE;
  64:Generated_Source\PSoC4/USBFS_std.c ****             }
  65:Generated_Source\PSoC4/USBFS_std.c ****         }
  66:Generated_Source\PSoC4/USBFS_std.c ****     }
  67:Generated_Source\PSoC4/USBFS_std.c **** #endif  /* USBFS_ENABLE_FWSN_STRING */
  68:Generated_Source\PSoC4/USBFS_std.c **** 
  69:Generated_Source\PSoC4/USBFS_std.c **** 
  70:Generated_Source\PSoC4/USBFS_std.c **** /*******************************************************************************
  71:Generated_Source\PSoC4/USBFS_std.c **** * Function Name: USBFS_HandleStandardRqst
  72:Generated_Source\PSoC4/USBFS_std.c **** ****************************************************************************//**
  73:Generated_Source\PSoC4/USBFS_std.c **** *
  74:Generated_Source\PSoC4/USBFS_std.c **** *  This Routine dispatches standard requests
  75:Generated_Source\PSoC4/USBFS_std.c **** *
  76:Generated_Source\PSoC4/USBFS_std.c **** *
  77:Generated_Source\PSoC4/USBFS_std.c **** * \return
  78:Generated_Source\PSoC4/USBFS_std.c **** *  TRUE if request handled.
  79:Generated_Source\PSoC4/USBFS_std.c **** *
  80:Generated_Source\PSoC4/USBFS_std.c **** * \reentrant
  81:Generated_Source\PSoC4/USBFS_std.c **** *  No.
  82:Generated_Source\PSoC4/USBFS_std.c **** *
  83:Generated_Source\PSoC4/USBFS_std.c **** *******************************************************************************/
  84:Generated_Source\PSoC4/USBFS_std.c **** uint8 USBFS_HandleStandardRqst(void) 
  85:Generated_Source\PSoC4/USBFS_std.c **** {
  86:Generated_Source\PSoC4/USBFS_std.c ****     uint8 requestHandled = USBFS_FALSE;
  87:Generated_Source\PSoC4/USBFS_std.c ****     uint32 interfaceNumber;
ARM GAS  C:\Users\TERENC~1\AppData\Local\Temp\ccVnttLg.s 			page 3


  88:Generated_Source\PSoC4/USBFS_std.c ****     uint32 configurationN;
  89:Generated_Source\PSoC4/USBFS_std.c ****     uint32 bmRequestType = USBFS_bmRequestTypeReg;
  90:Generated_Source\PSoC4/USBFS_std.c **** 
  91:Generated_Source\PSoC4/USBFS_std.c **** #if defined(USBFS_ENABLE_STRINGS)
  92:Generated_Source\PSoC4/USBFS_std.c ****     volatile uint8 *pStr = 0u;
  93:Generated_Source\PSoC4/USBFS_std.c ****     #if defined(USBFS_ENABLE_DESCRIPTOR_STRINGS)
  94:Generated_Source\PSoC4/USBFS_std.c ****         uint8 nStr;
  95:Generated_Source\PSoC4/USBFS_std.c ****         uint8 descrLength;
  96:Generated_Source\PSoC4/USBFS_std.c ****     #endif /* (USBFS_ENABLE_DESCRIPTOR_STRINGS) */
  97:Generated_Source\PSoC4/USBFS_std.c **** #endif /* (USBFS_ENABLE_STRINGS) */
  98:Generated_Source\PSoC4/USBFS_std.c ****     
  99:Generated_Source\PSoC4/USBFS_std.c ****     static volatile uint8 USBFS_tBuffer[USBFS_STATUS_LENGTH_MAX];
 100:Generated_Source\PSoC4/USBFS_std.c ****     const T_USBFS_LUT CYCODE *pTmp;
 101:Generated_Source\PSoC4/USBFS_std.c **** 
 102:Generated_Source\PSoC4/USBFS_std.c ****     USBFS_currentTD.count = 0u;
 103:Generated_Source\PSoC4/USBFS_std.c **** 
 104:Generated_Source\PSoC4/USBFS_std.c ****     if (USBFS_RQST_DIR_D2H == (bmRequestType & USBFS_RQST_DIR_MASK))
 105:Generated_Source\PSoC4/USBFS_std.c ****     {
 106:Generated_Source\PSoC4/USBFS_std.c ****         /* Control Read */
 107:Generated_Source\PSoC4/USBFS_std.c ****         switch (USBFS_bRequestReg)
 108:Generated_Source\PSoC4/USBFS_std.c ****         {
 109:Generated_Source\PSoC4/USBFS_std.c ****             case USBFS_GET_DESCRIPTOR:
 110:Generated_Source\PSoC4/USBFS_std.c ****                 if (USBFS_DESCR_DEVICE ==USBFS_wValueHiReg)
 111:Generated_Source\PSoC4/USBFS_std.c ****                 {
 112:Generated_Source\PSoC4/USBFS_std.c ****                     pTmp = USBFS_GetDeviceTablePtr();
 113:Generated_Source\PSoC4/USBFS_std.c ****                     USBFS_currentTD.pData = (volatile uint8 *)pTmp->p_list;
 114:Generated_Source\PSoC4/USBFS_std.c ****                     USBFS_currentTD.count = USBFS_DEVICE_DESCR_LENGTH;
 115:Generated_Source\PSoC4/USBFS_std.c ****                     
 116:Generated_Source\PSoC4/USBFS_std.c ****                     requestHandled  = USBFS_InitControlRead();
 117:Generated_Source\PSoC4/USBFS_std.c ****                 }
 118:Generated_Source\PSoC4/USBFS_std.c ****                 else if (USBFS_DESCR_CONFIG == USBFS_wValueHiReg)
 119:Generated_Source\PSoC4/USBFS_std.c ****                 {
 120:Generated_Source\PSoC4/USBFS_std.c ****                     pTmp = USBFS_GetConfigTablePtr((uint8) USBFS_wValueLoReg);
 121:Generated_Source\PSoC4/USBFS_std.c ****                     
 122:Generated_Source\PSoC4/USBFS_std.c ****                     /* Verify that requested descriptor exists */
 123:Generated_Source\PSoC4/USBFS_std.c ****                     if (pTmp != NULL)
 124:Generated_Source\PSoC4/USBFS_std.c ****                     {
 125:Generated_Source\PSoC4/USBFS_std.c ****                         USBFS_currentTD.pData = (volatile uint8 *)pTmp->p_list;
 126:Generated_Source\PSoC4/USBFS_std.c ****                         USBFS_currentTD.count = (uint16)((uint16)(USBFS_currentTD.pData)[USBFS_CONF
 127:Generated_Source\PSoC4/USBFS_std.c ****                                                                             (USBFS_currentTD.pData)
 128:Generated_Source\PSoC4/USBFS_std.c ****                         requestHandled  = USBFS_InitControlRead();
 129:Generated_Source\PSoC4/USBFS_std.c ****                     }
 130:Generated_Source\PSoC4/USBFS_std.c ****                 }
 131:Generated_Source\PSoC4/USBFS_std.c ****                 
 132:Generated_Source\PSoC4/USBFS_std.c ****             #if(USBFS_BOS_ENABLE)
 133:Generated_Source\PSoC4/USBFS_std.c ****                 else if (USBFS_DESCR_BOS == USBFS_wValueHiReg)
 134:Generated_Source\PSoC4/USBFS_std.c ****                 {
 135:Generated_Source\PSoC4/USBFS_std.c ****                     pTmp = USBFS_GetBOSPtr();
 136:Generated_Source\PSoC4/USBFS_std.c ****                     
 137:Generated_Source\PSoC4/USBFS_std.c ****                     /* Verify that requested descriptor exists */
 138:Generated_Source\PSoC4/USBFS_std.c ****                     if (pTmp != NULL)
 139:Generated_Source\PSoC4/USBFS_std.c ****                     {
 140:Generated_Source\PSoC4/USBFS_std.c ****                         USBFS_currentTD.pData = (volatile uint8 *)pTmp;
 141:Generated_Source\PSoC4/USBFS_std.c ****                         USBFS_currentTD.count = ((uint16)((uint16)(USBFS_currentTD.pData)[USBFS_BOS
 142:Generated_Source\PSoC4/USBFS_std.c ****                                                                              (USBFS_currentTD.pData
 143:Generated_Source\PSoC4/USBFS_std.c ****                         requestHandled  = USBFS_InitControlRead();
 144:Generated_Source\PSoC4/USBFS_std.c ****                     }
ARM GAS  C:\Users\TERENC~1\AppData\Local\Temp\ccVnttLg.s 			page 4


 145:Generated_Source\PSoC4/USBFS_std.c ****                 }
 146:Generated_Source\PSoC4/USBFS_std.c ****             #endif /*(USBFS_BOS_ENABLE)*/
 147:Generated_Source\PSoC4/USBFS_std.c ****             
 148:Generated_Source\PSoC4/USBFS_std.c ****             #if defined(USBFS_ENABLE_STRINGS)
 149:Generated_Source\PSoC4/USBFS_std.c ****                 else if (USBFS_DESCR_STRING == USBFS_wValueHiReg)
 150:Generated_Source\PSoC4/USBFS_std.c ****                 {
 151:Generated_Source\PSoC4/USBFS_std.c ****                 /* Descriptor Strings */
 152:Generated_Source\PSoC4/USBFS_std.c ****                 #if defined(USBFS_ENABLE_DESCRIPTOR_STRINGS)
 153:Generated_Source\PSoC4/USBFS_std.c ****                     nStr = 0u;
 154:Generated_Source\PSoC4/USBFS_std.c ****                     pStr = (volatile uint8 *) &USBFS_STRING_DESCRIPTORS[0u];
 155:Generated_Source\PSoC4/USBFS_std.c ****                     
 156:Generated_Source\PSoC4/USBFS_std.c ****                     while ((USBFS_wValueLoReg > nStr) && (*pStr != 0u))
 157:Generated_Source\PSoC4/USBFS_std.c ****                     {
 158:Generated_Source\PSoC4/USBFS_std.c ****                         /* Read descriptor length from 1st byte */
 159:Generated_Source\PSoC4/USBFS_std.c ****                         descrLength = *pStr;
 160:Generated_Source\PSoC4/USBFS_std.c ****                         /* Move to next string descriptor */
 161:Generated_Source\PSoC4/USBFS_std.c ****                         pStr = &pStr[descrLength];
 162:Generated_Source\PSoC4/USBFS_std.c ****                         nStr++;
 163:Generated_Source\PSoC4/USBFS_std.c ****                     }
 164:Generated_Source\PSoC4/USBFS_std.c ****                 #endif /* (USBFS_ENABLE_DESCRIPTOR_STRINGS) */
 165:Generated_Source\PSoC4/USBFS_std.c ****                 
 166:Generated_Source\PSoC4/USBFS_std.c ****                 /* Microsoft OS String */
 167:Generated_Source\PSoC4/USBFS_std.c ****                 #if defined(USBFS_ENABLE_MSOS_STRING)
 168:Generated_Source\PSoC4/USBFS_std.c ****                     if (USBFS_STRING_MSOS == USBFS_wValueLoReg)
 169:Generated_Source\PSoC4/USBFS_std.c ****                     {
 170:Generated_Source\PSoC4/USBFS_std.c ****                         pStr = (volatile uint8 *)& USBFS_MSOS_DESCRIPTOR[0u];
 171:Generated_Source\PSoC4/USBFS_std.c ****                     }
 172:Generated_Source\PSoC4/USBFS_std.c ****                 #endif /* (USBFS_ENABLE_MSOS_STRING) */
 173:Generated_Source\PSoC4/USBFS_std.c ****                 
 174:Generated_Source\PSoC4/USBFS_std.c ****                 /* SN string */
 175:Generated_Source\PSoC4/USBFS_std.c ****                 #if defined(USBFS_ENABLE_SN_STRING)
 176:Generated_Source\PSoC4/USBFS_std.c ****                     if ((USBFS_wValueLoReg != 0u) && 
 177:Generated_Source\PSoC4/USBFS_std.c ****                         (USBFS_wValueLoReg == USBFS_DEVICE0_DESCR[USBFS_DEVICE_DESCR_SN_SHIFT]))
 178:Generated_Source\PSoC4/USBFS_std.c ****                     {
 179:Generated_Source\PSoC4/USBFS_std.c ****                     #if defined(USBFS_ENABLE_IDSN_STRING)
 180:Generated_Source\PSoC4/USBFS_std.c ****                         /* Read DIE ID and generate string descriptor in RAM */
 181:Generated_Source\PSoC4/USBFS_std.c ****                         USBFS_ReadDieID(USBFS_idSerialNumberStringDescriptor);
 182:Generated_Source\PSoC4/USBFS_std.c ****                         pStr = USBFS_idSerialNumberStringDescriptor;
 183:Generated_Source\PSoC4/USBFS_std.c ****                     #elif defined(USBFS_ENABLE_FWSN_STRING)
 184:Generated_Source\PSoC4/USBFS_std.c ****                         
 185:Generated_Source\PSoC4/USBFS_std.c ****                         if(USBFS_snStringConfirm != USBFS_FALSE)
 186:Generated_Source\PSoC4/USBFS_std.c ****                         {
 187:Generated_Source\PSoC4/USBFS_std.c ****                             pStr = USBFS_fwSerialNumberStringDescriptor;
 188:Generated_Source\PSoC4/USBFS_std.c ****                         }
 189:Generated_Source\PSoC4/USBFS_std.c ****                         else
 190:Generated_Source\PSoC4/USBFS_std.c ****                         {
 191:Generated_Source\PSoC4/USBFS_std.c ****                             pStr = (volatile uint8 *)&USBFS_SN_STRING_DESCRIPTOR[0u];
 192:Generated_Source\PSoC4/USBFS_std.c ****                         }
 193:Generated_Source\PSoC4/USBFS_std.c ****                     #else
 194:Generated_Source\PSoC4/USBFS_std.c ****                         pStr = (volatile uint8 *)&USBFS_SN_STRING_DESCRIPTOR[0u];
 195:Generated_Source\PSoC4/USBFS_std.c ****                     #endif  /* (USBFS_ENABLE_IDSN_STRING) */
 196:Generated_Source\PSoC4/USBFS_std.c ****                     }
 197:Generated_Source\PSoC4/USBFS_std.c ****                 #endif /* (USBFS_ENABLE_SN_STRING) */
 198:Generated_Source\PSoC4/USBFS_std.c ****                 
 199:Generated_Source\PSoC4/USBFS_std.c ****                     if (*pStr != 0u)
 200:Generated_Source\PSoC4/USBFS_std.c ****                     {
 201:Generated_Source\PSoC4/USBFS_std.c ****                         USBFS_currentTD.count = *pStr;
ARM GAS  C:\Users\TERENC~1\AppData\Local\Temp\ccVnttLg.s 			page 5


 202:Generated_Source\PSoC4/USBFS_std.c ****                         USBFS_currentTD.pData = pStr;
 203:Generated_Source\PSoC4/USBFS_std.c ****                         requestHandled  = USBFS_InitControlRead();
 204:Generated_Source\PSoC4/USBFS_std.c ****                     }
 205:Generated_Source\PSoC4/USBFS_std.c ****                 }
 206:Generated_Source\PSoC4/USBFS_std.c ****             #endif /*  USBFS_ENABLE_STRINGS */
 207:Generated_Source\PSoC4/USBFS_std.c ****                 else
 208:Generated_Source\PSoC4/USBFS_std.c ****                 {
 209:Generated_Source\PSoC4/USBFS_std.c ****                     requestHandled = USBFS_DispatchClassRqst();
 210:Generated_Source\PSoC4/USBFS_std.c ****                 }
 211:Generated_Source\PSoC4/USBFS_std.c ****                 break;
 212:Generated_Source\PSoC4/USBFS_std.c ****                 
 213:Generated_Source\PSoC4/USBFS_std.c ****             case USBFS_GET_STATUS:
 214:Generated_Source\PSoC4/USBFS_std.c ****                 switch (bmRequestType & USBFS_RQST_RCPT_MASK)
 215:Generated_Source\PSoC4/USBFS_std.c ****                 {
 216:Generated_Source\PSoC4/USBFS_std.c ****                     case USBFS_RQST_RCPT_EP:
 217:Generated_Source\PSoC4/USBFS_std.c ****                         USBFS_currentTD.count = USBFS_EP_STATUS_LENGTH;
 218:Generated_Source\PSoC4/USBFS_std.c ****                         USBFS_tBuffer[0u]     = USBFS_EP[USBFS_wIndexLoReg & USBFS_DIR_UNUSED].hwEp
 219:Generated_Source\PSoC4/USBFS_std.c ****                         USBFS_tBuffer[1u]     = 0u;
 220:Generated_Source\PSoC4/USBFS_std.c ****                         USBFS_currentTD.pData = &USBFS_tBuffer[0u];
 221:Generated_Source\PSoC4/USBFS_std.c ****                         
 222:Generated_Source\PSoC4/USBFS_std.c ****                         requestHandled  = USBFS_InitControlRead();
 223:Generated_Source\PSoC4/USBFS_std.c ****                         break;
 224:Generated_Source\PSoC4/USBFS_std.c ****                     case USBFS_RQST_RCPT_DEV:
 225:Generated_Source\PSoC4/USBFS_std.c ****                         USBFS_currentTD.count = USBFS_DEVICE_STATUS_LENGTH;
 226:Generated_Source\PSoC4/USBFS_std.c ****                         USBFS_tBuffer[0u]     = USBFS_deviceStatus;
 227:Generated_Source\PSoC4/USBFS_std.c ****                         USBFS_tBuffer[1u]     = 0u;
 228:Generated_Source\PSoC4/USBFS_std.c ****                         USBFS_currentTD.pData = &USBFS_tBuffer[0u];
 229:Generated_Source\PSoC4/USBFS_std.c ****                         
 230:Generated_Source\PSoC4/USBFS_std.c ****                         requestHandled  = USBFS_InitControlRead();
 231:Generated_Source\PSoC4/USBFS_std.c ****                         break;
 232:Generated_Source\PSoC4/USBFS_std.c ****                     default:    /* requestHandled is initialized as FALSE by default */
 233:Generated_Source\PSoC4/USBFS_std.c ****                         break;
 234:Generated_Source\PSoC4/USBFS_std.c ****                 }
 235:Generated_Source\PSoC4/USBFS_std.c ****                 break;
 236:Generated_Source\PSoC4/USBFS_std.c ****                 
 237:Generated_Source\PSoC4/USBFS_std.c ****             case USBFS_GET_CONFIGURATION:
 238:Generated_Source\PSoC4/USBFS_std.c ****                 USBFS_currentTD.count = 1u;
 239:Generated_Source\PSoC4/USBFS_std.c ****                 USBFS_currentTD.pData = (volatile uint8 *) &USBFS_configuration;
 240:Generated_Source\PSoC4/USBFS_std.c ****                 requestHandled  = USBFS_InitControlRead();
 241:Generated_Source\PSoC4/USBFS_std.c ****                 break;
 242:Generated_Source\PSoC4/USBFS_std.c ****                 
 243:Generated_Source\PSoC4/USBFS_std.c ****             case USBFS_GET_INTERFACE:
 244:Generated_Source\PSoC4/USBFS_std.c ****                 USBFS_currentTD.count = 1u;
 245:Generated_Source\PSoC4/USBFS_std.c ****                 USBFS_currentTD.pData = (volatile uint8 *) &USBFS_interfaceSetting[USBFS_wIndexLoRe
 246:Generated_Source\PSoC4/USBFS_std.c ****                 requestHandled  = USBFS_InitControlRead();
 247:Generated_Source\PSoC4/USBFS_std.c ****                 break;
 248:Generated_Source\PSoC4/USBFS_std.c ****                 
 249:Generated_Source\PSoC4/USBFS_std.c ****             default: /* requestHandled is initialized as FALSE by default */
 250:Generated_Source\PSoC4/USBFS_std.c ****                 break;
 251:Generated_Source\PSoC4/USBFS_std.c ****         }
 252:Generated_Source\PSoC4/USBFS_std.c ****     }
 253:Generated_Source\PSoC4/USBFS_std.c ****     else
 254:Generated_Source\PSoC4/USBFS_std.c ****     {
 255:Generated_Source\PSoC4/USBFS_std.c ****         /* Control Write */
 256:Generated_Source\PSoC4/USBFS_std.c ****         switch (USBFS_bRequestReg)
 257:Generated_Source\PSoC4/USBFS_std.c ****         {
 258:Generated_Source\PSoC4/USBFS_std.c ****             case USBFS_SET_ADDRESS:
ARM GAS  C:\Users\TERENC~1\AppData\Local\Temp\ccVnttLg.s 			page 6


 259:Generated_Source\PSoC4/USBFS_std.c ****                 /* Store address to be set in USBFS_NoDataControlStatusStage(). */
 260:Generated_Source\PSoC4/USBFS_std.c ****                 USBFS_deviceAddress = (uint8) USBFS_wValueLoReg;
 261:Generated_Source\PSoC4/USBFS_std.c ****                 requestHandled = USBFS_InitNoDataControlTransfer();
 262:Generated_Source\PSoC4/USBFS_std.c ****                 break;
 263:Generated_Source\PSoC4/USBFS_std.c ****                 
 264:Generated_Source\PSoC4/USBFS_std.c ****             case USBFS_SET_CONFIGURATION:
 265:Generated_Source\PSoC4/USBFS_std.c ****                 configurationN = USBFS_wValueLoReg;
 266:Generated_Source\PSoC4/USBFS_std.c ****                 
 267:Generated_Source\PSoC4/USBFS_std.c ****                 /* Verify that configuration descriptor exists */
 268:Generated_Source\PSoC4/USBFS_std.c ****                 if(configurationN > 0u)
 269:Generated_Source\PSoC4/USBFS_std.c ****                 {
 270:Generated_Source\PSoC4/USBFS_std.c ****                     pTmp = USBFS_GetConfigTablePtr((uint8) configurationN - 1u);
 271:Generated_Source\PSoC4/USBFS_std.c ****                 }
 272:Generated_Source\PSoC4/USBFS_std.c ****                 
 273:Generated_Source\PSoC4/USBFS_std.c ****                 /* Responds with a Request Error when configuration number is invalid */
 274:Generated_Source\PSoC4/USBFS_std.c ****                 if (((configurationN > 0u) && (pTmp != NULL)) || (configurationN == 0u))
 275:Generated_Source\PSoC4/USBFS_std.c ****                 {
 276:Generated_Source\PSoC4/USBFS_std.c ****                     /* Set new configuration if it has been changed */
 277:Generated_Source\PSoC4/USBFS_std.c ****                     if(configurationN != USBFS_configuration)
 278:Generated_Source\PSoC4/USBFS_std.c ****                     {
 279:Generated_Source\PSoC4/USBFS_std.c ****                         USBFS_configuration = (uint8) configurationN;
 280:Generated_Source\PSoC4/USBFS_std.c ****                         USBFS_configurationChanged = USBFS_TRUE;
 281:Generated_Source\PSoC4/USBFS_std.c ****                         USBFS_Config(USBFS_TRUE);
 282:Generated_Source\PSoC4/USBFS_std.c ****                     }
 283:Generated_Source\PSoC4/USBFS_std.c ****                     requestHandled = USBFS_InitNoDataControlTransfer();
 284:Generated_Source\PSoC4/USBFS_std.c ****                 }
 285:Generated_Source\PSoC4/USBFS_std.c ****                 break;
 286:Generated_Source\PSoC4/USBFS_std.c ****                 
 287:Generated_Source\PSoC4/USBFS_std.c ****             case USBFS_SET_INTERFACE:
 288:Generated_Source\PSoC4/USBFS_std.c ****                 if (0u != USBFS_ValidateAlternateSetting())
 289:Generated_Source\PSoC4/USBFS_std.c ****                 {
 290:Generated_Source\PSoC4/USBFS_std.c ****                     /* Get interface number from the request. */
 291:Generated_Source\PSoC4/USBFS_std.c ****                     interfaceNumber = USBFS_wIndexLoReg;
 292:Generated_Source\PSoC4/USBFS_std.c ****                     USBFS_interfaceNumber = (uint8) USBFS_wIndexLoReg;
 293:Generated_Source\PSoC4/USBFS_std.c ****                      
 294:Generated_Source\PSoC4/USBFS_std.c ****                     /* Check if alternate settings is changed for interface. */
 295:Generated_Source\PSoC4/USBFS_std.c ****                     if (USBFS_interfaceSettingLast[interfaceNumber] != USBFS_interfaceSetting[inter
 296:Generated_Source\PSoC4/USBFS_std.c ****                     {
 297:Generated_Source\PSoC4/USBFS_std.c ****                         USBFS_configurationChanged = USBFS_TRUE;
 298:Generated_Source\PSoC4/USBFS_std.c ****                     
 299:Generated_Source\PSoC4/USBFS_std.c ****                         /* Change alternate setting for the endpoints. */
 300:Generated_Source\PSoC4/USBFS_std.c ****                     #if (USBFS_EP_MANAGEMENT_MANUAL && USBFS_EP_ALLOC_DYNAMIC)
 301:Generated_Source\PSoC4/USBFS_std.c ****                         USBFS_Config(USBFS_FALSE);
 302:Generated_Source\PSoC4/USBFS_std.c ****                     #else
 303:Generated_Source\PSoC4/USBFS_std.c ****                         USBFS_ConfigAltChanged();
 304:Generated_Source\PSoC4/USBFS_std.c ****                     #endif /* (USBFS_EP_MANAGEMENT_MANUAL && USBFS_EP_ALLOC_DYNAMIC) */
 305:Generated_Source\PSoC4/USBFS_std.c ****                     }
 306:Generated_Source\PSoC4/USBFS_std.c ****                     
 307:Generated_Source\PSoC4/USBFS_std.c ****                     requestHandled = USBFS_InitNoDataControlTransfer();
 308:Generated_Source\PSoC4/USBFS_std.c ****                 }
 309:Generated_Source\PSoC4/USBFS_std.c ****                 break;
 310:Generated_Source\PSoC4/USBFS_std.c ****                 
 311:Generated_Source\PSoC4/USBFS_std.c ****             case USBFS_CLEAR_FEATURE:
 312:Generated_Source\PSoC4/USBFS_std.c ****                 switch (bmRequestType & USBFS_RQST_RCPT_MASK)
 313:Generated_Source\PSoC4/USBFS_std.c ****                 {
 314:Generated_Source\PSoC4/USBFS_std.c ****                     case USBFS_RQST_RCPT_EP:
 315:Generated_Source\PSoC4/USBFS_std.c ****                         if (USBFS_wValueLoReg == USBFS_ENDPOINT_HALT)
ARM GAS  C:\Users\TERENC~1\AppData\Local\Temp\ccVnttLg.s 			page 7


 316:Generated_Source\PSoC4/USBFS_std.c ****                         {
 317:Generated_Source\PSoC4/USBFS_std.c ****                             requestHandled = USBFS_ClearEndpointHalt();
 318:Generated_Source\PSoC4/USBFS_std.c ****                         }
 319:Generated_Source\PSoC4/USBFS_std.c ****                         break;
 320:Generated_Source\PSoC4/USBFS_std.c ****                     case USBFS_RQST_RCPT_DEV:
 321:Generated_Source\PSoC4/USBFS_std.c ****                         /* Clear device REMOTE_WAKEUP */
 322:Generated_Source\PSoC4/USBFS_std.c ****                         if (USBFS_wValueLoReg == USBFS_DEVICE_REMOTE_WAKEUP)
 323:Generated_Source\PSoC4/USBFS_std.c ****                         {
 324:Generated_Source\PSoC4/USBFS_std.c ****                             USBFS_deviceStatus &= (uint8)~USBFS_DEVICE_STATUS_REMOTE_WAKEUP;
 325:Generated_Source\PSoC4/USBFS_std.c ****                             requestHandled = USBFS_InitNoDataControlTransfer();
 326:Generated_Source\PSoC4/USBFS_std.c ****                         }
 327:Generated_Source\PSoC4/USBFS_std.c ****                         break;
 328:Generated_Source\PSoC4/USBFS_std.c ****                     case USBFS_RQST_RCPT_IFC:
 329:Generated_Source\PSoC4/USBFS_std.c ****                         /* Validate interfaceNumber */
 330:Generated_Source\PSoC4/USBFS_std.c ****                         if (USBFS_wIndexLoReg < USBFS_MAX_INTERFACES_NUMBER)
 331:Generated_Source\PSoC4/USBFS_std.c ****                         {
 332:Generated_Source\PSoC4/USBFS_std.c ****                             USBFS_interfaceStatus[USBFS_wIndexLoReg] &= (uint8) ~USBFS_wValueLoReg;
 333:Generated_Source\PSoC4/USBFS_std.c ****                             requestHandled = USBFS_InitNoDataControlTransfer();
 334:Generated_Source\PSoC4/USBFS_std.c ****                         }
 335:Generated_Source\PSoC4/USBFS_std.c ****                         break;
 336:Generated_Source\PSoC4/USBFS_std.c ****                     default:    /* requestHandled is initialized as FALSE by default */
 337:Generated_Source\PSoC4/USBFS_std.c ****                         break;
 338:Generated_Source\PSoC4/USBFS_std.c ****                 }
 339:Generated_Source\PSoC4/USBFS_std.c ****                 break;
 340:Generated_Source\PSoC4/USBFS_std.c ****                 
 341:Generated_Source\PSoC4/USBFS_std.c ****             case USBFS_SET_FEATURE:
 342:Generated_Source\PSoC4/USBFS_std.c ****                 switch (bmRequestType & USBFS_RQST_RCPT_MASK)
 343:Generated_Source\PSoC4/USBFS_std.c ****                 {
 344:Generated_Source\PSoC4/USBFS_std.c ****                     case USBFS_RQST_RCPT_EP:
 345:Generated_Source\PSoC4/USBFS_std.c ****                         if (USBFS_wValueLoReg == USBFS_ENDPOINT_HALT)
 346:Generated_Source\PSoC4/USBFS_std.c ****                         {
 347:Generated_Source\PSoC4/USBFS_std.c ****                             requestHandled = USBFS_SetEndpointHalt();
 348:Generated_Source\PSoC4/USBFS_std.c ****                         }
 349:Generated_Source\PSoC4/USBFS_std.c ****                         break;
 350:Generated_Source\PSoC4/USBFS_std.c ****                         
 351:Generated_Source\PSoC4/USBFS_std.c ****                     case USBFS_RQST_RCPT_DEV:
 352:Generated_Source\PSoC4/USBFS_std.c ****                         /* Set device REMOTE_WAKEUP */
 353:Generated_Source\PSoC4/USBFS_std.c ****                         if (USBFS_wValueLoReg == USBFS_DEVICE_REMOTE_WAKEUP)
 354:Generated_Source\PSoC4/USBFS_std.c ****                         {
 355:Generated_Source\PSoC4/USBFS_std.c ****                             USBFS_deviceStatus |= USBFS_DEVICE_STATUS_REMOTE_WAKEUP;
 356:Generated_Source\PSoC4/USBFS_std.c ****                             requestHandled = USBFS_InitNoDataControlTransfer();
 357:Generated_Source\PSoC4/USBFS_std.c ****                         }
 358:Generated_Source\PSoC4/USBFS_std.c ****                         break;
 359:Generated_Source\PSoC4/USBFS_std.c ****                         
 360:Generated_Source\PSoC4/USBFS_std.c ****                     case USBFS_RQST_RCPT_IFC:
 361:Generated_Source\PSoC4/USBFS_std.c ****                         /* Validate interfaceNumber */
 362:Generated_Source\PSoC4/USBFS_std.c ****                         if (USBFS_wIndexLoReg < USBFS_MAX_INTERFACES_NUMBER)
 363:Generated_Source\PSoC4/USBFS_std.c ****                         {
 364:Generated_Source\PSoC4/USBFS_std.c ****                             USBFS_interfaceStatus[USBFS_wIndexLoReg] &= (uint8) ~USBFS_wValueLoReg;
 365:Generated_Source\PSoC4/USBFS_std.c ****                             requestHandled = USBFS_InitNoDataControlTransfer();
 366:Generated_Source\PSoC4/USBFS_std.c ****                         }
 367:Generated_Source\PSoC4/USBFS_std.c ****                         break;
 368:Generated_Source\PSoC4/USBFS_std.c ****                     
 369:Generated_Source\PSoC4/USBFS_std.c ****                     default:    /* requestHandled is initialized as FALSE by default */
 370:Generated_Source\PSoC4/USBFS_std.c ****                         break;
 371:Generated_Source\PSoC4/USBFS_std.c ****                 }
 372:Generated_Source\PSoC4/USBFS_std.c ****                 break;
ARM GAS  C:\Users\TERENC~1\AppData\Local\Temp\ccVnttLg.s 			page 8


 373:Generated_Source\PSoC4/USBFS_std.c ****                 
 374:Generated_Source\PSoC4/USBFS_std.c ****             default:    /* requestHandled is initialized as FALSE by default */
 375:Generated_Source\PSoC4/USBFS_std.c ****                 break;
 376:Generated_Source\PSoC4/USBFS_std.c ****         }
 377:Generated_Source\PSoC4/USBFS_std.c ****     }
 378:Generated_Source\PSoC4/USBFS_std.c ****     
 379:Generated_Source\PSoC4/USBFS_std.c ****     return (requestHandled);
 380:Generated_Source\PSoC4/USBFS_std.c **** }
 381:Generated_Source\PSoC4/USBFS_std.c **** 
 382:Generated_Source\PSoC4/USBFS_std.c **** 
 383:Generated_Source\PSoC4/USBFS_std.c **** #if defined(USBFS_ENABLE_IDSN_STRING)
 384:Generated_Source\PSoC4/USBFS_std.c ****     /***************************************************************************
 385:Generated_Source\PSoC4/USBFS_std.c ****     * Function Name: USBFS_ReadDieID
 386:Generated_Source\PSoC4/USBFS_std.c ****     ************************************************************************//**
 387:Generated_Source\PSoC4/USBFS_std.c ****     *
 388:Generated_Source\PSoC4/USBFS_std.c ****     *  This routine read Die ID and generate Serial Number string descriptor.
 389:Generated_Source\PSoC4/USBFS_std.c ****     *
 390:Generated_Source\PSoC4/USBFS_std.c ****     *  \param descr:  pointer on string descriptor. This string size has to be equal or
 391:Generated_Source\PSoC4/USBFS_std.c ****     *          greater than USBFS_IDSN_DESCR_LENGTH.
 392:Generated_Source\PSoC4/USBFS_std.c ****     *
 393:Generated_Source\PSoC4/USBFS_std.c ****     *
 394:Generated_Source\PSoC4/USBFS_std.c ****     * \reentrant
 395:Generated_Source\PSoC4/USBFS_std.c ****     *  No.
 396:Generated_Source\PSoC4/USBFS_std.c ****     *
 397:Generated_Source\PSoC4/USBFS_std.c ****     ***************************************************************************/
 398:Generated_Source\PSoC4/USBFS_std.c ****     void USBFS_ReadDieID(uint8 descr[]) 
 399:Generated_Source\PSoC4/USBFS_std.c ****     {
  28              		.loc 1 399 0
  29              		.cfi_startproc
  30              		@ args = 0, pretend = 0, frame = 32
  31              		@ frame_needed = 0, uses_anonymous_args = 0
  32              	.LVL0:
  33 0000 F0B5     		push	{r4, r5, r6, r7, lr}
  34              		.cfi_def_cfa_offset 20
  35              		.cfi_offset 4, -20
  36              		.cfi_offset 5, -16
  37              		.cfi_offset 6, -12
  38              		.cfi_offset 7, -8
  39              		.cfi_offset 14, -4
  40 0002 89B0     		sub	sp, sp, #36
  41              		.cfi_def_cfa_offset 56
  42 0004 0400     		movs	r4, r0
 400:Generated_Source\PSoC4/USBFS_std.c ****         const char8 CYCODE hex[] = "0123456789ABCDEF";
  43              		.loc 1 400 0
  44 0006 03AB     		add	r3, sp, #12
  45 0008 154A     		ldr	r2, .L5
  46 000a 23CA     		ldmia	r2!, {r0, r1, r5}
  47 000c 23C3     		stmia	r3!, {r0, r1, r5}
  48              	.LVL1:
  49 000e 1900     		movs	r1, r3
  50 0010 1368     		ldr	r3, [r2]
  51 0012 0B60     		str	r3, [r1]
  52 0014 1379     		ldrb	r3, [r2, #4]
  53 0016 0B71     		strb	r3, [r1, #4]
  54              	.LVL2:
 401:Generated_Source\PSoC4/USBFS_std.c ****         uint32 i;
 402:Generated_Source\PSoC4/USBFS_std.c ****         uint32 j = 0u;
ARM GAS  C:\Users\TERENC~1\AppData\Local\Temp\ccVnttLg.s 			page 9


 403:Generated_Source\PSoC4/USBFS_std.c ****         uint8 uniqueId[8u];
 404:Generated_Source\PSoC4/USBFS_std.c **** 
 405:Generated_Source\PSoC4/USBFS_std.c ****         if (NULL != descr)
  55              		.loc 1 405 0
  56 0018 002C     		cmp	r4, #0
  57 001a 1FD0     		beq	.L1
 406:Generated_Source\PSoC4/USBFS_std.c ****         {
 407:Generated_Source\PSoC4/USBFS_std.c ****             /* Initialize descriptor header. */
 408:Generated_Source\PSoC4/USBFS_std.c ****             descr[0u] = USBFS_IDSN_DESCR_LENGTH;
  58              		.loc 1 408 0
  59 001c 2223     		movs	r3, #34
  60 001e 2370     		strb	r3, [r4]
 409:Generated_Source\PSoC4/USBFS_std.c ****             descr[1u] = USBFS_DESCR_STRING;
  61              		.loc 1 409 0
  62 0020 1F3B     		subs	r3, r3, #31
  63 0022 6370     		strb	r3, [r4, #1]
 410:Generated_Source\PSoC4/USBFS_std.c ****             
 411:Generated_Source\PSoC4/USBFS_std.c ****             /* Unique ID size is 8 bytes. */
 412:Generated_Source\PSoC4/USBFS_std.c ****             CyGetUniqueId((uint32 *) uniqueId);
  64              		.loc 1 412 0
  65 0024 01A8     		add	r0, sp, #4
  66 0026 FFF7FEFF 		bl	CyGetUniqueId
  67              	.LVL3:
 402:Generated_Source\PSoC4/USBFS_std.c ****         uint8 uniqueId[8u];
  68              		.loc 1 402 0
  69 002a 0020     		movs	r0, #0
 413:Generated_Source\PSoC4/USBFS_std.c **** 
 414:Generated_Source\PSoC4/USBFS_std.c ****             /* Fill descriptor with unique device ID. */
 415:Generated_Source\PSoC4/USBFS_std.c ****             for (i = 2u; i < USBFS_IDSN_DESCR_LENGTH; i += 4u)
  70              		.loc 1 415 0
  71 002c 0223     		movs	r3, #2
  72 002e 13E0     		b	.L3
  73              	.LVL4:
  74              	.L4:
 416:Generated_Source\PSoC4/USBFS_std.c ****             {
 417:Generated_Source\PSoC4/USBFS_std.c ****                 descr[i]      = (uint8) hex[(uniqueId[j] >> 4u)];
  75              		.loc 1 417 0 discriminator 3
  76 0030 01AA     		add	r2, sp, #4
  77 0032 125C     		ldrb	r2, [r2, r0]
  78 0034 1109     		lsrs	r1, r2, #4
  79 0036 03AD     		add	r5, sp, #12
  80 0038 695C     		ldrb	r1, [r5, r1]
  81 003a E154     		strb	r1, [r4, r3]
 418:Generated_Source\PSoC4/USBFS_std.c ****                 descr[i + 1u] = 0u;
  82              		.loc 1 418 0 discriminator 3
  83 003c 591C     		adds	r1, r3, #1
  84 003e 6118     		adds	r1, r4, r1
  85 0040 0026     		movs	r6, #0
  86 0042 0E70     		strb	r6, [r1]
 419:Generated_Source\PSoC4/USBFS_std.c ****                 descr[i + 2u] = (uint8) hex[(uniqueId[j] & 0x0Fu)];
  87              		.loc 1 419 0 discriminator 3
  88 0044 991C     		adds	r1, r3, #2
  89 0046 0F27     		movs	r7, #15
  90 0048 3A40     		ands	r2, r7
  91 004a AA5C     		ldrb	r2, [r5, r2]
  92 004c 6254     		strb	r2, [r4, r1]
 420:Generated_Source\PSoC4/USBFS_std.c ****                 descr[i + 3u] = 0u;
ARM GAS  C:\Users\TERENC~1\AppData\Local\Temp\ccVnttLg.s 			page 10


  93              		.loc 1 420 0 discriminator 3
  94 004e DA1C     		adds	r2, r3, #3
  95 0050 A218     		adds	r2, r4, r2
  96 0052 1670     		strb	r6, [r2]
 421:Generated_Source\PSoC4/USBFS_std.c ****                 ++j;
  97              		.loc 1 421 0 discriminator 3
  98 0054 0130     		adds	r0, r0, #1
  99              	.LVL5:
 415:Generated_Source\PSoC4/USBFS_std.c ****             {
 100              		.loc 1 415 0 discriminator 3
 101 0056 0433     		adds	r3, r3, #4
 102              	.LVL6:
 103              	.L3:
 415:Generated_Source\PSoC4/USBFS_std.c ****             {
 104              		.loc 1 415 0 is_stmt 0 discriminator 1
 105 0058 212B     		cmp	r3, #33
 106 005a E9D9     		bls	.L4
 107              	.LVL7:
 108              	.L1:
 422:Generated_Source\PSoC4/USBFS_std.c ****             }
 423:Generated_Source\PSoC4/USBFS_std.c ****         }
 424:Generated_Source\PSoC4/USBFS_std.c ****     }
 109              		.loc 1 424 0 is_stmt 1
 110 005c 09B0     		add	sp, sp, #36
 111              		@ sp needed
 112              	.LVL8:
 113 005e F0BD     		pop	{r4, r5, r6, r7, pc}
 114              	.L6:
 115              		.align	2
 116              	.L5:
 117 0060 00000000 		.word	.LC0
 118              		.cfi_endproc
 119              	.LFE162:
 120              		.size	USBFS_ReadDieID, .-USBFS_ReadDieID
 121              		.section	.text.USBFS_ConfigReg,"ax",%progbits
 122              		.align	2
 123              		.global	USBFS_ConfigReg
 124              		.code	16
 125              		.thumb_func
 126              		.type	USBFS_ConfigReg, %function
 127              	USBFS_ConfigReg:
 128              	.LFB163:
 425:Generated_Source\PSoC4/USBFS_std.c **** #endif /* (USBFS_ENABLE_IDSN_STRING) */
 426:Generated_Source\PSoC4/USBFS_std.c **** 
 427:Generated_Source\PSoC4/USBFS_std.c **** 
 428:Generated_Source\PSoC4/USBFS_std.c **** /*******************************************************************************
 429:Generated_Source\PSoC4/USBFS_std.c **** * Function Name: USBFS_ConfigReg
 430:Generated_Source\PSoC4/USBFS_std.c **** ****************************************************************************//**
 431:Generated_Source\PSoC4/USBFS_std.c **** *
 432:Generated_Source\PSoC4/USBFS_std.c **** *  This routine configures hardware registers from the variables.
 433:Generated_Source\PSoC4/USBFS_std.c **** *  It is called from USBFS_Config() function and from RestoreConfig
 434:Generated_Source\PSoC4/USBFS_std.c **** *  after Wakeup.
 435:Generated_Source\PSoC4/USBFS_std.c **** *
 436:Generated_Source\PSoC4/USBFS_std.c **** *******************************************************************************/
 437:Generated_Source\PSoC4/USBFS_std.c **** void USBFS_ConfigReg(void) 
 438:Generated_Source\PSoC4/USBFS_std.c **** {
 129              		.loc 1 438 0
ARM GAS  C:\Users\TERENC~1\AppData\Local\Temp\ccVnttLg.s 			page 11


 130              		.cfi_startproc
 131              		@ args = 0, pretend = 0, frame = 0
 132              		@ frame_needed = 0, uses_anonymous_args = 0
 133 0000 10B5     		push	{r4, lr}
 134              		.cfi_def_cfa_offset 8
 135              		.cfi_offset 4, -8
 136              		.cfi_offset 14, -4
 137              	.LVL9:
 439:Generated_Source\PSoC4/USBFS_std.c ****     uint32 ep;
 440:Generated_Source\PSoC4/USBFS_std.c **** 
 441:Generated_Source\PSoC4/USBFS_std.c **** #if (USBFS_EP_MANAGEMENT_DMA_AUTO)
 442:Generated_Source\PSoC4/USBFS_std.c ****     uint8 epType = 0u;
 138              		.loc 1 442 0
 139 0002 0020     		movs	r0, #0
 443:Generated_Source\PSoC4/USBFS_std.c **** #endif /* (USBFS_EP_MANAGEMENT_DMA_AUTO) */
 444:Generated_Source\PSoC4/USBFS_std.c **** 
 445:Generated_Source\PSoC4/USBFS_std.c ****     /* Go thought all endpoints and set hardware configuration */
 446:Generated_Source\PSoC4/USBFS_std.c ****     for (ep = USBFS_EP1; ep < USBFS_MAX_EP; ++ep)
 140              		.loc 1 446 0
 141 0004 0123     		movs	r3, #1
 142 0006 35E0     		b	.L8
 143              	.LVL10:
 144              	.L12:
 447:Generated_Source\PSoC4/USBFS_std.c ****     {
 448:Generated_Source\PSoC4/USBFS_std.c ****         USBFS_ARB_EP_BASE.arbEp[ep].epCfg = USBFS_ARB_EPX_CFG_DEFAULT;
 145              		.loc 1 448 0
 146 0008 9A01     		lsls	r2, r3, #6
 147 000a 0C24     		movs	r4, #12
 148 000c 2649     		ldr	r1, .L13
 149 000e 5450     		str	r4, [r2, r1]
 449:Generated_Source\PSoC4/USBFS_std.c ****         
 450:Generated_Source\PSoC4/USBFS_std.c ****     #if (USBFS_EP_MANAGEMENT_DMA)
 451:Generated_Source\PSoC4/USBFS_std.c ****         /* Enable arbiter endpoint interrupt sources */
 452:Generated_Source\PSoC4/USBFS_std.c ****         USBFS_ARB_EP_BASE.arbEp[ep].epIntEn = USBFS_ARB_EPX_INT_MASK;
 150              		.loc 1 452 0
 151 0010 8C46     		mov	ip, r1
 152 0012 6244     		add	r2, r2, ip
 153 0014 3D21     		movs	r1, #61
 154 0016 5160     		str	r1, [r2, #4]
 453:Generated_Source\PSoC4/USBFS_std.c ****     #endif /* (USBFS_EP_MANAGEMENT_DMA) */
 454:Generated_Source\PSoC4/USBFS_std.c ****     
 455:Generated_Source\PSoC4/USBFS_std.c ****         if (USBFS_EP[ep].epMode != USBFS_MODE_DISABLE)
 155              		.loc 1 455 0
 156 0018 5900     		lsls	r1, r3, #1
 157 001a C918     		adds	r1, r1, r3
 158 001c 8A00     		lsls	r2, r1, #2
 159 001e 2349     		ldr	r1, .L13+4
 160 0020 8A18     		adds	r2, r1, r2
 161 0022 5279     		ldrb	r2, [r2, #5]
 162 0024 002A     		cmp	r2, #0
 163 0026 1ED0     		beq	.L9
 456:Generated_Source\PSoC4/USBFS_std.c ****         {
 457:Generated_Source\PSoC4/USBFS_std.c ****             if (0u != (USBFS_EP[ep].addr & USBFS_DIR_IN))
 164              		.loc 1 457 0
 165 0028 5900     		lsls	r1, r3, #1
 166 002a C918     		adds	r1, r1, r3
 167 002c 8A00     		lsls	r2, r1, #2
ARM GAS  C:\Users\TERENC~1\AppData\Local\Temp\ccVnttLg.s 			page 12


 168 002e 1F49     		ldr	r1, .L13+4
 169 0030 8A18     		adds	r2, r1, r2
 170 0032 1279     		ldrb	r2, [r2, #4]
 171 0034 52B2     		sxtb	r2, r2
 172 0036 002A     		cmp	r2, #0
 173 0038 09DA     		bge	.L10
 458:Generated_Source\PSoC4/USBFS_std.c ****             {
 459:Generated_Source\PSoC4/USBFS_std.c ****                 USBFS_SIE_EP_BASE.sieEp[ep].epCr0 = USBFS_MODE_NAK_IN;
 174              		.loc 1 459 0
 175 003a 9A01     		lsls	r2, r3, #6
 176 003c 1C49     		ldr	r1, .L13+8
 177 003e 5118     		adds	r1, r2, r1
 178 0040 8C60     		str	r4, [r1, #8]
 460:Generated_Source\PSoC4/USBFS_std.c ****                 
 461:Generated_Source\PSoC4/USBFS_std.c ****             #if (USBFS_EP_MANAGEMENT_DMA_AUTO && CY_PSOC4)
 462:Generated_Source\PSoC4/USBFS_std.c ****                 /* Clear DMA_TERMIN for IN endpoint. */
 463:Generated_Source\PSoC4/USBFS_std.c ****                 USBFS_ARB_EP_BASE.arbEp[ep].epIntEn &= (uint32) ~USBFS_ARB_EPX_INT_DMA_TERMIN;
 179              		.loc 1 463 0
 180 0042 6244     		add	r2, r2, ip
 181 0044 5168     		ldr	r1, [r2, #4]
 182 0046 1434     		adds	r4, r4, #20
 183 0048 A143     		bics	r1, r4
 184 004a 5160     		str	r1, [r2, #4]
 185 004c 11E0     		b	.L11
 186              	.L10:
 464:Generated_Source\PSoC4/USBFS_std.c ****             #endif /* (USBFS_EP_MANAGEMENT_DMA_AUTO && CY_PSOC4) */
 465:Generated_Source\PSoC4/USBFS_std.c ****             }
 466:Generated_Source\PSoC4/USBFS_std.c ****             else
 467:Generated_Source\PSoC4/USBFS_std.c ****             {
 468:Generated_Source\PSoC4/USBFS_std.c ****                 USBFS_SIE_EP_BASE.sieEp[ep].epCr0 = USBFS_MODE_NAK_OUT;
 187              		.loc 1 468 0
 188 004e 9A01     		lsls	r2, r3, #6
 189 0050 1749     		ldr	r1, .L13+8
 190 0052 8C46     		mov	ip, r1
 191 0054 6244     		add	r2, r2, ip
 192 0056 0821     		movs	r1, #8
 193 0058 9160     		str	r1, [r2, #8]
 469:Generated_Source\PSoC4/USBFS_std.c **** 
 470:Generated_Source\PSoC4/USBFS_std.c ****             #if (USBFS_EP_MANAGEMENT_DMA_AUTO)
 471:Generated_Source\PSoC4/USBFS_std.c ****                 /* (CY_PSOC4): DMA_TERMIN for OUT endpoint is set above. */
 472:Generated_Source\PSoC4/USBFS_std.c ****                 
 473:Generated_Source\PSoC4/USBFS_std.c ****                 /* Prepare endpoint type mask. */
 474:Generated_Source\PSoC4/USBFS_std.c ****                 epType |= (uint8) (0x01u << (ep - USBFS_EP1));
 194              		.loc 1 474 0
 195 005a 591E     		subs	r1, r3, #1
 196 005c 0122     		movs	r2, #1
 197 005e 8A40     		lsls	r2, r2, r1
 198 0060 0243     		orrs	r2, r0
 199 0062 D0B2     		uxtb	r0, r2
 200              	.LVL11:
 201 0064 05E0     		b	.L11
 202              	.L9:
 475:Generated_Source\PSoC4/USBFS_std.c ****             #endif /* (USBFS_EP_MANAGEMENT_DMA_AUTO) */
 476:Generated_Source\PSoC4/USBFS_std.c ****             }
 477:Generated_Source\PSoC4/USBFS_std.c ****         }
 478:Generated_Source\PSoC4/USBFS_std.c ****         else
 479:Generated_Source\PSoC4/USBFS_std.c ****         {
ARM GAS  C:\Users\TERENC~1\AppData\Local\Temp\ccVnttLg.s 			page 13


 480:Generated_Source\PSoC4/USBFS_std.c ****             USBFS_SIE_EP_BASE.sieEp[ep].epCr0 = USBFS_MODE_STALL_DATA_EP;
 203              		.loc 1 480 0
 204 0066 9A01     		lsls	r2, r3, #6
 205 0068 1149     		ldr	r1, .L13+8
 206 006a 8C46     		mov	ip, r1
 207 006c 6244     		add	r2, r2, ip
 208 006e 8021     		movs	r1, #128
 209 0070 9160     		str	r1, [r2, #8]
 210              	.L11:
 446:Generated_Source\PSoC4/USBFS_std.c ****     {
 211              		.loc 1 446 0 discriminator 2
 212 0072 0133     		adds	r3, r3, #1
 213              	.LVL12:
 214              	.L8:
 446:Generated_Source\PSoC4/USBFS_std.c ****     {
 215              		.loc 1 446 0 is_stmt 0 discriminator 1
 216 0074 082B     		cmp	r3, #8
 217 0076 C7D9     		bls	.L12
 481:Generated_Source\PSoC4/USBFS_std.c ****         }
 482:Generated_Source\PSoC4/USBFS_std.c ****         
 483:Generated_Source\PSoC4/USBFS_std.c ****     #if (!USBFS_EP_MANAGEMENT_DMA_AUTO)
 484:Generated_Source\PSoC4/USBFS_std.c ****         #if (CY_PSOC4)
 485:Generated_Source\PSoC4/USBFS_std.c ****             USBFS_ARB_EP16_BASE.arbEp[ep].rwRa16  = (uint32) USBFS_EP[ep].buffOffset;
 486:Generated_Source\PSoC4/USBFS_std.c ****             USBFS_ARB_EP16_BASE.arbEp[ep].rwWa16  = (uint32) USBFS_EP[ep].buffOffset;
 487:Generated_Source\PSoC4/USBFS_std.c ****         #else
 488:Generated_Source\PSoC4/USBFS_std.c ****             USBFS_ARB_EP_BASE.arbEp[ep].rwRa    = LO8(USBFS_EP[ep].buffOffset);
 489:Generated_Source\PSoC4/USBFS_std.c ****             USBFS_ARB_EP_BASE.arbEp[ep].rwRaMsb = HI8(USBFS_EP[ep].buffOffset);
 490:Generated_Source\PSoC4/USBFS_std.c ****             USBFS_ARB_EP_BASE.arbEp[ep].rwWa    = LO8(USBFS_EP[ep].buffOffset);
 491:Generated_Source\PSoC4/USBFS_std.c ****             USBFS_ARB_EP_BASE.arbEp[ep].rwWaMsb = HI8(USBFS_EP[ep].buffOffset);
 492:Generated_Source\PSoC4/USBFS_std.c ****         #endif /* (CY_PSOC4) */
 493:Generated_Source\PSoC4/USBFS_std.c ****     #endif /* (!USBFS_EP_MANAGEMENT_DMA_AUTO) */
 494:Generated_Source\PSoC4/USBFS_std.c ****     }
 495:Generated_Source\PSoC4/USBFS_std.c **** 
 496:Generated_Source\PSoC4/USBFS_std.c **** #if (USBFS_EP_MANAGEMENT_DMA_AUTO)
 497:Generated_Source\PSoC4/USBFS_std.c ****      /* BUF_SIZE depend on DMA_THRESS value:0x55-32 bytes  0x44-16 bytes 0x33-8 bytes 0x22-4 bytes 
 498:Generated_Source\PSoC4/USBFS_std.c ****     USBFS_BUF_SIZE_REG = USBFS_DMA_BUF_SIZE;
 218              		.loc 1 498 0 is_stmt 1
 219 0078 5522     		movs	r2, #85
 220 007a 0E4B     		ldr	r3, .L13+12
 221              	.LVL13:
 222 007c 1A60     		str	r2, [r3]
 499:Generated_Source\PSoC4/USBFS_std.c **** 
 500:Generated_Source\PSoC4/USBFS_std.c ****     /* Configure DMA burst threshold */
 501:Generated_Source\PSoC4/USBFS_std.c **** #if (CY_PSOC4)
 502:Generated_Source\PSoC4/USBFS_std.c ****     USBFS_DMA_THRES16_REG   = USBFS_DMA_BYTES_PER_BURST;
 223              		.loc 1 502 0
 224 007e 353A     		subs	r2, r2, #53
 225 0080 0D4B     		ldr	r3, .L13+16
 226 0082 1A60     		str	r2, [r3]
 503:Generated_Source\PSoC4/USBFS_std.c **** #else
 504:Generated_Source\PSoC4/USBFS_std.c ****     USBFS_DMA_THRES_REG     = USBFS_DMA_BYTES_PER_BURST;
 505:Generated_Source\PSoC4/USBFS_std.c ****     USBFS_DMA_THRES_MSB_REG = 0u;
 506:Generated_Source\PSoC4/USBFS_std.c **** #endif /* (CY_PSOC4) */
 507:Generated_Source\PSoC4/USBFS_std.c ****     USBFS_EP_ACTIVE_REG = USBFS_DEFAULT_ARB_INT_EN;
 227              		.loc 1 507 0
 228 0084 0F32     		adds	r2, r2, #15
 229 0086 0D4B     		ldr	r3, .L13+20
ARM GAS  C:\Users\TERENC~1\AppData\Local\Temp\ccVnttLg.s 			page 14


 230 0088 1A60     		str	r2, [r3]
 508:Generated_Source\PSoC4/USBFS_std.c ****     USBFS_EP_TYPE_REG   = epType;
 231              		.loc 1 508 0
 232 008a 0D4B     		ldr	r3, .L13+24
 233 008c 1860     		str	r0, [r3]
 509:Generated_Source\PSoC4/USBFS_std.c ****     
 510:Generated_Source\PSoC4/USBFS_std.c ****     /* Cfg_cmp bit set to 1 once configuration is complete. */
 511:Generated_Source\PSoC4/USBFS_std.c ****     /* Lock arbiter configtuation */
 512:Generated_Source\PSoC4/USBFS_std.c ****     USBFS_ARB_CFG_REG |= (uint32)  USBFS_ARB_CFG_CFG_CMP;
 234              		.loc 1 512 0
 235 008e 0D4B     		ldr	r3, .L13+28
 236 0090 1A68     		ldr	r2, [r3]
 237 0092 8021     		movs	r1, #128
 238 0094 0A43     		orrs	r2, r1
 239 0096 1A60     		str	r2, [r3]
 513:Generated_Source\PSoC4/USBFS_std.c ****     /* Cfg_cmp bit set to 0 during configuration of PFSUSB Registers. */
 514:Generated_Source\PSoC4/USBFS_std.c ****     USBFS_ARB_CFG_REG &= (uint32) ~USBFS_ARB_CFG_CFG_CMP;
 240              		.loc 1 514 0
 241 0098 1A68     		ldr	r2, [r3]
 242 009a 8A43     		bics	r2, r1
 243 009c 1A60     		str	r2, [r3]
 515:Generated_Source\PSoC4/USBFS_std.c **** 
 516:Generated_Source\PSoC4/USBFS_std.c **** #endif /* (USBFS_EP_MANAGEMENT_DMA_AUTO) */
 517:Generated_Source\PSoC4/USBFS_std.c **** 
 518:Generated_Source\PSoC4/USBFS_std.c ****     /* Enable interrupt SIE interurpt source from EP0-EP1 */
 519:Generated_Source\PSoC4/USBFS_std.c ****     USBFS_SIE_EP_INT_EN_REG = (uint32) USBFS_DEFAULT_SIE_EP_INT_EN;
 244              		.loc 1 519 0
 245 009e FF22     		movs	r2, #255
 246 00a0 094B     		ldr	r3, .L13+32
 247 00a2 1A60     		str	r2, [r3]
 520:Generated_Source\PSoC4/USBFS_std.c **** }
 248              		.loc 1 520 0
 249              		@ sp needed
 250 00a4 10BD     		pop	{r4, pc}
 251              	.L14:
 252 00a6 C046     		.align	2
 253              	.L13:
 254 00a8 C0012C40 		.word	1076625856
 255 00ac 00000000 		.word	USBFS_EP
 256 00b0 F0FF2B40 		.word	1076625392
 257 00b4 30022C40 		.word	1076625968
 258 00b8 F0122C40 		.word	1076630256
 259 00bc 38022C40 		.word	1076625976
 260 00c0 3C022C40 		.word	1076625980
 261 00c4 70022C40 		.word	1076626032
 262 00c8 28002C40 		.word	1076625448
 263              		.cfi_endproc
 264              	.LFE163:
 265              		.size	USBFS_ConfigReg, .-USBFS_ConfigReg
 266              		.section	.text.USBFS_EpStateInit,"ax",%progbits
 267              		.align	2
 268              		.global	USBFS_EpStateInit
 269              		.code	16
 270              		.thumb_func
 271              		.type	USBFS_EpStateInit, %function
 272              	USBFS_EpStateInit:
 273              	.LFB164:
ARM GAS  C:\Users\TERENC~1\AppData\Local\Temp\ccVnttLg.s 			page 15


 521:Generated_Source\PSoC4/USBFS_std.c **** 
 522:Generated_Source\PSoC4/USBFS_std.c **** 
 523:Generated_Source\PSoC4/USBFS_std.c **** /*******************************************************************************
 524:Generated_Source\PSoC4/USBFS_std.c **** * Function Name: USBFS_EpStateInit
 525:Generated_Source\PSoC4/USBFS_std.c **** ****************************************************************************//**
 526:Generated_Source\PSoC4/USBFS_std.c **** *
 527:Generated_Source\PSoC4/USBFS_std.c **** *  This routine initialize state of Data end points based of its type: 
 528:Generated_Source\PSoC4/USBFS_std.c **** *   IN  - USBFS_IN_BUFFER_EMPTY (USBFS_EVENT_PENDING)
 529:Generated_Source\PSoC4/USBFS_std.c **** *   OUT - USBFS_OUT_BUFFER_EMPTY (USBFS_NO_EVENT_PENDING)
 530:Generated_Source\PSoC4/USBFS_std.c **** *
 531:Generated_Source\PSoC4/USBFS_std.c **** *******************************************************************************/
 532:Generated_Source\PSoC4/USBFS_std.c **** void USBFS_EpStateInit(void) 
 533:Generated_Source\PSoC4/USBFS_std.c **** {
 274              		.loc 1 533 0
 275              		.cfi_startproc
 276              		@ args = 0, pretend = 0, frame = 0
 277              		@ frame_needed = 0, uses_anonymous_args = 0
 278              		@ link register save eliminated.
 279              	.LVL14:
 534:Generated_Source\PSoC4/USBFS_std.c ****     uint8 i;
 535:Generated_Source\PSoC4/USBFS_std.c **** 
 536:Generated_Source\PSoC4/USBFS_std.c ****     for (i = USBFS_EP1; i < USBFS_MAX_EP; i++)
 280              		.loc 1 536 0
 281 0000 0123     		movs	r3, #1
 282 0002 19E0     		b	.L16
 283              	.LVL15:
 284              	.L19:
 537:Generated_Source\PSoC4/USBFS_std.c ****     { 
 538:Generated_Source\PSoC4/USBFS_std.c ****         if (0u != (USBFS_EP[i].addr & USBFS_DIR_IN))
 285              		.loc 1 538 0
 286 0004 5900     		lsls	r1, r3, #1
 287 0006 C918     		adds	r1, r1, r3
 288 0008 8A00     		lsls	r2, r1, #2
 289 000a 0D49     		ldr	r1, .L20
 290 000c 8A18     		adds	r2, r1, r2
 291 000e 1279     		ldrb	r2, [r2, #4]
 292 0010 52B2     		sxtb	r2, r2
 293 0012 002A     		cmp	r2, #0
 294 0014 07DA     		bge	.L17
 539:Generated_Source\PSoC4/USBFS_std.c ****         {
 540:Generated_Source\PSoC4/USBFS_std.c ****             /* IN Endpoint */
 541:Generated_Source\PSoC4/USBFS_std.c ****             USBFS_EP[i].apiEpState = USBFS_EVENT_PENDING;
 295              		.loc 1 541 0
 296 0016 5900     		lsls	r1, r3, #1
 297 0018 C918     		adds	r1, r1, r3
 298 001a 8A00     		lsls	r2, r1, #2
 299 001c 0849     		ldr	r1, .L20
 300 001e 8A18     		adds	r2, r1, r2
 301 0020 0121     		movs	r1, #1
 302 0022 5170     		strb	r1, [r2, #1]
 303 0024 06E0     		b	.L18
 304              	.L17:
 542:Generated_Source\PSoC4/USBFS_std.c ****         }
 543:Generated_Source\PSoC4/USBFS_std.c ****         else
 544:Generated_Source\PSoC4/USBFS_std.c ****         {
 545:Generated_Source\PSoC4/USBFS_std.c ****             /* OUT Endpoint */
 546:Generated_Source\PSoC4/USBFS_std.c ****             USBFS_EP[i].apiEpState = USBFS_NO_EVENT_PENDING;
ARM GAS  C:\Users\TERENC~1\AppData\Local\Temp\ccVnttLg.s 			page 16


 305              		.loc 1 546 0
 306 0026 5900     		lsls	r1, r3, #1
 307 0028 C918     		adds	r1, r1, r3
 308 002a 8A00     		lsls	r2, r1, #2
 309 002c 0449     		ldr	r1, .L20
 310 002e 8A18     		adds	r2, r1, r2
 311 0030 0021     		movs	r1, #0
 312 0032 5170     		strb	r1, [r2, #1]
 313              	.L18:
 536:Generated_Source\PSoC4/USBFS_std.c ****     { 
 314              		.loc 1 536 0 discriminator 2
 315 0034 0133     		adds	r3, r3, #1
 316              	.LVL16:
 317 0036 DBB2     		uxtb	r3, r3
 318              	.LVL17:
 319              	.L16:
 536:Generated_Source\PSoC4/USBFS_std.c ****     { 
 320              		.loc 1 536 0 is_stmt 0 discriminator 1
 321 0038 082B     		cmp	r3, #8
 322 003a E3D9     		bls	.L19
 547:Generated_Source\PSoC4/USBFS_std.c ****         }
 548:Generated_Source\PSoC4/USBFS_std.c ****     }
 549:Generated_Source\PSoC4/USBFS_std.c ****                     
 550:Generated_Source\PSoC4/USBFS_std.c **** }
 323              		.loc 1 550 0 is_stmt 1
 324              		@ sp needed
 325 003c 7047     		bx	lr
 326              	.L21:
 327 003e C046     		.align	2
 328              	.L20:
 329 0040 00000000 		.word	USBFS_EP
 330              		.cfi_endproc
 331              	.LFE164:
 332              		.size	USBFS_EpStateInit, .-USBFS_EpStateInit
 333              		.section	.text.USBFS_GetConfigTablePtr,"ax",%progbits
 334              		.align	2
 335              		.global	USBFS_GetConfigTablePtr
 336              		.code	16
 337              		.thumb_func
 338              		.type	USBFS_GetConfigTablePtr, %function
 339              	USBFS_GetConfigTablePtr:
 340              	.LFB167:
 551:Generated_Source\PSoC4/USBFS_std.c **** 
 552:Generated_Source\PSoC4/USBFS_std.c **** 
 553:Generated_Source\PSoC4/USBFS_std.c **** /*******************************************************************************
 554:Generated_Source\PSoC4/USBFS_std.c **** * Function Name: USBFS_Config
 555:Generated_Source\PSoC4/USBFS_std.c **** ****************************************************************************//**
 556:Generated_Source\PSoC4/USBFS_std.c **** *
 557:Generated_Source\PSoC4/USBFS_std.c **** *  This routine configures endpoints for the entire configuration by scanning
 558:Generated_Source\PSoC4/USBFS_std.c **** *  the configuration descriptor.
 559:Generated_Source\PSoC4/USBFS_std.c **** *
 560:Generated_Source\PSoC4/USBFS_std.c **** *  \param clearAltSetting: It configures the bAlternateSetting 0 for each interface.
 561:Generated_Source\PSoC4/USBFS_std.c **** *
 562:Generated_Source\PSoC4/USBFS_std.c **** * USBFS_interfaceClass - Initialized class array for each interface.
 563:Generated_Source\PSoC4/USBFS_std.c **** *   It is used for handling Class specific requests depend on interface class.
 564:Generated_Source\PSoC4/USBFS_std.c **** *   Different classes in multiple Alternate settings does not supported.
 565:Generated_Source\PSoC4/USBFS_std.c **** *
ARM GAS  C:\Users\TERENC~1\AppData\Local\Temp\ccVnttLg.s 			page 17


 566:Generated_Source\PSoC4/USBFS_std.c **** * \reentrant
 567:Generated_Source\PSoC4/USBFS_std.c **** *  No.
 568:Generated_Source\PSoC4/USBFS_std.c **** *
 569:Generated_Source\PSoC4/USBFS_std.c **** *******************************************************************************/
 570:Generated_Source\PSoC4/USBFS_std.c **** void USBFS_Config(uint8 clearAltSetting) 
 571:Generated_Source\PSoC4/USBFS_std.c **** {
 572:Generated_Source\PSoC4/USBFS_std.c ****     uint8 ep;
 573:Generated_Source\PSoC4/USBFS_std.c ****     uint8 curEp;
 574:Generated_Source\PSoC4/USBFS_std.c ****     uint8 i;
 575:Generated_Source\PSoC4/USBFS_std.c ****     uint8 epType;
 576:Generated_Source\PSoC4/USBFS_std.c ****     const uint8 *pDescr;
 577:Generated_Source\PSoC4/USBFS_std.c ****     
 578:Generated_Source\PSoC4/USBFS_std.c ****     #if (!USBFS_EP_MANAGEMENT_DMA_AUTO)
 579:Generated_Source\PSoC4/USBFS_std.c ****         uint16 buffCount = 0u;
 580:Generated_Source\PSoC4/USBFS_std.c ****     #endif /* (!USBFS_EP_MANAGEMENT_DMA_AUTO) */
 581:Generated_Source\PSoC4/USBFS_std.c **** 
 582:Generated_Source\PSoC4/USBFS_std.c ****     const T_USBFS_LUT CYCODE *pTmp;
 583:Generated_Source\PSoC4/USBFS_std.c ****     const T_USBFS_EP_SETTINGS_BLOCK CYCODE *pEP;
 584:Generated_Source\PSoC4/USBFS_std.c **** 
 585:Generated_Source\PSoC4/USBFS_std.c ****     /* Clear endpoints settings */
 586:Generated_Source\PSoC4/USBFS_std.c ****     for (ep = 0u; ep < USBFS_MAX_EP; ++ep)
 587:Generated_Source\PSoC4/USBFS_std.c ****     {
 588:Generated_Source\PSoC4/USBFS_std.c ****         USBFS_EP[ep].attrib     = 0u;
 589:Generated_Source\PSoC4/USBFS_std.c ****         USBFS_EP[ep].hwEpState  = 0u;
 590:Generated_Source\PSoC4/USBFS_std.c ****         USBFS_EP[ep].epToggle   = 0u;
 591:Generated_Source\PSoC4/USBFS_std.c ****         USBFS_EP[ep].bufferSize = 0u;
 592:Generated_Source\PSoC4/USBFS_std.c ****         USBFS_EP[ep].interface  = 0u;
 593:Generated_Source\PSoC4/USBFS_std.c ****         USBFS_EP[ep].apiEpState = USBFS_NO_EVENT_PENDING;
 594:Generated_Source\PSoC4/USBFS_std.c ****         USBFS_EP[ep].epMode     = USBFS_MODE_DISABLE;   
 595:Generated_Source\PSoC4/USBFS_std.c ****     }
 596:Generated_Source\PSoC4/USBFS_std.c **** 
 597:Generated_Source\PSoC4/USBFS_std.c ****     /* Clear Alternate settings for all interfaces. */
 598:Generated_Source\PSoC4/USBFS_std.c ****     if (0u != clearAltSetting)
 599:Generated_Source\PSoC4/USBFS_std.c ****     {
 600:Generated_Source\PSoC4/USBFS_std.c ****         for (i = 0u; i < USBFS_MAX_INTERFACES_NUMBER; ++i)
 601:Generated_Source\PSoC4/USBFS_std.c ****         {
 602:Generated_Source\PSoC4/USBFS_std.c ****             USBFS_interfaceSetting[i]     = 0u;
 603:Generated_Source\PSoC4/USBFS_std.c ****             USBFS_interfaceSettingLast[i] = 0u;
 604:Generated_Source\PSoC4/USBFS_std.c ****         }
 605:Generated_Source\PSoC4/USBFS_std.c ****     }
 606:Generated_Source\PSoC4/USBFS_std.c **** 
 607:Generated_Source\PSoC4/USBFS_std.c ****     /* Init Endpoints and Device Status if configured */
 608:Generated_Source\PSoC4/USBFS_std.c ****     if (USBFS_configuration > 0u)
 609:Generated_Source\PSoC4/USBFS_std.c ****     {
 610:Generated_Source\PSoC4/USBFS_std.c ****         #if defined(USBFS_ENABLE_CDC_CLASS)
 611:Generated_Source\PSoC4/USBFS_std.c ****             uint8 cdcComNums = 0u;
 612:Generated_Source\PSoC4/USBFS_std.c ****         #endif  /* (USBFS_ENABLE_CDC_CLASS) */  
 613:Generated_Source\PSoC4/USBFS_std.c **** 
 614:Generated_Source\PSoC4/USBFS_std.c ****         pTmp = USBFS_GetConfigTablePtr(USBFS_configuration - 1u);
 615:Generated_Source\PSoC4/USBFS_std.c ****         
 616:Generated_Source\PSoC4/USBFS_std.c ****         /* Set Power status for current configuration */
 617:Generated_Source\PSoC4/USBFS_std.c ****         pDescr = (const uint8 *)pTmp->p_list;
 618:Generated_Source\PSoC4/USBFS_std.c ****         if ((pDescr[USBFS_CONFIG_DESCR_ATTRIB] & USBFS_CONFIG_DESCR_ATTRIB_SELF_POWERED) != 0u)
 619:Generated_Source\PSoC4/USBFS_std.c ****         {
 620:Generated_Source\PSoC4/USBFS_std.c ****             USBFS_deviceStatus |= (uint8)  USBFS_DEVICE_STATUS_SELF_POWERED;
 621:Generated_Source\PSoC4/USBFS_std.c ****         }
 622:Generated_Source\PSoC4/USBFS_std.c ****         else
ARM GAS  C:\Users\TERENC~1\AppData\Local\Temp\ccVnttLg.s 			page 18


 623:Generated_Source\PSoC4/USBFS_std.c ****         {
 624:Generated_Source\PSoC4/USBFS_std.c ****             USBFS_deviceStatus &= (uint8) ~USBFS_DEVICE_STATUS_SELF_POWERED;
 625:Generated_Source\PSoC4/USBFS_std.c ****         }
 626:Generated_Source\PSoC4/USBFS_std.c ****         
 627:Generated_Source\PSoC4/USBFS_std.c ****         /* Move to next element */
 628:Generated_Source\PSoC4/USBFS_std.c ****         pTmp = &pTmp[1u];
 629:Generated_Source\PSoC4/USBFS_std.c ****         ep = pTmp->c;  /* For this table, c is the number of endpoints configurations  */
 630:Generated_Source\PSoC4/USBFS_std.c **** 
 631:Generated_Source\PSoC4/USBFS_std.c ****         #if (USBFS_EP_MANAGEMENT_MANUAL && USBFS_EP_ALLOC_DYNAMIC)
 632:Generated_Source\PSoC4/USBFS_std.c ****             /* Configure for dynamic EP memory allocation */
 633:Generated_Source\PSoC4/USBFS_std.c ****             /* p_list points the endpoint setting table. */
 634:Generated_Source\PSoC4/USBFS_std.c ****             pEP = (T_USBFS_EP_SETTINGS_BLOCK *) pTmp->p_list;
 635:Generated_Source\PSoC4/USBFS_std.c ****             
 636:Generated_Source\PSoC4/USBFS_std.c ****             for (i = 0u; i < ep; i++)
 637:Generated_Source\PSoC4/USBFS_std.c ****             {     
 638:Generated_Source\PSoC4/USBFS_std.c ****                 /* Compare current Alternate setting with EP Alt */
 639:Generated_Source\PSoC4/USBFS_std.c ****                 if (USBFS_interfaceSetting[pEP->interface] == pEP->altSetting)
 640:Generated_Source\PSoC4/USBFS_std.c ****                 {                                                          
 641:Generated_Source\PSoC4/USBFS_std.c ****                     curEp  = pEP->addr & USBFS_DIR_UNUSED;
 642:Generated_Source\PSoC4/USBFS_std.c ****                     epType = pEP->attributes & USBFS_EP_TYPE_MASK;
 643:Generated_Source\PSoC4/USBFS_std.c ****                     
 644:Generated_Source\PSoC4/USBFS_std.c ****                     USBFS_EP[curEp].addr       = pEP->addr;
 645:Generated_Source\PSoC4/USBFS_std.c ****                     USBFS_EP[curEp].attrib     = pEP->attributes;
 646:Generated_Source\PSoC4/USBFS_std.c ****                     USBFS_EP[curEp].bufferSize = pEP->bufferSize;
 647:Generated_Source\PSoC4/USBFS_std.c **** 
 648:Generated_Source\PSoC4/USBFS_std.c ****                     if (0u != (pEP->addr & USBFS_DIR_IN))
 649:Generated_Source\PSoC4/USBFS_std.c ****                     {
 650:Generated_Source\PSoC4/USBFS_std.c ****                         /* IN Endpoint */
 651:Generated_Source\PSoC4/USBFS_std.c ****                         USBFS_EP[curEp].epMode     = USBFS_GET_ACTIVE_IN_EP_CR0_MODE(epType);
 652:Generated_Source\PSoC4/USBFS_std.c ****                         USBFS_EP[curEp].apiEpState = USBFS_EVENT_PENDING;
 653:Generated_Source\PSoC4/USBFS_std.c ****                     
 654:Generated_Source\PSoC4/USBFS_std.c ****                     #if (defined(USBFS_ENABLE_MIDI_STREAMING) && (USBFS_MIDI_IN_BUFF_SIZE > 0))
 655:Generated_Source\PSoC4/USBFS_std.c ****                         if ((pEP->bMisc == USBFS_CLASS_AUDIO) && (epType == USBFS_EP_TYPE_BULK))
 656:Generated_Source\PSoC4/USBFS_std.c ****                         {
 657:Generated_Source\PSoC4/USBFS_std.c ****                             USBFS_midi_in_ep = curEp;
 658:Generated_Source\PSoC4/USBFS_std.c ****                         }
 659:Generated_Source\PSoC4/USBFS_std.c ****                     #endif  /* (USBFS_ENABLE_MIDI_STREAMING) */
 660:Generated_Source\PSoC4/USBFS_std.c ****                     }
 661:Generated_Source\PSoC4/USBFS_std.c ****                     else
 662:Generated_Source\PSoC4/USBFS_std.c ****                     {
 663:Generated_Source\PSoC4/USBFS_std.c ****                         /* OUT Endpoint */
 664:Generated_Source\PSoC4/USBFS_std.c ****                         USBFS_EP[curEp].epMode     = USBFS_GET_ACTIVE_OUT_EP_CR0_MODE(epType);
 665:Generated_Source\PSoC4/USBFS_std.c ****                         USBFS_EP[curEp].apiEpState = USBFS_NO_EVENT_PENDING;
 666:Generated_Source\PSoC4/USBFS_std.c ****                         
 667:Generated_Source\PSoC4/USBFS_std.c ****                     #if (defined(USBFS_ENABLE_MIDI_STREAMING) && (USBFS_MIDI_OUT_BUFF_SIZE > 0))
 668:Generated_Source\PSoC4/USBFS_std.c ****                         if ((pEP->bMisc == USBFS_CLASS_AUDIO) && (epType == USBFS_EP_TYPE_BULK))
 669:Generated_Source\PSoC4/USBFS_std.c ****                         {
 670:Generated_Source\PSoC4/USBFS_std.c ****                             USBFS_midi_out_ep = curEp;
 671:Generated_Source\PSoC4/USBFS_std.c ****                         }
 672:Generated_Source\PSoC4/USBFS_std.c ****                     #endif  /* (USBFS_ENABLE_MIDI_STREAMING) */
 673:Generated_Source\PSoC4/USBFS_std.c ****                     }
 674:Generated_Source\PSoC4/USBFS_std.c **** 
 675:Generated_Source\PSoC4/USBFS_std.c ****                 #if(defined (USBFS_ENABLE_CDC_CLASS))
 676:Generated_Source\PSoC4/USBFS_std.c ****                     if((pEP->bMisc == USBFS_CLASS_CDC_DATA) ||(pEP->bMisc == USBFS_CLASS_CDC))
 677:Generated_Source\PSoC4/USBFS_std.c ****                     {
 678:Generated_Source\PSoC4/USBFS_std.c ****                         cdcComNums = USBFS_Cdc_EpInit(pEP, curEp, cdcComNums);
 679:Generated_Source\PSoC4/USBFS_std.c ****                     }
ARM GAS  C:\Users\TERENC~1\AppData\Local\Temp\ccVnttLg.s 			page 19


 680:Generated_Source\PSoC4/USBFS_std.c ****                 #endif  /* (USBFS_ENABLE_CDC_CLASS) */
 681:Generated_Source\PSoC4/USBFS_std.c ****                 }
 682:Generated_Source\PSoC4/USBFS_std.c ****                 
 683:Generated_Source\PSoC4/USBFS_std.c ****                 pEP = &pEP[1u];
 684:Generated_Source\PSoC4/USBFS_std.c ****             }
 685:Generated_Source\PSoC4/USBFS_std.c ****             
 686:Generated_Source\PSoC4/USBFS_std.c ****         #else
 687:Generated_Source\PSoC4/USBFS_std.c ****             for (i = USBFS_EP1; i < USBFS_MAX_EP; ++i)
 688:Generated_Source\PSoC4/USBFS_std.c ****             {
 689:Generated_Source\PSoC4/USBFS_std.c ****                 /* p_list points the endpoint setting table. */
 690:Generated_Source\PSoC4/USBFS_std.c ****                 pEP = (const T_USBFS_EP_SETTINGS_BLOCK CYCODE *) pTmp->p_list;
 691:Generated_Source\PSoC4/USBFS_std.c ****                 /* Find max length for each EP and select it (length could be different in differen
 692:Generated_Source\PSoC4/USBFS_std.c ****                 /* but other settings should be correct with regards to Interface alt Setting */
 693:Generated_Source\PSoC4/USBFS_std.c ****                 
 694:Generated_Source\PSoC4/USBFS_std.c ****                 for (curEp = 0u; curEp < ep; ++curEp)
 695:Generated_Source\PSoC4/USBFS_std.c ****                 {
 696:Generated_Source\PSoC4/USBFS_std.c ****                     if (i == (pEP->addr & USBFS_DIR_UNUSED))
 697:Generated_Source\PSoC4/USBFS_std.c ****                     {
 698:Generated_Source\PSoC4/USBFS_std.c ****                         /* Compare endpoint buffers size with current size to find greater. */
 699:Generated_Source\PSoC4/USBFS_std.c ****                         if (USBFS_EP[i].bufferSize < pEP->bufferSize)
 700:Generated_Source\PSoC4/USBFS_std.c ****                         {
 701:Generated_Source\PSoC4/USBFS_std.c ****                             USBFS_EP[i].bufferSize = pEP->bufferSize;
 702:Generated_Source\PSoC4/USBFS_std.c ****                         }
 703:Generated_Source\PSoC4/USBFS_std.c ****                         
 704:Generated_Source\PSoC4/USBFS_std.c ****                         /* Compare current Alternate setting with EP Alt */
 705:Generated_Source\PSoC4/USBFS_std.c ****                         if (USBFS_interfaceSetting[pEP->interface] == pEP->altSetting)
 706:Generated_Source\PSoC4/USBFS_std.c ****                         {                            
 707:Generated_Source\PSoC4/USBFS_std.c ****                             USBFS_EP[i].addr = pEP->addr;
 708:Generated_Source\PSoC4/USBFS_std.c ****                             USBFS_EP[i].attrib = pEP->attributes;
 709:Generated_Source\PSoC4/USBFS_std.c ****                             
 710:Generated_Source\PSoC4/USBFS_std.c ****                             epType = pEP->attributes & USBFS_EP_TYPE_MASK;
 711:Generated_Source\PSoC4/USBFS_std.c ****                             
 712:Generated_Source\PSoC4/USBFS_std.c ****                             if (0u != (pEP->addr & USBFS_DIR_IN))
 713:Generated_Source\PSoC4/USBFS_std.c ****                             {
 714:Generated_Source\PSoC4/USBFS_std.c ****                                 /* IN Endpoint */
 715:Generated_Source\PSoC4/USBFS_std.c ****                                 USBFS_EP[i].epMode     = USBFS_GET_ACTIVE_IN_EP_CR0_MODE(epType);
 716:Generated_Source\PSoC4/USBFS_std.c ****                                 USBFS_EP[i].apiEpState = USBFS_EVENT_PENDING;
 717:Generated_Source\PSoC4/USBFS_std.c ****                                 
 718:Generated_Source\PSoC4/USBFS_std.c ****                             #if (defined(USBFS_ENABLE_MIDI_STREAMING) && (USBFS_MIDI_IN_BUFF_SIZE >
 719:Generated_Source\PSoC4/USBFS_std.c ****                                 if ((pEP->bMisc == USBFS_CLASS_AUDIO) && (epType == USBFS_EP_TYPE_B
 720:Generated_Source\PSoC4/USBFS_std.c ****                                 {
 721:Generated_Source\PSoC4/USBFS_std.c ****                                     USBFS_midi_in_ep = i;
 722:Generated_Source\PSoC4/USBFS_std.c ****                                 }
 723:Generated_Source\PSoC4/USBFS_std.c ****                             #endif  /* (USBFS_ENABLE_MIDI_STREAMING) */
 724:Generated_Source\PSoC4/USBFS_std.c ****                             }
 725:Generated_Source\PSoC4/USBFS_std.c ****                             else
 726:Generated_Source\PSoC4/USBFS_std.c ****                             {
 727:Generated_Source\PSoC4/USBFS_std.c ****                                 /* OUT Endpoint */
 728:Generated_Source\PSoC4/USBFS_std.c ****                                 USBFS_EP[i].epMode     = USBFS_GET_ACTIVE_OUT_EP_CR0_MODE(epType);
 729:Generated_Source\PSoC4/USBFS_std.c ****                                 USBFS_EP[i].apiEpState = USBFS_NO_EVENT_PENDING;
 730:Generated_Source\PSoC4/USBFS_std.c ****                                 
 731:Generated_Source\PSoC4/USBFS_std.c ****                             #if (defined(USBFS_ENABLE_MIDI_STREAMING) && (USBFS_MIDI_OUT_BUFF_SIZE 
 732:Generated_Source\PSoC4/USBFS_std.c ****                                 if ((pEP->bMisc == USBFS_CLASS_AUDIO) && (epType == USBFS_EP_TYPE_B
 733:Generated_Source\PSoC4/USBFS_std.c ****                                 {
 734:Generated_Source\PSoC4/USBFS_std.c ****                                     USBFS_midi_out_ep = i;
 735:Generated_Source\PSoC4/USBFS_std.c ****                                 }
 736:Generated_Source\PSoC4/USBFS_std.c ****                             #endif  /* (USBFS_ENABLE_MIDI_STREAMING) */
ARM GAS  C:\Users\TERENC~1\AppData\Local\Temp\ccVnttLg.s 			page 20


 737:Generated_Source\PSoC4/USBFS_std.c ****                             }
 738:Generated_Source\PSoC4/USBFS_std.c **** 
 739:Generated_Source\PSoC4/USBFS_std.c ****                         #if (defined(USBFS_ENABLE_CDC_CLASS))
 740:Generated_Source\PSoC4/USBFS_std.c ****                             if((pEP->bMisc == USBFS_CLASS_CDC_DATA) ||(pEP->bMisc == USBFS_CLASS_CD
 741:Generated_Source\PSoC4/USBFS_std.c ****                             {
 742:Generated_Source\PSoC4/USBFS_std.c ****                                 cdcComNums = USBFS_Cdc_EpInit(pEP, i, cdcComNums);
 743:Generated_Source\PSoC4/USBFS_std.c ****                             }
 744:Generated_Source\PSoC4/USBFS_std.c ****                         #endif  /* (USBFS_ENABLE_CDC_CLASS) */
 745:Generated_Source\PSoC4/USBFS_std.c **** 
 746:Generated_Source\PSoC4/USBFS_std.c ****                             #if (USBFS_EP_MANAGEMENT_DMA_AUTO)
 747:Generated_Source\PSoC4/USBFS_std.c ****                                 break;  /* Use first EP setting in Auto memory management */
 748:Generated_Source\PSoC4/USBFS_std.c ****                             #endif /* (USBFS_EP_MANAGEMENT_DMA_AUTO) */
 749:Generated_Source\PSoC4/USBFS_std.c ****                         }
 750:Generated_Source\PSoC4/USBFS_std.c ****                     }
 751:Generated_Source\PSoC4/USBFS_std.c ****                     
 752:Generated_Source\PSoC4/USBFS_std.c ****                     pEP = &pEP[1u];
 753:Generated_Source\PSoC4/USBFS_std.c ****                 }
 754:Generated_Source\PSoC4/USBFS_std.c ****             }
 755:Generated_Source\PSoC4/USBFS_std.c ****         #endif /*  (USBFS_EP_MANAGEMENT_MANUAL && USBFS_EP_ALLOC_DYNAMIC) */
 756:Generated_Source\PSoC4/USBFS_std.c **** 
 757:Generated_Source\PSoC4/USBFS_std.c ****         /* Init class array for each interface and interface number for each EP.
 758:Generated_Source\PSoC4/USBFS_std.c ****         *  It is used for handling Class specific requests directed to either an
 759:Generated_Source\PSoC4/USBFS_std.c ****         *  interface or the endpoint.
 760:Generated_Source\PSoC4/USBFS_std.c ****         */
 761:Generated_Source\PSoC4/USBFS_std.c ****         /* p_list points the endpoint setting table. */
 762:Generated_Source\PSoC4/USBFS_std.c ****         pEP = (const T_USBFS_EP_SETTINGS_BLOCK CYCODE *) pTmp->p_list;
 763:Generated_Source\PSoC4/USBFS_std.c ****         for (i = 0u; i < ep; i++)
 764:Generated_Source\PSoC4/USBFS_std.c ****         {
 765:Generated_Source\PSoC4/USBFS_std.c ****             /* Configure interface number for each EP */
 766:Generated_Source\PSoC4/USBFS_std.c ****             USBFS_EP[pEP->addr & USBFS_DIR_UNUSED].interface = pEP->interface;
 767:Generated_Source\PSoC4/USBFS_std.c ****             pEP = &pEP[1u];
 768:Generated_Source\PSoC4/USBFS_std.c ****         }
 769:Generated_Source\PSoC4/USBFS_std.c ****         
 770:Generated_Source\PSoC4/USBFS_std.c ****         /* Init pointer on interface class table */
 771:Generated_Source\PSoC4/USBFS_std.c ****         USBFS_interfaceClass = USBFS_GetInterfaceClassTablePtr();
 772:Generated_Source\PSoC4/USBFS_std.c ****         
 773:Generated_Source\PSoC4/USBFS_std.c ****     /* Set the endpoint buffer addresses */
 774:Generated_Source\PSoC4/USBFS_std.c ****     #if (!USBFS_EP_MANAGEMENT_DMA_AUTO)
 775:Generated_Source\PSoC4/USBFS_std.c ****         buffCount = 0u;
 776:Generated_Source\PSoC4/USBFS_std.c ****         for (ep = USBFS_EP1; ep < USBFS_MAX_EP; ++ep)
 777:Generated_Source\PSoC4/USBFS_std.c ****         {
 778:Generated_Source\PSoC4/USBFS_std.c ****             USBFS_EP[ep].buffOffset = buffCount;        
 779:Generated_Source\PSoC4/USBFS_std.c ****             buffCount += USBFS_EP[ep].bufferSize;
 780:Generated_Source\PSoC4/USBFS_std.c ****             
 781:Generated_Source\PSoC4/USBFS_std.c ****         #if (USBFS_GEN_16BITS_EP_ACCESS)
 782:Generated_Source\PSoC4/USBFS_std.c ****             /* Align EP buffers to be event size to access 16-bits DR register. */
 783:Generated_Source\PSoC4/USBFS_std.c ****             buffCount += (0u != (buffCount & 0x01u)) ? 1u : 0u;
 784:Generated_Source\PSoC4/USBFS_std.c ****         #endif /* (USBFS_GEN_16BITS_EP_ACCESS) */            
 785:Generated_Source\PSoC4/USBFS_std.c ****         }
 786:Generated_Source\PSoC4/USBFS_std.c ****     #endif /* (!USBFS_EP_MANAGEMENT_DMA_AUTO) */
 787:Generated_Source\PSoC4/USBFS_std.c **** 
 788:Generated_Source\PSoC4/USBFS_std.c ****         /* Configure hardware registers */
 789:Generated_Source\PSoC4/USBFS_std.c ****         USBFS_ConfigReg();
 790:Generated_Source\PSoC4/USBFS_std.c ****     }
 791:Generated_Source\PSoC4/USBFS_std.c **** }
 792:Generated_Source\PSoC4/USBFS_std.c **** 
 793:Generated_Source\PSoC4/USBFS_std.c **** 
ARM GAS  C:\Users\TERENC~1\AppData\Local\Temp\ccVnttLg.s 			page 21


 794:Generated_Source\PSoC4/USBFS_std.c **** /*******************************************************************************
 795:Generated_Source\PSoC4/USBFS_std.c **** * Function Name: USBFS_ConfigAltChanged
 796:Generated_Source\PSoC4/USBFS_std.c **** ****************************************************************************//**
 797:Generated_Source\PSoC4/USBFS_std.c **** *
 798:Generated_Source\PSoC4/USBFS_std.c **** *  This routine update configuration for the required endpoints only.
 799:Generated_Source\PSoC4/USBFS_std.c **** *  It is called after SET_INTERFACE request when Static memory allocation used.
 800:Generated_Source\PSoC4/USBFS_std.c **** *
 801:Generated_Source\PSoC4/USBFS_std.c **** * \reentrant
 802:Generated_Source\PSoC4/USBFS_std.c **** *  No.
 803:Generated_Source\PSoC4/USBFS_std.c **** *
 804:Generated_Source\PSoC4/USBFS_std.c **** *******************************************************************************/
 805:Generated_Source\PSoC4/USBFS_std.c **** void USBFS_ConfigAltChanged(void) 
 806:Generated_Source\PSoC4/USBFS_std.c **** {
 807:Generated_Source\PSoC4/USBFS_std.c ****     uint32 ep;
 808:Generated_Source\PSoC4/USBFS_std.c ****     uint32 curEp;
 809:Generated_Source\PSoC4/USBFS_std.c ****     uint32 epType;
 810:Generated_Source\PSoC4/USBFS_std.c ****     uint32 i;
 811:Generated_Source\PSoC4/USBFS_std.c ****     uint8 interfaceNum;
 812:Generated_Source\PSoC4/USBFS_std.c **** 
 813:Generated_Source\PSoC4/USBFS_std.c ****     const T_USBFS_LUT CYCODE *pTmp;
 814:Generated_Source\PSoC4/USBFS_std.c ****     const T_USBFS_EP_SETTINGS_BLOCK CYCODE *pEP;
 815:Generated_Source\PSoC4/USBFS_std.c **** 
 816:Generated_Source\PSoC4/USBFS_std.c ****     /* Init Endpoints and Device Status if configured */
 817:Generated_Source\PSoC4/USBFS_std.c ****     if (USBFS_configuration > 0u)
 818:Generated_Source\PSoC4/USBFS_std.c ****     {
 819:Generated_Source\PSoC4/USBFS_std.c ****         /* Get number of endpoints configurations (ep). */
 820:Generated_Source\PSoC4/USBFS_std.c ****         pTmp = USBFS_GetConfigTablePtr(USBFS_configuration - 1u);
 821:Generated_Source\PSoC4/USBFS_std.c ****         pTmp = &pTmp[1u];
 822:Generated_Source\PSoC4/USBFS_std.c ****         ep = pTmp->c;
 823:Generated_Source\PSoC4/USBFS_std.c **** 
 824:Generated_Source\PSoC4/USBFS_std.c ****         /* Get pointer to endpoints setting table (pEP). */
 825:Generated_Source\PSoC4/USBFS_std.c ****         pEP = (const T_USBFS_EP_SETTINGS_BLOCK CYCODE *) pTmp->p_list;
 826:Generated_Source\PSoC4/USBFS_std.c ****         
 827:Generated_Source\PSoC4/USBFS_std.c ****         /* Look through all possible endpoint configurations. Find endpoints 
 828:Generated_Source\PSoC4/USBFS_std.c ****         * which belong to current interface and alternate settings for 
 829:Generated_Source\PSoC4/USBFS_std.c ****         * re-configuration.
 830:Generated_Source\PSoC4/USBFS_std.c ****         */
 831:Generated_Source\PSoC4/USBFS_std.c ****         interfaceNum = USBFS_interfaceNumber;
 832:Generated_Source\PSoC4/USBFS_std.c ****         for (i = 0u; i < ep; i++)
 833:Generated_Source\PSoC4/USBFS_std.c ****         {
 834:Generated_Source\PSoC4/USBFS_std.c ****             /* Find endpoints which belong to current interface and alternate settings. */
 835:Generated_Source\PSoC4/USBFS_std.c ****             if ((interfaceNum == pEP->interface) && 
 836:Generated_Source\PSoC4/USBFS_std.c ****                 (USBFS_interfaceSetting[interfaceNum] == pEP->altSetting))
 837:Generated_Source\PSoC4/USBFS_std.c ****             {
 838:Generated_Source\PSoC4/USBFS_std.c ****                 curEp  = ((uint32) pEP->addr & USBFS_DIR_UNUSED);
 839:Generated_Source\PSoC4/USBFS_std.c ****                 epType = ((uint32) pEP->attributes & USBFS_EP_TYPE_MASK);
 840:Generated_Source\PSoC4/USBFS_std.c ****                 
 841:Generated_Source\PSoC4/USBFS_std.c ****                 /* Change the SIE mode for the selected EP to NAK ALL */
 842:Generated_Source\PSoC4/USBFS_std.c ****                 USBFS_EP[curEp].epToggle   = 0u;
 843:Generated_Source\PSoC4/USBFS_std.c ****                 USBFS_EP[curEp].addr       = pEP->addr;
 844:Generated_Source\PSoC4/USBFS_std.c ****                 USBFS_EP[curEp].attrib     = pEP->attributes;
 845:Generated_Source\PSoC4/USBFS_std.c ****                 USBFS_EP[curEp].bufferSize = pEP->bufferSize;
 846:Generated_Source\PSoC4/USBFS_std.c **** 
 847:Generated_Source\PSoC4/USBFS_std.c ****                 if (0u != (pEP->addr & USBFS_DIR_IN))
 848:Generated_Source\PSoC4/USBFS_std.c ****                 {
 849:Generated_Source\PSoC4/USBFS_std.c ****                     /* IN Endpoint */
 850:Generated_Source\PSoC4/USBFS_std.c ****                     USBFS_EP[curEp].epMode     = USBFS_GET_ACTIVE_IN_EP_CR0_MODE(epType);
ARM GAS  C:\Users\TERENC~1\AppData\Local\Temp\ccVnttLg.s 			page 22


 851:Generated_Source\PSoC4/USBFS_std.c ****                     USBFS_EP[curEp].apiEpState = USBFS_EVENT_PENDING;
 852:Generated_Source\PSoC4/USBFS_std.c ****                 }
 853:Generated_Source\PSoC4/USBFS_std.c ****                 else
 854:Generated_Source\PSoC4/USBFS_std.c ****                 {
 855:Generated_Source\PSoC4/USBFS_std.c ****                     /* OUT Endpoint */
 856:Generated_Source\PSoC4/USBFS_std.c ****                     USBFS_EP[curEp].epMode     = USBFS_GET_ACTIVE_OUT_EP_CR0_MODE(epType);
 857:Generated_Source\PSoC4/USBFS_std.c ****                     USBFS_EP[curEp].apiEpState = USBFS_NO_EVENT_PENDING;
 858:Generated_Source\PSoC4/USBFS_std.c ****                 }
 859:Generated_Source\PSoC4/USBFS_std.c ****                 
 860:Generated_Source\PSoC4/USBFS_std.c ****                 /* Make SIE to NAK any endpoint requests */
 861:Generated_Source\PSoC4/USBFS_std.c ****                 USBFS_SIE_EP_BASE.sieEp[curEp].epCr0 = USBFS_MODE_NAK_IN_OUT;
 862:Generated_Source\PSoC4/USBFS_std.c **** 
 863:Generated_Source\PSoC4/USBFS_std.c ****             #if (USBFS_EP_MANAGEMENT_DMA_AUTO)
 864:Generated_Source\PSoC4/USBFS_std.c ****                 /* Clear IN data ready. */
 865:Generated_Source\PSoC4/USBFS_std.c ****                 USBFS_ARB_EP_BASE.arbEp[curEp].epCfg &= (uint32) ~USBFS_ARB_EPX_CFG_IN_DATA_RDY;
 866:Generated_Source\PSoC4/USBFS_std.c **** 
 867:Generated_Source\PSoC4/USBFS_std.c ****                 /* Select endpoint number of reconfiguration */
 868:Generated_Source\PSoC4/USBFS_std.c ****                 USBFS_DYN_RECONFIG_REG = (uint32) ((curEp - 1u) << USBFS_DYN_RECONFIG_EP_SHIFT);
 869:Generated_Source\PSoC4/USBFS_std.c ****                 
 870:Generated_Source\PSoC4/USBFS_std.c ****                 /* Request for dynamic re-configuration of endpoint. */
 871:Generated_Source\PSoC4/USBFS_std.c ****                 USBFS_DYN_RECONFIG_REG |= USBFS_DYN_RECONFIG_ENABLE;
 872:Generated_Source\PSoC4/USBFS_std.c ****                 
 873:Generated_Source\PSoC4/USBFS_std.c ****                 /* Wait until block is ready for re-configuration */
 874:Generated_Source\PSoC4/USBFS_std.c ****                 while (0u == (USBFS_DYN_RECONFIG_REG & USBFS_DYN_RECONFIG_RDY_STS))
 875:Generated_Source\PSoC4/USBFS_std.c ****                 {
 876:Generated_Source\PSoC4/USBFS_std.c ****                 }
 877:Generated_Source\PSoC4/USBFS_std.c ****                 
 878:Generated_Source\PSoC4/USBFS_std.c ****                 /* Once DYN_RECONFIG_RDY_STS bit is set, FW can change the EP configuration. */
 879:Generated_Source\PSoC4/USBFS_std.c ****                 /* Change EP Type with new direction */
 880:Generated_Source\PSoC4/USBFS_std.c ****                 if (0u != (pEP->addr & USBFS_DIR_IN))
 881:Generated_Source\PSoC4/USBFS_std.c ****                 {
 882:Generated_Source\PSoC4/USBFS_std.c ****                     /* Set endpoint type: 0 - IN and 1 - OUT. */
 883:Generated_Source\PSoC4/USBFS_std.c ****                     USBFS_EP_TYPE_REG &= (uint32) ~(uint32)((uint32) 0x01u << (curEp - 1u));
 884:Generated_Source\PSoC4/USBFS_std.c ****                     
 885:Generated_Source\PSoC4/USBFS_std.c ****                 #if (CY_PSOC4)
 886:Generated_Source\PSoC4/USBFS_std.c ****                     /* Clear DMA_TERMIN for IN endpoint */
 887:Generated_Source\PSoC4/USBFS_std.c ****                     USBFS_ARB_EP_BASE.arbEp[curEp].epIntEn &= (uint32) ~USBFS_ARB_EPX_INT_DMA_TERMI
 888:Generated_Source\PSoC4/USBFS_std.c ****                 #endif /* (CY_PSOC4) */
 889:Generated_Source\PSoC4/USBFS_std.c ****                 }
 890:Generated_Source\PSoC4/USBFS_std.c ****                 else
 891:Generated_Source\PSoC4/USBFS_std.c ****                 {
 892:Generated_Source\PSoC4/USBFS_std.c ****                     /* Set endpoint type: 0 - IN and 1- OUT. */
 893:Generated_Source\PSoC4/USBFS_std.c ****                     USBFS_EP_TYPE_REG |= (uint32) ((uint32) 0x01u << (curEp - 1u));
 894:Generated_Source\PSoC4/USBFS_std.c ****                     
 895:Generated_Source\PSoC4/USBFS_std.c ****                 #if (CY_PSOC4)
 896:Generated_Source\PSoC4/USBFS_std.c ****                     /* Set DMA_TERMIN for OUT endpoint */
 897:Generated_Source\PSoC4/USBFS_std.c ****                     USBFS_ARB_EP_BASE.arbEp[curEp].epIntEn |= (uint32) USBFS_ARB_EPX_INT_DMA_TERMIN
 898:Generated_Source\PSoC4/USBFS_std.c ****                 #endif /* (CY_PSOC4) */
 899:Generated_Source\PSoC4/USBFS_std.c ****                 }
 900:Generated_Source\PSoC4/USBFS_std.c ****                 
 901:Generated_Source\PSoC4/USBFS_std.c ****                 /* Complete dynamic re-configuration: all endpoint related status and signals 
 902:Generated_Source\PSoC4/USBFS_std.c ****                 * are set into the default state.
 903:Generated_Source\PSoC4/USBFS_std.c ****                 */
 904:Generated_Source\PSoC4/USBFS_std.c ****                 USBFS_DYN_RECONFIG_REG &= (uint32) ~USBFS_DYN_RECONFIG_ENABLE;
 905:Generated_Source\PSoC4/USBFS_std.c **** 
 906:Generated_Source\PSoC4/USBFS_std.c ****             #else
 907:Generated_Source\PSoC4/USBFS_std.c ****                 USBFS_SIE_EP_BASE.sieEp[curEp].epCnt0 = HI8(USBFS_EP[curEp].bufferSize);
ARM GAS  C:\Users\TERENC~1\AppData\Local\Temp\ccVnttLg.s 			page 23


 908:Generated_Source\PSoC4/USBFS_std.c ****                 USBFS_SIE_EP_BASE.sieEp[curEp].epCnt1 = LO8(USBFS_EP[curEp].bufferSize);
 909:Generated_Source\PSoC4/USBFS_std.c ****                 
 910:Generated_Source\PSoC4/USBFS_std.c ****                 #if (CY_PSOC4)
 911:Generated_Source\PSoC4/USBFS_std.c ****                     USBFS_ARB_EP16_BASE.arbEp[curEp].rwRa16  = (uint32) USBFS_EP[curEp].buffOffset;
 912:Generated_Source\PSoC4/USBFS_std.c ****                     USBFS_ARB_EP16_BASE.arbEp[curEp].rwWa16  = (uint32) USBFS_EP[curEp].buffOffset;
 913:Generated_Source\PSoC4/USBFS_std.c ****                 #else
 914:Generated_Source\PSoC4/USBFS_std.c ****                     USBFS_ARB_EP_BASE.arbEp[curEp].rwRa    = LO8(USBFS_EP[curEp].buffOffset);
 915:Generated_Source\PSoC4/USBFS_std.c ****                     USBFS_ARB_EP_BASE.arbEp[curEp].rwRaMsb = HI8(USBFS_EP[curEp].buffOffset);
 916:Generated_Source\PSoC4/USBFS_std.c ****                     USBFS_ARB_EP_BASE.arbEp[curEp].rwWa    = LO8(USBFS_EP[curEp].buffOffset);
 917:Generated_Source\PSoC4/USBFS_std.c ****                     USBFS_ARB_EP_BASE.arbEp[curEp].rwWaMsb = HI8(USBFS_EP[curEp].buffOffset);
 918:Generated_Source\PSoC4/USBFS_std.c ****                 #endif /* (CY_PSOC4) */                
 919:Generated_Source\PSoC4/USBFS_std.c ****             #endif /* (USBFS_EP_MANAGEMENT_DMA_AUTO) */
 920:Generated_Source\PSoC4/USBFS_std.c ****             }
 921:Generated_Source\PSoC4/USBFS_std.c ****             
 922:Generated_Source\PSoC4/USBFS_std.c ****             pEP = &pEP[1u]; /* Get next EP element */
 923:Generated_Source\PSoC4/USBFS_std.c ****         }
 924:Generated_Source\PSoC4/USBFS_std.c ****         
 925:Generated_Source\PSoC4/USBFS_std.c ****         /* The main loop has to re-enable DMA and OUT endpoint */
 926:Generated_Source\PSoC4/USBFS_std.c ****     }
 927:Generated_Source\PSoC4/USBFS_std.c **** }
 928:Generated_Source\PSoC4/USBFS_std.c **** 
 929:Generated_Source\PSoC4/USBFS_std.c **** 
 930:Generated_Source\PSoC4/USBFS_std.c **** /*******************************************************************************
 931:Generated_Source\PSoC4/USBFS_std.c **** * Function Name: USBFS_GetConfigTablePtr
 932:Generated_Source\PSoC4/USBFS_std.c **** ****************************************************************************//**
 933:Generated_Source\PSoC4/USBFS_std.c **** *
 934:Generated_Source\PSoC4/USBFS_std.c **** *  This routine returns a pointer a configuration table entry
 935:Generated_Source\PSoC4/USBFS_std.c **** *
 936:Generated_Source\PSoC4/USBFS_std.c **** *  \param confIndex:  Configuration Index
 937:Generated_Source\PSoC4/USBFS_std.c **** *
 938:Generated_Source\PSoC4/USBFS_std.c **** * \return
 939:Generated_Source\PSoC4/USBFS_std.c **** *  Device Descriptor pointer or NULL when descriptor does not exist.
 940:Generated_Source\PSoC4/USBFS_std.c **** *
 941:Generated_Source\PSoC4/USBFS_std.c **** *******************************************************************************/
 942:Generated_Source\PSoC4/USBFS_std.c **** const T_USBFS_LUT CYCODE *USBFS_GetConfigTablePtr(uint8 confIndex)
 943:Generated_Source\PSoC4/USBFS_std.c ****                                                         
 944:Generated_Source\PSoC4/USBFS_std.c **** {
 341              		.loc 1 944 0
 342              		.cfi_startproc
 343              		@ args = 0, pretend = 0, frame = 0
 344              		@ frame_needed = 0, uses_anonymous_args = 0
 345              		@ link register save eliminated.
 346              	.LVL18:
 945:Generated_Source\PSoC4/USBFS_std.c ****     /* Device Table */
 946:Generated_Source\PSoC4/USBFS_std.c ****     const T_USBFS_LUT CYCODE *pTmp;
 947:Generated_Source\PSoC4/USBFS_std.c **** 
 948:Generated_Source\PSoC4/USBFS_std.c ****     pTmp = (const T_USBFS_LUT CYCODE *) USBFS_TABLE[USBFS_device].p_list;
 347              		.loc 1 948 0
 348 0000 074B     		ldr	r3, .L25
 349 0002 1B78     		ldrb	r3, [r3]
 350 0004 DB00     		lsls	r3, r3, #3
 351 0006 074A     		ldr	r2, .L25+4
 352 0008 D318     		adds	r3, r2, r3
 353 000a 5B68     		ldr	r3, [r3, #4]
 354              	.LVL19:
 949:Generated_Source\PSoC4/USBFS_std.c **** 
 950:Generated_Source\PSoC4/USBFS_std.c ****     /* The first entry points to the Device Descriptor,
ARM GAS  C:\Users\TERENC~1\AppData\Local\Temp\ccVnttLg.s 			page 24


 951:Generated_Source\PSoC4/USBFS_std.c ****     *  the second entry point to the BOS Descriptor
 952:Generated_Source\PSoC4/USBFS_std.c ****     *  the rest configuration entries.
 953:Generated_Source\PSoC4/USBFS_std.c ****     *  Set pointer to the first Configuration Descriptor
 954:Generated_Source\PSoC4/USBFS_std.c ****     */
 955:Generated_Source\PSoC4/USBFS_std.c ****     pTmp = &pTmp[2u];
 956:Generated_Source\PSoC4/USBFS_std.c ****     /* For this table, c is the number of configuration descriptors  */
 957:Generated_Source\PSoC4/USBFS_std.c ****     if(confIndex >= pTmp->c)   /* Verify that required configuration descriptor exists */
 355              		.loc 1 957 0
 356 000c 1A7C     		ldrb	r2, [r3, #16]
 357 000e 8242     		cmp	r2, r0
 358 0010 04D9     		bls	.L24
 958:Generated_Source\PSoC4/USBFS_std.c ****     {
 959:Generated_Source\PSoC4/USBFS_std.c ****         pTmp = (const T_USBFS_LUT CYCODE *) NULL;
 960:Generated_Source\PSoC4/USBFS_std.c ****     }
 961:Generated_Source\PSoC4/USBFS_std.c ****     else
 962:Generated_Source\PSoC4/USBFS_std.c ****     {
 963:Generated_Source\PSoC4/USBFS_std.c ****         pTmp = (const T_USBFS_LUT CYCODE *) pTmp[confIndex].p_list;
 359              		.loc 1 963 0
 360 0012 C000     		lsls	r0, r0, #3
 361              	.LVL20:
 362 0014 1030     		adds	r0, r0, #16
 363 0016 1818     		adds	r0, r3, r0
 364 0018 4068     		ldr	r0, [r0, #4]
 365              	.LVL21:
 366 001a 00E0     		b	.L23
 367              	.LVL22:
 368              	.L24:
 959:Generated_Source\PSoC4/USBFS_std.c ****     }
 369              		.loc 1 959 0
 370 001c 0020     		movs	r0, #0
 371              	.LVL23:
 372              	.L23:
 964:Generated_Source\PSoC4/USBFS_std.c ****     }
 965:Generated_Source\PSoC4/USBFS_std.c **** 
 966:Generated_Source\PSoC4/USBFS_std.c ****     return (pTmp);
 967:Generated_Source\PSoC4/USBFS_std.c **** }
 373              		.loc 1 967 0
 374              		@ sp needed
 375 001e 7047     		bx	lr
 376              	.L26:
 377              		.align	2
 378              	.L25:
 379 0020 00000000 		.word	USBFS_device
 380 0024 00000000 		.word	USBFS_TABLE
 381              		.cfi_endproc
 382              	.LFE167:
 383              		.size	USBFS_GetConfigTablePtr, .-USBFS_GetConfigTablePtr
 384              		.section	.text.USBFS_ConfigAltChanged,"ax",%progbits
 385              		.align	2
 386              		.global	USBFS_ConfigAltChanged
 387              		.code	16
 388              		.thumb_func
 389              		.type	USBFS_ConfigAltChanged, %function
 390              	USBFS_ConfigAltChanged:
 391              	.LFB166:
 806:Generated_Source\PSoC4/USBFS_std.c ****     uint32 ep;
 392              		.loc 1 806 0
ARM GAS  C:\Users\TERENC~1\AppData\Local\Temp\ccVnttLg.s 			page 25


 393              		.cfi_startproc
 394              		@ args = 0, pretend = 0, frame = 0
 395              		@ frame_needed = 0, uses_anonymous_args = 0
 396 0000 F0B5     		push	{r4, r5, r6, r7, lr}
 397              		.cfi_def_cfa_offset 20
 398              		.cfi_offset 4, -20
 399              		.cfi_offset 5, -16
 400              		.cfi_offset 6, -12
 401              		.cfi_offset 7, -8
 402              		.cfi_offset 14, -4
 403 0002 5746     		mov	r7, r10
 404 0004 4E46     		mov	r6, r9
 405 0006 4546     		mov	r5, r8
 406 0008 E0B4     		push	{r5, r6, r7}
 407              		.cfi_def_cfa_offset 32
 408              		.cfi_offset 8, -32
 409              		.cfi_offset 9, -28
 410              		.cfi_offset 10, -24
 817:Generated_Source\PSoC4/USBFS_std.c ****     {
 411              		.loc 1 817 0
 412 000a 544B     		ldr	r3, .L41
 413 000c 1B78     		ldrb	r3, [r3]
 414 000e 002B     		cmp	r3, #0
 415 0010 00D1     		bne	.LCB384
 416 0012 9EE0     		b	.L27	@long jump
 417              	.LCB384:
 820:Generated_Source\PSoC4/USBFS_std.c ****         pTmp = &pTmp[1u];
 418              		.loc 1 820 0
 419 0014 514B     		ldr	r3, .L41
 420 0016 1878     		ldrb	r0, [r3]
 421 0018 0138     		subs	r0, r0, #1
 422 001a C0B2     		uxtb	r0, r0
 423 001c FFF7FEFF 		bl	USBFS_GetConfigTablePtr
 424              	.LVL24:
 822:Generated_Source\PSoC4/USBFS_std.c **** 
 425              		.loc 1 822 0
 426 0020 057A     		ldrb	r5, [r0, #8]
 427              	.LVL25:
 825:Generated_Source\PSoC4/USBFS_std.c ****         
 428              		.loc 1 825 0
 429 0022 C368     		ldr	r3, [r0, #12]
 430              	.LVL26:
 831:Generated_Source\PSoC4/USBFS_std.c ****         for (i = 0u; i < ep; i++)
 431              		.loc 1 831 0
 432 0024 4E4A     		ldr	r2, .L41+4
 433 0026 1078     		ldrb	r0, [r2]
 434              	.LVL27:
 435 0028 C0B2     		uxtb	r0, r0
 436              	.LVL28:
 832:Generated_Source\PSoC4/USBFS_std.c ****         {
 437              		.loc 1 832 0
 438 002a 0022     		movs	r2, #0
 439 002c 8EE0     		b	.L29
 440              	.LVL29:
 441              	.L38:
 835:Generated_Source\PSoC4/USBFS_std.c ****                 (USBFS_interfaceSetting[interfaceNum] == pEP->altSetting))
 442              		.loc 1 835 0
ARM GAS  C:\Users\TERENC~1\AppData\Local\Temp\ccVnttLg.s 			page 26


 443 002e 1978     		ldrb	r1, [r3]
 444 0030 8842     		cmp	r0, r1
 445 0032 00D0     		beq	.LCB412
 446 0034 88E0     		b	.L30	@long jump
 447              	.LCB412:
 836:Generated_Source\PSoC4/USBFS_std.c ****             {
 448              		.loc 1 836 0 discriminator 1
 449 0036 4B49     		ldr	r1, .L41+8
 450 0038 095C     		ldrb	r1, [r1, r0]
 451 003a C9B2     		uxtb	r1, r1
 452 003c 5C78     		ldrb	r4, [r3, #1]
 835:Generated_Source\PSoC4/USBFS_std.c ****                 (USBFS_interfaceSetting[interfaceNum] == pEP->altSetting))
 453              		.loc 1 835 0 discriminator 1
 454 003e A142     		cmp	r1, r4
 455 0040 00D0     		beq	.LCB419
 456 0042 81E0     		b	.L30	@long jump
 457              	.LCB419:
 838:Generated_Source\PSoC4/USBFS_std.c ****                 epType = ((uint32) pEP->attributes & USBFS_EP_TYPE_MASK);
 458              		.loc 1 838 0
 459 0044 9978     		ldrb	r1, [r3, #2]
 460 0046 7F24     		movs	r4, #127
 461 0048 0C40     		ands	r4, r1
 462              	.LVL30:
 839:Generated_Source\PSoC4/USBFS_std.c ****                 
 463              		.loc 1 839 0
 464 004a D978     		ldrb	r1, [r3, #3]
 465 004c 0326     		movs	r6, #3
 466 004e 0E40     		ands	r6, r1
 467 0050 B446     		mov	ip, r6
 468              	.LVL31:
 842:Generated_Source\PSoC4/USBFS_std.c ****                 USBFS_EP[curEp].addr       = pEP->addr;
 469              		.loc 1 842 0
 470 0052 4549     		ldr	r1, .L41+12
 471 0054 8846     		mov	r8, r1
 472 0056 6600     		lsls	r6, r4, #1
 473              	.LVL32:
 474 0058 3719     		adds	r7, r6, r4
 475 005a B900     		lsls	r1, r7, #2
 476 005c 4144     		add	r1, r1, r8
 477 005e 8A46     		mov	r10, r1
 478 0060 0027     		movs	r7, #0
 479 0062 CF70     		strb	r7, [r1, #3]
 843:Generated_Source\PSoC4/USBFS_std.c ****                 USBFS_EP[curEp].attrib     = pEP->attributes;
 480              		.loc 1 843 0
 481 0064 9F78     		ldrb	r7, [r3, #2]
 482 0066 0F71     		strb	r7, [r1, #4]
 844:Generated_Source\PSoC4/USBFS_std.c ****                 USBFS_EP[curEp].bufferSize = pEP->bufferSize;
 483              		.loc 1 844 0
 484 0068 DF78     		ldrb	r7, [r3, #3]
 485 006a B946     		mov	r9, r7
 486 006c 3619     		adds	r6, r6, r4
 487 006e B700     		lsls	r7, r6, #2
 488 0070 4646     		mov	r6, r8
 489 0072 4946     		mov	r1, r9
 490 0074 B955     		strb	r1, [r7, r6]
 845:Generated_Source\PSoC4/USBFS_std.c **** 
 491              		.loc 1 845 0
ARM GAS  C:\Users\TERENC~1\AppData\Local\Temp\ccVnttLg.s 			page 27


 492 0076 9E88     		ldrh	r6, [r3, #4]
 493 0078 5146     		mov	r1, r10
 494 007a 0E81     		strh	r6, [r1, #8]
 847:Generated_Source\PSoC4/USBFS_std.c ****                 {
 495              		.loc 1 847 0
 496 007c 0221     		movs	r1, #2
 497 007e 5956     		ldrsb	r1, [r3, r1]
 498 0080 0029     		cmp	r1, #0
 499 0082 0EDA     		bge	.L31
 850:Generated_Source\PSoC4/USBFS_std.c ****                     USBFS_EP[curEp].apiEpState = USBFS_EVENT_PENDING;
 500              		.loc 1 850 0
 501 0084 6146     		mov	r1, ip
 502 0086 0129     		cmp	r1, #1
 503 0088 01D1     		bne	.L39
 504 008a 0727     		movs	r7, #7
 505 008c 00E0     		b	.L32
 506              	.L39:
 507 008e 0D27     		movs	r7, #13
 508              	.L32:
 850:Generated_Source\PSoC4/USBFS_std.c ****                     USBFS_EP[curEp].apiEpState = USBFS_EVENT_PENDING;
 509              		.loc 1 850 0 is_stmt 0 discriminator 4
 510 0090 6600     		lsls	r6, r4, #1
 511 0092 3619     		adds	r6, r6, r4
 512 0094 B100     		lsls	r1, r6, #2
 513 0096 344E     		ldr	r6, .L41+12
 514 0098 7118     		adds	r1, r6, r1
 515 009a 4F71     		strb	r7, [r1, #5]
 851:Generated_Source\PSoC4/USBFS_std.c ****                 }
 516              		.loc 1 851 0 is_stmt 1 discriminator 4
 517 009c 0126     		movs	r6, #1
 518 009e 4E70     		strb	r6, [r1, #1]
 519 00a0 0DE0     		b	.L33
 520              	.L31:
 856:Generated_Source\PSoC4/USBFS_std.c ****                     USBFS_EP[curEp].apiEpState = USBFS_NO_EVENT_PENDING;
 521              		.loc 1 856 0
 522 00a2 6146     		mov	r1, ip
 523 00a4 0129     		cmp	r1, #1
 524 00a6 01D1     		bne	.L40
 525              	.LVL33:
 526 00a8 0527     		movs	r7, #5
 527 00aa 00E0     		b	.L34
 528              	.L40:
 529 00ac 0927     		movs	r7, #9
 530              	.L34:
 856:Generated_Source\PSoC4/USBFS_std.c ****                     USBFS_EP[curEp].apiEpState = USBFS_NO_EVENT_PENDING;
 531              		.loc 1 856 0 is_stmt 0 discriminator 4
 532 00ae 6600     		lsls	r6, r4, #1
 533 00b0 3619     		adds	r6, r6, r4
 534 00b2 B100     		lsls	r1, r6, #2
 535              	.LVL34:
 536 00b4 2C4E     		ldr	r6, .L41+12
 537 00b6 7118     		adds	r1, r6, r1
 538 00b8 4F71     		strb	r7, [r1, #5]
 857:Generated_Source\PSoC4/USBFS_std.c ****                 }
 539              		.loc 1 857 0 is_stmt 1 discriminator 4
 540 00ba 0026     		movs	r6, #0
 541 00bc 4E70     		strb	r6, [r1, #1]
ARM GAS  C:\Users\TERENC~1\AppData\Local\Temp\ccVnttLg.s 			page 28


 542              	.L33:
 861:Generated_Source\PSoC4/USBFS_std.c **** 
 543              		.loc 1 861 0
 544 00be A601     		lsls	r6, r4, #6
 545 00c0 2A49     		ldr	r1, .L41+16
 546 00c2 7118     		adds	r1, r6, r1
 547 00c4 0127     		movs	r7, #1
 548 00c6 BC46     		mov	ip, r7
 549              	.LVL35:
 550 00c8 8F60     		str	r7, [r1, #8]
 865:Generated_Source\PSoC4/USBFS_std.c **** 
 551              		.loc 1 865 0
 552 00ca 2949     		ldr	r1, .L41+20
 553 00cc 8846     		mov	r8, r1
 554 00ce 7758     		ldr	r7, [r6, r1]
 555 00d0 6146     		mov	r1, ip
 556 00d2 8F43     		bics	r7, r1
 557 00d4 4146     		mov	r1, r8
 558 00d6 7750     		str	r7, [r6, r1]
 868:Generated_Source\PSoC4/USBFS_std.c ****                 
 559              		.loc 1 868 0
 560 00d8 671E     		subs	r7, r4, #1
 561 00da 7900     		lsls	r1, r7, #1
 562 00dc 254E     		ldr	r6, .L41+24
 563 00de B046     		mov	r8, r6
 564 00e0 3160     		str	r1, [r6]
 871:Generated_Source\PSoC4/USBFS_std.c ****                 
 565              		.loc 1 871 0
 566 00e2 3168     		ldr	r1, [r6]
 567 00e4 6646     		mov	r6, ip
 568 00e6 3143     		orrs	r1, r6
 569 00e8 4646     		mov	r6, r8
 570 00ea 3160     		str	r1, [r6]
 571              	.L35:
 874:Generated_Source\PSoC4/USBFS_std.c ****                 {
 572              		.loc 1 874 0 discriminator 1
 573 00ec 2149     		ldr	r1, .L41+24
 574 00ee 0968     		ldr	r1, [r1]
 575 00f0 C906     		lsls	r1, r1, #27
 576 00f2 FBD5     		bpl	.L35
 880:Generated_Source\PSoC4/USBFS_std.c ****                 {
 577              		.loc 1 880 0
 578 00f4 0221     		movs	r1, #2
 579 00f6 5956     		ldrsb	r1, [r3, r1]
 580 00f8 0029     		cmp	r1, #0
 581 00fa 10DA     		bge	.L36
 883:Generated_Source\PSoC4/USBFS_std.c ****                     
 582              		.loc 1 883 0
 583 00fc 1E49     		ldr	r1, .L41+28
 584 00fe 8C46     		mov	ip, r1
 585 0100 0968     		ldr	r1, [r1]
 586 0102 0126     		movs	r6, #1
 587 0104 BE40     		lsls	r6, r6, r7
 588 0106 B143     		bics	r1, r6
 589 0108 6646     		mov	r6, ip
 590 010a 3160     		str	r1, [r6]
 887:Generated_Source\PSoC4/USBFS_std.c ****                 #endif /* (CY_PSOC4) */
ARM GAS  C:\Users\TERENC~1\AppData\Local\Temp\ccVnttLg.s 			page 29


 591              		.loc 1 887 0
 592 010c A401     		lsls	r4, r4, #6
 593              	.LVL36:
 594 010e 1849     		ldr	r1, .L41+20
 595 0110 8C46     		mov	ip, r1
 596 0112 6444     		add	r4, r4, ip
 597 0114 6168     		ldr	r1, [r4, #4]
 598 0116 2026     		movs	r6, #32
 599 0118 B143     		bics	r1, r6
 600 011a 6160     		str	r1, [r4, #4]
 601 011c 0FE0     		b	.L37
 602              	.LVL37:
 603              	.L36:
 893:Generated_Source\PSoC4/USBFS_std.c ****                     
 604              		.loc 1 893 0
 605 011e 164E     		ldr	r6, .L41+28
 606 0120 3168     		ldr	r1, [r6]
 607 0122 8C46     		mov	ip, r1
 608 0124 0121     		movs	r1, #1
 609 0126 B940     		lsls	r1, r1, r7
 610 0128 6746     		mov	r7, ip
 611 012a 3943     		orrs	r1, r7
 612 012c 3160     		str	r1, [r6]
 897:Generated_Source\PSoC4/USBFS_std.c ****                 #endif /* (CY_PSOC4) */
 613              		.loc 1 897 0
 614 012e A401     		lsls	r4, r4, #6
 615              	.LVL38:
 616 0130 0F49     		ldr	r1, .L41+20
 617 0132 8C46     		mov	ip, r1
 618 0134 6444     		add	r4, r4, ip
 619 0136 6668     		ldr	r6, [r4, #4]
 620 0138 2021     		movs	r1, #32
 621 013a 3143     		orrs	r1, r6
 622 013c 6160     		str	r1, [r4, #4]
 623              	.L37:
 904:Generated_Source\PSoC4/USBFS_std.c **** 
 624              		.loc 1 904 0
 625 013e 0D4C     		ldr	r4, .L41+24
 626 0140 2168     		ldr	r1, [r4]
 627 0142 0126     		movs	r6, #1
 628 0144 B143     		bics	r1, r6
 629 0146 2160     		str	r1, [r4]
 630              	.L30:
 922:Generated_Source\PSoC4/USBFS_std.c ****         }
 631              		.loc 1 922 0 discriminator 2
 632 0148 0833     		adds	r3, r3, #8
 633              	.LVL39:
 832:Generated_Source\PSoC4/USBFS_std.c ****         {
 634              		.loc 1 832 0 discriminator 2
 635 014a 0132     		adds	r2, r2, #1
 636              	.LVL40:
 637              	.L29:
 832:Generated_Source\PSoC4/USBFS_std.c ****         {
 638              		.loc 1 832 0 is_stmt 0 discriminator 1
 639 014c AA42     		cmp	r2, r5
 640 014e 00D2     		bcs	.LCB618
 641 0150 6DE7     		b	.L38	@long jump
ARM GAS  C:\Users\TERENC~1\AppData\Local\Temp\ccVnttLg.s 			page 30


 642              	.LCB618:
 643              	.LVL41:
 644              	.L27:
 927:Generated_Source\PSoC4/USBFS_std.c **** 
 645              		.loc 1 927 0 is_stmt 1
 646              		@ sp needed
 647 0152 1CBC     		pop	{r2, r3, r4}
 648 0154 9046     		mov	r8, r2
 649 0156 9946     		mov	r9, r3
 650 0158 A246     		mov	r10, r4
 651 015a F0BD     		pop	{r4, r5, r6, r7, pc}
 652              	.L42:
 653              		.align	2
 654              	.L41:
 655 015c 00000000 		.word	USBFS_configuration
 656 0160 00000000 		.word	USBFS_interfaceNumber
 657 0164 00000000 		.word	USBFS_interfaceSetting
 658 0168 00000000 		.word	USBFS_EP
 659 016c F0FF2B40 		.word	1076625392
 660 0170 C0012C40 		.word	1076625856
 661 0174 50002C40 		.word	1076625488
 662 0178 3C022C40 		.word	1076625980
 663              		.cfi_endproc
 664              	.LFE166:
 665              		.size	USBFS_ConfigAltChanged, .-USBFS_ConfigAltChanged
 666              		.section	.text.USBFS_GetDeviceTablePtr,"ax",%progbits
 667              		.align	2
 668              		.global	USBFS_GetDeviceTablePtr
 669              		.code	16
 670              		.thumb_func
 671              		.type	USBFS_GetDeviceTablePtr, %function
 672              	USBFS_GetDeviceTablePtr:
 673              	.LFB168:
 968:Generated_Source\PSoC4/USBFS_std.c **** 
 969:Generated_Source\PSoC4/USBFS_std.c **** 
 970:Generated_Source\PSoC4/USBFS_std.c **** #if (USBFS_BOS_ENABLE)
 971:Generated_Source\PSoC4/USBFS_std.c ****     /*******************************************************************************
 972:Generated_Source\PSoC4/USBFS_std.c ****     * Function Name: USBFS_GetBOSPtr
 973:Generated_Source\PSoC4/USBFS_std.c ****     ****************************************************************************//**
 974:Generated_Source\PSoC4/USBFS_std.c ****     *
 975:Generated_Source\PSoC4/USBFS_std.c ****     *  This routine returns a pointer a BOS table entry
 976:Generated_Source\PSoC4/USBFS_std.c ****     *
 977:Generated_Source\PSoC4/USBFS_std.c ****     *  
 978:Generated_Source\PSoC4/USBFS_std.c ****     *
 979:Generated_Source\PSoC4/USBFS_std.c ****     * \return
 980:Generated_Source\PSoC4/USBFS_std.c ****     *  BOS Descriptor pointer or NULL when descriptor does not exist.
 981:Generated_Source\PSoC4/USBFS_std.c ****     *
 982:Generated_Source\PSoC4/USBFS_std.c ****     *******************************************************************************/
 983:Generated_Source\PSoC4/USBFS_std.c ****     const T_USBFS_LUT CYCODE *USBFS_GetBOSPtr(void)
 984:Generated_Source\PSoC4/USBFS_std.c ****                                                             
 985:Generated_Source\PSoC4/USBFS_std.c ****     {
 986:Generated_Source\PSoC4/USBFS_std.c ****         /* Device Table */
 987:Generated_Source\PSoC4/USBFS_std.c ****         const T_USBFS_LUT CYCODE *pTmp;
 988:Generated_Source\PSoC4/USBFS_std.c **** 
 989:Generated_Source\PSoC4/USBFS_std.c ****         pTmp = (const T_USBFS_LUT CYCODE *) USBFS_TABLE[USBFS_device].p_list;
 990:Generated_Source\PSoC4/USBFS_std.c **** 
 991:Generated_Source\PSoC4/USBFS_std.c ****         /* The first entry points to the Device Descriptor,
ARM GAS  C:\Users\TERENC~1\AppData\Local\Temp\ccVnttLg.s 			page 31


 992:Generated_Source\PSoC4/USBFS_std.c ****         *  the second entry points to the BOS Descriptor
 993:Generated_Source\PSoC4/USBFS_std.c ****         */
 994:Generated_Source\PSoC4/USBFS_std.c ****         pTmp = &pTmp[1u];
 995:Generated_Source\PSoC4/USBFS_std.c ****         pTmp = (const T_USBFS_LUT CYCODE *) pTmp->p_list;
 996:Generated_Source\PSoC4/USBFS_std.c ****         return (pTmp);
 997:Generated_Source\PSoC4/USBFS_std.c ****     }
 998:Generated_Source\PSoC4/USBFS_std.c **** #endif /* (USBFS_BOS_ENABLE) */
 999:Generated_Source\PSoC4/USBFS_std.c **** 
1000:Generated_Source\PSoC4/USBFS_std.c **** 
1001:Generated_Source\PSoC4/USBFS_std.c **** /*******************************************************************************
1002:Generated_Source\PSoC4/USBFS_std.c **** * Function Name: USBFS_GetDeviceTablePtr
1003:Generated_Source\PSoC4/USBFS_std.c **** ****************************************************************************//**
1004:Generated_Source\PSoC4/USBFS_std.c **** *
1005:Generated_Source\PSoC4/USBFS_std.c **** *  This routine returns a pointer to the Device table
1006:Generated_Source\PSoC4/USBFS_std.c **** *
1007:Generated_Source\PSoC4/USBFS_std.c **** * \return
1008:Generated_Source\PSoC4/USBFS_std.c **** *  Device Table pointer
1009:Generated_Source\PSoC4/USBFS_std.c **** *
1010:Generated_Source\PSoC4/USBFS_std.c **** *******************************************************************************/
1011:Generated_Source\PSoC4/USBFS_std.c **** const T_USBFS_LUT CYCODE *USBFS_GetDeviceTablePtr(void)
1012:Generated_Source\PSoC4/USBFS_std.c ****                                                             
1013:Generated_Source\PSoC4/USBFS_std.c **** {
 674              		.loc 1 1013 0
 675              		.cfi_startproc
 676              		@ args = 0, pretend = 0, frame = 0
 677              		@ frame_needed = 0, uses_anonymous_args = 0
 678              		@ link register save eliminated.
1014:Generated_Source\PSoC4/USBFS_std.c ****     /* Device Table */
1015:Generated_Source\PSoC4/USBFS_std.c ****     return( (const T_USBFS_LUT CYCODE *) USBFS_TABLE[USBFS_device].p_list );
 679              		.loc 1 1015 0
 680 0000 034B     		ldr	r3, .L44
 681 0002 1B78     		ldrb	r3, [r3]
 682 0004 DB00     		lsls	r3, r3, #3
 683 0006 034A     		ldr	r2, .L44+4
 684 0008 D318     		adds	r3, r2, r3
 685 000a 5868     		ldr	r0, [r3, #4]
1016:Generated_Source\PSoC4/USBFS_std.c **** }
 686              		.loc 1 1016 0
 687              		@ sp needed
 688 000c 7047     		bx	lr
 689              	.L45:
 690 000e C046     		.align	2
 691              	.L44:
 692 0010 00000000 		.word	USBFS_device
 693 0014 00000000 		.word	USBFS_TABLE
 694              		.cfi_endproc
 695              	.LFE168:
 696              		.size	USBFS_GetDeviceTablePtr, .-USBFS_GetDeviceTablePtr
 697              		.section	.text.USBFS_GetInterfaceClassTablePtr,"ax",%progbits
 698              		.align	2
 699              		.global	USBFS_GetInterfaceClassTablePtr
 700              		.code	16
 701              		.thumb_func
 702              		.type	USBFS_GetInterfaceClassTablePtr, %function
 703              	USBFS_GetInterfaceClassTablePtr:
 704              	.LFB169:
1017:Generated_Source\PSoC4/USBFS_std.c **** 
ARM GAS  C:\Users\TERENC~1\AppData\Local\Temp\ccVnttLg.s 			page 32


1018:Generated_Source\PSoC4/USBFS_std.c **** 
1019:Generated_Source\PSoC4/USBFS_std.c **** /*******************************************************************************
1020:Generated_Source\PSoC4/USBFS_std.c **** * Function Name: USB_GetInterfaceClassTablePtr
1021:Generated_Source\PSoC4/USBFS_std.c **** ****************************************************************************//**
1022:Generated_Source\PSoC4/USBFS_std.c **** *
1023:Generated_Source\PSoC4/USBFS_std.c **** *  This routine returns Interface Class table pointer, which contains
1024:Generated_Source\PSoC4/USBFS_std.c **** *  the relation between interface number and interface class.
1025:Generated_Source\PSoC4/USBFS_std.c **** *
1026:Generated_Source\PSoC4/USBFS_std.c **** * \return
1027:Generated_Source\PSoC4/USBFS_std.c **** *  Interface Class table pointer.
1028:Generated_Source\PSoC4/USBFS_std.c **** *
1029:Generated_Source\PSoC4/USBFS_std.c **** *******************************************************************************/
1030:Generated_Source\PSoC4/USBFS_std.c **** const uint8 CYCODE *USBFS_GetInterfaceClassTablePtr(void)
1031:Generated_Source\PSoC4/USBFS_std.c ****                                                         
1032:Generated_Source\PSoC4/USBFS_std.c **** {
 705              		.loc 1 1032 0
 706              		.cfi_startproc
 707              		@ args = 0, pretend = 0, frame = 0
 708              		@ frame_needed = 0, uses_anonymous_args = 0
 709 0000 10B5     		push	{r4, lr}
 710              		.cfi_def_cfa_offset 8
 711              		.cfi_offset 4, -8
 712              		.cfi_offset 14, -4
1033:Generated_Source\PSoC4/USBFS_std.c ****     const T_USBFS_LUT CYCODE *pTmp;
1034:Generated_Source\PSoC4/USBFS_std.c ****     const uint8 CYCODE *pInterfaceClass;
1035:Generated_Source\PSoC4/USBFS_std.c ****     uint8 currentInterfacesNum;
1036:Generated_Source\PSoC4/USBFS_std.c **** 
1037:Generated_Source\PSoC4/USBFS_std.c ****     pTmp = USBFS_GetConfigTablePtr(USBFS_configuration - 1u);
 713              		.loc 1 1037 0
 714 0002 084B     		ldr	r3, .L49
 715 0004 1878     		ldrb	r0, [r3]
 716 0006 0138     		subs	r0, r0, #1
 717 0008 C0B2     		uxtb	r0, r0
 718 000a FFF7FEFF 		bl	USBFS_GetConfigTablePtr
 719              	.LVL42:
1038:Generated_Source\PSoC4/USBFS_std.c ****     if (pTmp != NULL)
 720              		.loc 1 1038 0
 721 000e 0028     		cmp	r0, #0
 722 0010 06D0     		beq	.L48
1039:Generated_Source\PSoC4/USBFS_std.c ****     {
1040:Generated_Source\PSoC4/USBFS_std.c ****         currentInterfacesNum  = ((const uint8 *) pTmp->p_list)[USBFS_CONFIG_DESCR_NUM_INTERFACES];
 723              		.loc 1 1040 0
 724 0012 4368     		ldr	r3, [r0, #4]
 725 0014 1B79     		ldrb	r3, [r3, #4]
 726              	.LVL43:
1041:Generated_Source\PSoC4/USBFS_std.c ****         /* Third entry in the LUT starts the Interface Table pointers */
1042:Generated_Source\PSoC4/USBFS_std.c ****         /* The INTERFACE_CLASS table is located after all interfaces */
1043:Generated_Source\PSoC4/USBFS_std.c ****         pTmp = &pTmp[currentInterfacesNum + 2u];
 727              		.loc 1 1043 0
 728 0016 0233     		adds	r3, r3, #2
 729              	.LVL44:
 730 0018 DB00     		lsls	r3, r3, #3
 731              	.LVL45:
 732 001a C018     		adds	r0, r0, r3
 733              	.LVL46:
1044:Generated_Source\PSoC4/USBFS_std.c ****         pInterfaceClass = (const uint8 CYCODE *) pTmp->p_list;
 734              		.loc 1 1044 0
ARM GAS  C:\Users\TERENC~1\AppData\Local\Temp\ccVnttLg.s 			page 33


 735 001c 4068     		ldr	r0, [r0, #4]
 736              	.LVL47:
 737 001e 00E0     		b	.L47
 738              	.LVL48:
 739              	.L48:
1045:Generated_Source\PSoC4/USBFS_std.c ****     }
1046:Generated_Source\PSoC4/USBFS_std.c ****     else
1047:Generated_Source\PSoC4/USBFS_std.c ****     {
1048:Generated_Source\PSoC4/USBFS_std.c ****         pInterfaceClass = (const uint8 CYCODE *) NULL;
 740              		.loc 1 1048 0
 741 0020 0020     		movs	r0, #0
 742              	.LVL49:
 743              	.L47:
1049:Generated_Source\PSoC4/USBFS_std.c ****     }
1050:Generated_Source\PSoC4/USBFS_std.c **** 
1051:Generated_Source\PSoC4/USBFS_std.c ****     return (pInterfaceClass);
1052:Generated_Source\PSoC4/USBFS_std.c **** }
 744              		.loc 1 1052 0
 745              		@ sp needed
 746 0022 10BD     		pop	{r4, pc}
 747              	.L50:
 748              		.align	2
 749              	.L49:
 750 0024 00000000 		.word	USBFS_configuration
 751              		.cfi_endproc
 752              	.LFE169:
 753              		.size	USBFS_GetInterfaceClassTablePtr, .-USBFS_GetInterfaceClassTablePtr
 754              		.section	.text.USBFS_Config,"ax",%progbits
 755              		.align	2
 756              		.global	USBFS_Config
 757              		.code	16
 758              		.thumb_func
 759              		.type	USBFS_Config, %function
 760              	USBFS_Config:
 761              	.LFB165:
 571:Generated_Source\PSoC4/USBFS_std.c ****     uint8 ep;
 762              		.loc 1 571 0
 763              		.cfi_startproc
 764              		@ args = 0, pretend = 0, frame = 8
 765              		@ frame_needed = 0, uses_anonymous_args = 0
 766              	.LVL50:
 767 0000 F0B5     		push	{r4, r5, r6, r7, lr}
 768              		.cfi_def_cfa_offset 20
 769              		.cfi_offset 4, -20
 770              		.cfi_offset 5, -16
 771              		.cfi_offset 6, -12
 772              		.cfi_offset 7, -8
 773              		.cfi_offset 14, -4
 774 0002 4F46     		mov	r7, r9
 775 0004 4646     		mov	r6, r8
 776 0006 C0B4     		push	{r6, r7}
 777              		.cfi_def_cfa_offset 28
 778              		.cfi_offset 8, -28
 779              		.cfi_offset 9, -24
 780 0008 83B0     		sub	sp, sp, #12
 781              		.cfi_def_cfa_offset 40
 782              	.LVL51:
ARM GAS  C:\Users\TERENC~1\AppData\Local\Temp\ccVnttLg.s 			page 34


 586:Generated_Source\PSoC4/USBFS_std.c ****     {
 783              		.loc 1 586 0
 784 000a 0023     		movs	r3, #0
 785 000c 12E0     		b	.L52
 786              	.LVL52:
 787              	.L53:
 588:Generated_Source\PSoC4/USBFS_std.c ****         USBFS_EP[ep].hwEpState  = 0u;
 788              		.loc 1 588 0 discriminator 3
 789 000e 664E     		ldr	r6, .L75
 790 0010 5900     		lsls	r1, r3, #1
 791 0012 CC18     		adds	r4, r1, r3
 792 0014 A200     		lsls	r2, r4, #2
 793 0016 0024     		movs	r4, #0
 794 0018 9455     		strb	r4, [r2, r6]
 589:Generated_Source\PSoC4/USBFS_std.c ****         USBFS_EP[ep].epToggle   = 0u;
 795              		.loc 1 589 0 discriminator 3
 796 001a B218     		adds	r2, r6, r2
 797 001c 9470     		strb	r4, [r2, #2]
 590:Generated_Source\PSoC4/USBFS_std.c ****         USBFS_EP[ep].bufferSize = 0u;
 798              		.loc 1 590 0 discriminator 3
 799 001e D470     		strb	r4, [r2, #3]
 591:Generated_Source\PSoC4/USBFS_std.c ****         USBFS_EP[ep].interface  = 0u;
 800              		.loc 1 591 0 discriminator 3
 801 0020 0025     		movs	r5, #0
 802 0022 1481     		strh	r4, [r2, #8]
 592:Generated_Source\PSoC4/USBFS_std.c ****         USBFS_EP[ep].apiEpState = USBFS_NO_EVENT_PENDING;
 803              		.loc 1 592 0 discriminator 3
 804 0024 9572     		strb	r5, [r2, #10]
 593:Generated_Source\PSoC4/USBFS_std.c ****         USBFS_EP[ep].epMode     = USBFS_MODE_DISABLE;   
 805              		.loc 1 593 0 discriminator 3
 806 0026 5570     		strb	r5, [r2, #1]
 594:Generated_Source\PSoC4/USBFS_std.c ****     }
 807              		.loc 1 594 0 discriminator 3
 808 0028 C918     		adds	r1, r1, r3
 809 002a 8A00     		lsls	r2, r1, #2
 810 002c B218     		adds	r2, r6, r2
 811 002e 5571     		strb	r5, [r2, #5]
 586:Generated_Source\PSoC4/USBFS_std.c ****     {
 812              		.loc 1 586 0 discriminator 3
 813 0030 0133     		adds	r3, r3, #1
 814              	.LVL53:
 815 0032 DBB2     		uxtb	r3, r3
 816              	.LVL54:
 817              	.L52:
 586:Generated_Source\PSoC4/USBFS_std.c ****     {
 818              		.loc 1 586 0 is_stmt 0 discriminator 1
 819 0034 082B     		cmp	r3, #8
 820 0036 EAD9     		bls	.L53
 598:Generated_Source\PSoC4/USBFS_std.c ****     {
 821              		.loc 1 598 0 is_stmt 1
 822 0038 0028     		cmp	r0, #0
 823 003a 08D1     		bne	.L72
 824 003c 0AE0     		b	.L55
 825              	.LVL55:
 826              	.L56:
 602:Generated_Source\PSoC4/USBFS_std.c ****             USBFS_interfaceSettingLast[i] = 0u;
 827              		.loc 1 602 0 discriminator 3
ARM GAS  C:\Users\TERENC~1\AppData\Local\Temp\ccVnttLg.s 			page 35


 828 003e 0022     		movs	r2, #0
 829 0040 5A49     		ldr	r1, .L75+4
 830 0042 CA54     		strb	r2, [r1, r3]
 603:Generated_Source\PSoC4/USBFS_std.c ****         }
 831              		.loc 1 603 0 discriminator 3
 832 0044 5A49     		ldr	r1, .L75+8
 833 0046 CA54     		strb	r2, [r1, r3]
 600:Generated_Source\PSoC4/USBFS_std.c ****         {
 834              		.loc 1 600 0 discriminator 3
 835 0048 0133     		adds	r3, r3, #1
 836              	.LVL56:
 837 004a DBB2     		uxtb	r3, r3
 838              	.LVL57:
 839 004c 00E0     		b	.L54
 840              	.LVL58:
 841              	.L72:
 842 004e 0023     		movs	r3, #0
 843              	.LVL59:
 844              	.L54:
 600:Generated_Source\PSoC4/USBFS_std.c ****         {
 845              		.loc 1 600 0 is_stmt 0 discriminator 1
 846 0050 032B     		cmp	r3, #3
 847 0052 F4D9     		bls	.L56
 848              	.LVL60:
 849              	.L55:
 608:Generated_Source\PSoC4/USBFS_std.c ****     {
 850              		.loc 1 608 0 is_stmt 1
 851 0054 574B     		ldr	r3, .L75+12
 852 0056 1B78     		ldrb	r3, [r3]
 853 0058 002B     		cmp	r3, #0
 854 005a 00D1     		bne	.LCB827
 855 005c 9FE0     		b	.L51	@long jump
 856              	.LCB827:
 614:Generated_Source\PSoC4/USBFS_std.c ****         
 857              		.loc 1 614 0
 858 005e 554B     		ldr	r3, .L75+12
 859 0060 1878     		ldrb	r0, [r3]
 860              	.LVL61:
 861 0062 0138     		subs	r0, r0, #1
 862 0064 C0B2     		uxtb	r0, r0
 863 0066 FFF7FEFF 		bl	USBFS_GetConfigTablePtr
 864              	.LVL62:
 618:Generated_Source\PSoC4/USBFS_std.c ****         {
 865              		.loc 1 618 0
 866 006a 4368     		ldr	r3, [r0, #4]
 867 006c DB79     		ldrb	r3, [r3, #7]
 868 006e 5B06     		lsls	r3, r3, #25
 869 0070 06D5     		bpl	.L58
 620:Generated_Source\PSoC4/USBFS_std.c ****         }
 870              		.loc 1 620 0
 871 0072 514A     		ldr	r2, .L75+16
 872 0074 1178     		ldrb	r1, [r2]
 873 0076 0123     		movs	r3, #1
 874 0078 0B43     		orrs	r3, r1
 875 007a DBB2     		uxtb	r3, r3
 876 007c 1370     		strb	r3, [r2]
 877 007e 04E0     		b	.L59
ARM GAS  C:\Users\TERENC~1\AppData\Local\Temp\ccVnttLg.s 			page 36


 878              	.L58:
 624:Generated_Source\PSoC4/USBFS_std.c ****         }
 879              		.loc 1 624 0
 880 0080 4D4A     		ldr	r2, .L75+16
 881 0082 1378     		ldrb	r3, [r2]
 882 0084 0121     		movs	r1, #1
 883 0086 8B43     		bics	r3, r1
 884 0088 1370     		strb	r3, [r2]
 885              	.L59:
 886              	.LVL63:
 629:Generated_Source\PSoC4/USBFS_std.c **** 
 887              		.loc 1 629 0
 888 008a 067A     		ldrb	r6, [r0, #8]
 889              	.LVL64:
 687:Generated_Source\PSoC4/USBFS_std.c ****             {
 890              		.loc 1 687 0
 891 008c 0125     		movs	r5, #1
 892 008e 6CE0     		b	.L60
 893              	.LVL65:
 894              	.L69:
 690:Generated_Source\PSoC4/USBFS_std.c ****                 /* Find max length for each EP and select it (length could be different in differen
 895              		.loc 1 690 0
 896 0090 C468     		ldr	r4, [r0, #12]
 897              	.LVL66:
 694:Generated_Source\PSoC4/USBFS_std.c ****                 {
 898              		.loc 1 694 0
 899 0092 0023     		movs	r3, #0
 900 0094 65E0     		b	.L61
 901              	.LVL67:
 902              	.L68:
 696:Generated_Source\PSoC4/USBFS_std.c ****                     {
 903              		.loc 1 696 0
 904 0096 A278     		ldrb	r2, [r4, #2]
 905 0098 7F21     		movs	r1, #127
 906 009a 0A40     		ands	r2, r1
 907 009c 9542     		cmp	r5, r2
 908 009e 5DD1     		bne	.L62
 699:Generated_Source\PSoC4/USBFS_std.c ****                         {
 909              		.loc 1 699 0
 910 00a0 0195     		str	r5, [sp, #4]
 911 00a2 6900     		lsls	r1, r5, #1
 912 00a4 4919     		adds	r1, r1, r5
 913 00a6 8A00     		lsls	r2, r1, #2
 914 00a8 3F49     		ldr	r1, .L75
 915 00aa 8A18     		adds	r2, r1, r2
 916 00ac 1289     		ldrh	r2, [r2, #8]
 917 00ae 92B2     		uxth	r2, r2
 918 00b0 A188     		ldrh	r1, [r4, #4]
 919 00b2 8A42     		cmp	r2, r1
 920 00b4 05D2     		bcs	.L63
 701:Generated_Source\PSoC4/USBFS_std.c ****                         }
 921              		.loc 1 701 0
 922 00b6 6A00     		lsls	r2, r5, #1
 923 00b8 5719     		adds	r7, r2, r5
 924 00ba BA00     		lsls	r2, r7, #2
 925 00bc 3A4F     		ldr	r7, .L75
 926 00be BA18     		adds	r2, r7, r2
ARM GAS  C:\Users\TERENC~1\AppData\Local\Temp\ccVnttLg.s 			page 37


 927 00c0 1181     		strh	r1, [r2, #8]
 928              	.L63:
 705:Generated_Source\PSoC4/USBFS_std.c ****                         {                            
 929              		.loc 1 705 0
 930 00c2 2278     		ldrb	r2, [r4]
 931 00c4 3949     		ldr	r1, .L75+4
 932 00c6 8A5C     		ldrb	r2, [r1, r2]
 933 00c8 D2B2     		uxtb	r2, r2
 934 00ca 6178     		ldrb	r1, [r4, #1]
 935 00cc 8A42     		cmp	r2, r1
 936 00ce 45D1     		bne	.L62
 707:Generated_Source\PSoC4/USBFS_std.c ****                             USBFS_EP[i].attrib = pEP->attributes;
 937              		.loc 1 707 0
 938 00d0 A378     		ldrb	r3, [r4, #2]
 939              	.LVL68:
 940 00d2 9846     		mov	r8, r3
 941 00d4 344B     		ldr	r3, .L75
 942 00d6 9946     		mov	r9, r3
 943 00d8 019F     		ldr	r7, [sp, #4]
 944 00da 7B00     		lsls	r3, r7, #1
 945 00dc BC46     		mov	ip, r7
 946 00de 9C44     		add	ip, ip, r3
 947 00e0 6246     		mov	r2, ip
 948 00e2 9200     		lsls	r2, r2, #2
 949 00e4 4A44     		add	r2, r2, r9
 950 00e6 4146     		mov	r1, r8
 951 00e8 1171     		strb	r1, [r2, #4]
 708:Generated_Source\PSoC4/USBFS_std.c ****                             
 952              		.loc 1 708 0
 953 00ea E278     		ldrb	r2, [r4, #3]
 954 00ec 9446     		mov	ip, r2
 955 00ee B846     		mov	r8, r7
 956 00f0 4344     		add	r3, r3, r8
 957 00f2 9A00     		lsls	r2, r3, #2
 958 00f4 6346     		mov	r3, ip
 959 00f6 4946     		mov	r1, r9
 960 00f8 5354     		strb	r3, [r2, r1]
 710:Generated_Source\PSoC4/USBFS_std.c ****                             
 961              		.loc 1 710 0
 962 00fa E378     		ldrb	r3, [r4, #3]
 963 00fc 0322     		movs	r2, #3
 964 00fe 1340     		ands	r3, r2
 965              	.LVL69:
 712:Generated_Source\PSoC4/USBFS_std.c ****                             {
 966              		.loc 1 712 0
 967 0100 0222     		movs	r2, #2
 968 0102 A256     		ldrsb	r2, [r4, r2]
 969 0104 002A     		cmp	r2, #0
 970 0106 14DA     		bge	.L64
 715:Generated_Source\PSoC4/USBFS_std.c ****                                 USBFS_EP[i].apiEpState = USBFS_EVENT_PENDING;
 971              		.loc 1 715 0
 972 0108 012B     		cmp	r3, #1
 973 010a 02D1     		bne	.L73
 974 010c 0633     		adds	r3, r3, #6
 975              	.LVL70:
 976 010e 9C46     		mov	ip, r3
 977 0110 01E0     		b	.L65
ARM GAS  C:\Users\TERENC~1\AppData\Local\Temp\ccVnttLg.s 			page 38


 978              	.LVL71:
 979              	.L73:
 980 0112 0D23     		movs	r3, #13
 981              	.LVL72:
 982 0114 9C46     		mov	ip, r3
 983              	.L65:
 715:Generated_Source\PSoC4/USBFS_std.c ****                                 USBFS_EP[i].apiEpState = USBFS_EVENT_PENDING;
 984              		.loc 1 715 0 is_stmt 0 discriminator 4
 985 0116 2449     		ldr	r1, .L75
 986 0118 019F     		ldr	r7, [sp, #4]
 987 011a 7B00     		lsls	r3, r7, #1
 988 011c DC19     		adds	r4, r3, r7
 989              	.LVL73:
 990 011e A200     		lsls	r2, r4, #2
 991 0120 8A18     		adds	r2, r1, r2
 992 0122 6446     		mov	r4, ip
 993 0124 5471     		strb	r4, [r2, #5]
 716:Generated_Source\PSoC4/USBFS_std.c ****                                 
 994              		.loc 1 716 0 is_stmt 1 discriminator 4
 995 0126 DF19     		adds	r7, r3, r7
 996 0128 BB00     		lsls	r3, r7, #2
 997 012a CB18     		adds	r3, r1, r3
 998 012c 0122     		movs	r2, #1
 999 012e 5A70     		strb	r2, [r3, #1]
 1000 0130 19E0     		b	.L66
 1001              	.LVL74:
 1002              	.L64:
 728:Generated_Source\PSoC4/USBFS_std.c ****                                 USBFS_EP[i].apiEpState = USBFS_NO_EVENT_PENDING;
 1003              		.loc 1 728 0
 1004 0132 012B     		cmp	r3, #1
 1005 0134 02D1     		bne	.L74
 1006 0136 0433     		adds	r3, r3, #4
 1007              	.LVL75:
 1008 0138 9C46     		mov	ip, r3
 1009 013a 01E0     		b	.L67
 1010              	.LVL76:
 1011              	.L74:
 1012 013c 0923     		movs	r3, #9
 1013              	.LVL77:
 1014 013e 9C46     		mov	ip, r3
 1015              	.L67:
 728:Generated_Source\PSoC4/USBFS_std.c ****                                 USBFS_EP[i].apiEpState = USBFS_NO_EVENT_PENDING;
 1016              		.loc 1 728 0 is_stmt 0 discriminator 4
 1017 0140 1949     		ldr	r1, .L75
 1018 0142 019F     		ldr	r7, [sp, #4]
 1019 0144 7B00     		lsls	r3, r7, #1
 1020 0146 DC19     		adds	r4, r3, r7
 1021              	.LVL78:
 1022 0148 A200     		lsls	r2, r4, #2
 1023 014a 8A18     		adds	r2, r1, r2
 1024 014c 6446     		mov	r4, ip
 1025 014e 5471     		strb	r4, [r2, #5]
 729:Generated_Source\PSoC4/USBFS_std.c ****                                 
 1026              		.loc 1 729 0 is_stmt 1 discriminator 4
 1027 0150 DF19     		adds	r7, r3, r7
 1028 0152 BB00     		lsls	r3, r7, #2
 1029 0154 CB18     		adds	r3, r1, r3
ARM GAS  C:\Users\TERENC~1\AppData\Local\Temp\ccVnttLg.s 			page 39


 1030 0156 0022     		movs	r2, #0
 1031 0158 5A70     		strb	r2, [r3, #1]
 1032 015a 04E0     		b	.L66
 1033              	.LVL79:
 1034              	.L62:
 752:Generated_Source\PSoC4/USBFS_std.c ****                 }
 1035              		.loc 1 752 0 discriminator 2
 1036 015c 0834     		adds	r4, r4, #8
 1037              	.LVL80:
 694:Generated_Source\PSoC4/USBFS_std.c ****                 {
 1038              		.loc 1 694 0 discriminator 2
 1039 015e 0133     		adds	r3, r3, #1
 1040              	.LVL81:
 1041 0160 DBB2     		uxtb	r3, r3
 1042              	.LVL82:
 1043              	.L61:
 694:Generated_Source\PSoC4/USBFS_std.c ****                 {
 1044              		.loc 1 694 0 is_stmt 0 discriminator 1
 1045 0162 B342     		cmp	r3, r6
 1046 0164 97D3     		bcc	.L68
 1047              	.LVL83:
 1048              	.L66:
 687:Generated_Source\PSoC4/USBFS_std.c ****             {
 1049              		.loc 1 687 0 is_stmt 1 discriminator 2
 1050 0166 0135     		adds	r5, r5, #1
 1051              	.LVL84:
 1052 0168 EDB2     		uxtb	r5, r5
 1053              	.LVL85:
 1054              	.L60:
 687:Generated_Source\PSoC4/USBFS_std.c ****             {
 1055              		.loc 1 687 0 is_stmt 0 discriminator 1
 1056 016a 082D     		cmp	r5, #8
 1057 016c 90D9     		bls	.L69
 762:Generated_Source\PSoC4/USBFS_std.c ****         for (i = 0u; i < ep; i++)
 1058              		.loc 1 762 0 is_stmt 1
 1059 016e C068     		ldr	r0, [r0, #12]
 1060              	.LVL86:
 763:Generated_Source\PSoC4/USBFS_std.c ****         {
 1061              		.loc 1 763 0
 1062 0170 0022     		movs	r2, #0
 1063 0172 0CE0     		b	.L70
 1064              	.LVL87:
 1065              	.L71:
 766:Generated_Source\PSoC4/USBFS_std.c ****             pEP = &pEP[1u];
 1066              		.loc 1 766 0 discriminator 3
 1067 0174 8378     		ldrb	r3, [r0, #2]
 1068 0176 7F21     		movs	r1, #127
 1069 0178 0B40     		ands	r3, r1
 1070 017a 0478     		ldrb	r4, [r0]
 1071 017c 5900     		lsls	r1, r3, #1
 1072 017e CB18     		adds	r3, r1, r3
 1073 0180 9900     		lsls	r1, r3, #2
 1074 0182 094B     		ldr	r3, .L75
 1075 0184 5918     		adds	r1, r3, r1
 1076 0186 8C72     		strb	r4, [r1, #10]
 767:Generated_Source\PSoC4/USBFS_std.c ****         }
 1077              		.loc 1 767 0 discriminator 3
ARM GAS  C:\Users\TERENC~1\AppData\Local\Temp\ccVnttLg.s 			page 40


 1078 0188 0830     		adds	r0, r0, #8
 1079              	.LVL88:
 763:Generated_Source\PSoC4/USBFS_std.c ****         {
 1080              		.loc 1 763 0 discriminator 3
 1081 018a 0132     		adds	r2, r2, #1
 1082              	.LVL89:
 1083 018c D2B2     		uxtb	r2, r2
 1084              	.LVL90:
 1085              	.L70:
 763:Generated_Source\PSoC4/USBFS_std.c ****         {
 1086              		.loc 1 763 0 is_stmt 0 discriminator 1
 1087 018e B242     		cmp	r2, r6
 1088 0190 F0D3     		bcc	.L71
 771:Generated_Source\PSoC4/USBFS_std.c ****         
 1089              		.loc 1 771 0 is_stmt 1
 1090 0192 FFF7FEFF 		bl	USBFS_GetInterfaceClassTablePtr
 1091              	.LVL91:
 1092 0196 094B     		ldr	r3, .L75+20
 1093 0198 1860     		str	r0, [r3]
 789:Generated_Source\PSoC4/USBFS_std.c ****     }
 1094              		.loc 1 789 0
 1095 019a FFF7FEFF 		bl	USBFS_ConfigReg
 1096              	.LVL92:
 1097              	.L51:
 791:Generated_Source\PSoC4/USBFS_std.c **** 
 1098              		.loc 1 791 0
 1099 019e 03B0     		add	sp, sp, #12
 1100              		@ sp needed
 1101 01a0 0CBC     		pop	{r2, r3}
 1102 01a2 9046     		mov	r8, r2
 1103 01a4 9946     		mov	r9, r3
 1104 01a6 F0BD     		pop	{r4, r5, r6, r7, pc}
 1105              	.L76:
 1106              		.align	2
 1107              	.L75:
 1108 01a8 00000000 		.word	USBFS_EP
 1109 01ac 00000000 		.word	USBFS_interfaceSetting
 1110 01b0 00000000 		.word	USBFS_interfaceSettingLast
 1111 01b4 00000000 		.word	USBFS_configuration
 1112 01b8 00000000 		.word	USBFS_deviceStatus
 1113 01bc 00000000 		.word	USBFS_interfaceClass
 1114              		.cfi_endproc
 1115              	.LFE165:
 1116              		.size	USBFS_Config, .-USBFS_Config
 1117              		.section	.text.USBFS_TerminateEP,"ax",%progbits
 1118              		.align	2
 1119              		.global	USBFS_TerminateEP
 1120              		.code	16
 1121              		.thumb_func
 1122              		.type	USBFS_TerminateEP, %function
 1123              	USBFS_TerminateEP:
 1124              	.LFB170:
1053:Generated_Source\PSoC4/USBFS_std.c **** 
1054:Generated_Source\PSoC4/USBFS_std.c **** 
1055:Generated_Source\PSoC4/USBFS_std.c **** /*******************************************************************************
1056:Generated_Source\PSoC4/USBFS_std.c **** * Function Name: USBFS_TerminateEP
1057:Generated_Source\PSoC4/USBFS_std.c **** ****************************************************************************//**
ARM GAS  C:\Users\TERENC~1\AppData\Local\Temp\ccVnttLg.s 			page 41


1058:Generated_Source\PSoC4/USBFS_std.c **** *
1059:Generated_Source\PSoC4/USBFS_std.c **** *  This function terminates the specified USBFS endpoint.
1060:Generated_Source\PSoC4/USBFS_std.c **** *  This function should be used before endpoint reconfiguration.
1061:Generated_Source\PSoC4/USBFS_std.c **** *
1062:Generated_Source\PSoC4/USBFS_std.c **** *  \param ep Contains the data endpoint number.
1063:Generated_Source\PSoC4/USBFS_std.c **** *
1064:Generated_Source\PSoC4/USBFS_std.c **** *  \reentrant
1065:Generated_Source\PSoC4/USBFS_std.c **** *  No.
1066:Generated_Source\PSoC4/USBFS_std.c **** *
1067:Generated_Source\PSoC4/USBFS_std.c **** * \sideeffect
1068:Generated_Source\PSoC4/USBFS_std.c **** * 
1069:Generated_Source\PSoC4/USBFS_std.c **** * The device responds with a NAK for any transactions on the selected endpoint.
1070:Generated_Source\PSoC4/USBFS_std.c **** *   
1071:Generated_Source\PSoC4/USBFS_std.c **** *******************************************************************************/
1072:Generated_Source\PSoC4/USBFS_std.c **** void USBFS_TerminateEP(uint8 epNumber) 
1073:Generated_Source\PSoC4/USBFS_std.c **** {
 1125              		.loc 1 1073 0
 1126              		.cfi_startproc
 1127              		@ args = 0, pretend = 0, frame = 0
 1128              		@ frame_needed = 0, uses_anonymous_args = 0
 1129              		@ link register save eliminated.
 1130              	.LVL93:
1074:Generated_Source\PSoC4/USBFS_std.c ****     /* Get endpoint number */
1075:Generated_Source\PSoC4/USBFS_std.c ****     epNumber &= USBFS_DIR_UNUSED;
 1131              		.loc 1 1075 0
 1132 0000 7F23     		movs	r3, #127
 1133 0002 1840     		ands	r0, r3
 1134              	.LVL94:
1076:Generated_Source\PSoC4/USBFS_std.c **** 
1077:Generated_Source\PSoC4/USBFS_std.c ****     if ((epNumber > USBFS_EP0) && (epNumber < USBFS_MAX_EP))
 1135              		.loc 1 1077 0
 1136 0004 431E     		subs	r3, r0, #1
 1137 0006 DBB2     		uxtb	r3, r3
 1138 0008 072B     		cmp	r3, #7
 1139 000a 1ED8     		bhi	.L77
1078:Generated_Source\PSoC4/USBFS_std.c ****     {
1079:Generated_Source\PSoC4/USBFS_std.c ****         /* Set the endpoint Halt */
1080:Generated_Source\PSoC4/USBFS_std.c ****         USBFS_EP[epNumber].hwEpState |= USBFS_ENDPOINT_STATUS_HALT;
 1140              		.loc 1 1080 0
 1141 000c 4200     		lsls	r2, r0, #1
 1142 000e 1218     		adds	r2, r2, r0
 1143 0010 9300     		lsls	r3, r2, #2
 1144 0012 0E4A     		ldr	r2, .L80
 1145 0014 D318     		adds	r3, r2, r3
 1146 0016 9978     		ldrb	r1, [r3, #2]
 1147 0018 0122     		movs	r2, #1
 1148 001a 0A43     		orrs	r2, r1
 1149 001c D2B2     		uxtb	r2, r2
 1150 001e 9A70     		strb	r2, [r3, #2]
1081:Generated_Source\PSoC4/USBFS_std.c **** 
1082:Generated_Source\PSoC4/USBFS_std.c ****         /* Clear the data toggle */
1083:Generated_Source\PSoC4/USBFS_std.c ****         USBFS_EP[epNumber].epToggle = 0u;
 1151              		.loc 1 1083 0
 1152 0020 0022     		movs	r2, #0
 1153 0022 DA70     		strb	r2, [r3, #3]
1084:Generated_Source\PSoC4/USBFS_std.c ****         USBFS_EP[epNumber].apiEpState = USBFS_NO_EVENT_ALLOWED;
 1154              		.loc 1 1084 0
ARM GAS  C:\Users\TERENC~1\AppData\Local\Temp\ccVnttLg.s 			page 42


 1155 0024 0232     		adds	r2, r2, #2
 1156 0026 5A70     		strb	r2, [r3, #1]
1085:Generated_Source\PSoC4/USBFS_std.c **** 
1086:Generated_Source\PSoC4/USBFS_std.c ****         if ((USBFS_EP[epNumber].addr & USBFS_DIR_IN) != 0u)
 1157              		.loc 1 1086 0
 1158 0028 1B79     		ldrb	r3, [r3, #4]
 1159 002a 5BB2     		sxtb	r3, r3
 1160 002c 002B     		cmp	r3, #0
 1161 002e 06DA     		bge	.L79
1087:Generated_Source\PSoC4/USBFS_std.c ****         {   
1088:Generated_Source\PSoC4/USBFS_std.c ****             /* IN Endpoint */
1089:Generated_Source\PSoC4/USBFS_std.c ****             USBFS_SIE_EP_BASE.sieEp[epNumber].epCr0 = USBFS_MODE_NAK_IN;
 1162              		.loc 1 1089 0
 1163 0030 8001     		lsls	r0, r0, #6
 1164              	.LVL95:
 1165 0032 074B     		ldr	r3, .L80+4
 1166 0034 9C46     		mov	ip, r3
 1167 0036 6044     		add	r0, r0, ip
 1168 0038 0C23     		movs	r3, #12
 1169 003a 8360     		str	r3, [r0, #8]
 1170 003c 05E0     		b	.L77
 1171              	.LVL96:
 1172              	.L79:
1090:Generated_Source\PSoC4/USBFS_std.c ****         }
1091:Generated_Source\PSoC4/USBFS_std.c ****         else
1092:Generated_Source\PSoC4/USBFS_std.c ****         {
1093:Generated_Source\PSoC4/USBFS_std.c ****             /* OUT Endpoint */
1094:Generated_Source\PSoC4/USBFS_std.c ****             USBFS_SIE_EP_BASE.sieEp[epNumber].epCr0 = USBFS_MODE_NAK_OUT;
 1173              		.loc 1 1094 0
 1174 003e 8001     		lsls	r0, r0, #6
 1175              	.LVL97:
 1176 0040 034B     		ldr	r3, .L80+4
 1177 0042 9C46     		mov	ip, r3
 1178 0044 6044     		add	r0, r0, ip
 1179 0046 0823     		movs	r3, #8
 1180 0048 8360     		str	r3, [r0, #8]
 1181              	.L77:
1095:Generated_Source\PSoC4/USBFS_std.c ****         }
1096:Generated_Source\PSoC4/USBFS_std.c ****     }
1097:Generated_Source\PSoC4/USBFS_std.c **** }
 1182              		.loc 1 1097 0
 1183              		@ sp needed
 1184 004a 7047     		bx	lr
 1185              	.L81:
 1186              		.align	2
 1187              	.L80:
 1188 004c 00000000 		.word	USBFS_EP
 1189 0050 F0FF2B40 		.word	1076625392
 1190              		.cfi_endproc
 1191              	.LFE170:
 1192              		.size	USBFS_TerminateEP, .-USBFS_TerminateEP
 1193              		.section	.text.USBFS_SetEndpointHalt,"ax",%progbits
 1194              		.align	2
 1195              		.global	USBFS_SetEndpointHalt
 1196              		.code	16
 1197              		.thumb_func
 1198              		.type	USBFS_SetEndpointHalt, %function
ARM GAS  C:\Users\TERENC~1\AppData\Local\Temp\ccVnttLg.s 			page 43


 1199              	USBFS_SetEndpointHalt:
 1200              	.LFB171:
1098:Generated_Source\PSoC4/USBFS_std.c **** 
1099:Generated_Source\PSoC4/USBFS_std.c **** 
1100:Generated_Source\PSoC4/USBFS_std.c **** /*******************************************************************************
1101:Generated_Source\PSoC4/USBFS_std.c **** * Function Name: USBFS_SetEndpointHalt
1102:Generated_Source\PSoC4/USBFS_std.c **** ****************************************************************************//**
1103:Generated_Source\PSoC4/USBFS_std.c **** *
1104:Generated_Source\PSoC4/USBFS_std.c **** *  This routine handles set endpoint halt.
1105:Generated_Source\PSoC4/USBFS_std.c **** *
1106:Generated_Source\PSoC4/USBFS_std.c **** * \return
1107:Generated_Source\PSoC4/USBFS_std.c **** *  requestHandled.
1108:Generated_Source\PSoC4/USBFS_std.c **** *
1109:Generated_Source\PSoC4/USBFS_std.c **** * \reentrant
1110:Generated_Source\PSoC4/USBFS_std.c **** *  No.
1111:Generated_Source\PSoC4/USBFS_std.c **** *
1112:Generated_Source\PSoC4/USBFS_std.c **** *******************************************************************************/
1113:Generated_Source\PSoC4/USBFS_std.c **** uint8 USBFS_SetEndpointHalt(void) 
1114:Generated_Source\PSoC4/USBFS_std.c **** {
 1201              		.loc 1 1114 0
 1202              		.cfi_startproc
 1203              		@ args = 0, pretend = 0, frame = 0
 1204              		@ frame_needed = 0, uses_anonymous_args = 0
 1205 0000 10B5     		push	{r4, lr}
 1206              		.cfi_def_cfa_offset 8
 1207              		.cfi_offset 4, -8
 1208              		.cfi_offset 14, -4
 1209              	.LVL98:
1115:Generated_Source\PSoC4/USBFS_std.c ****     uint8 requestHandled = USBFS_FALSE;
1116:Generated_Source\PSoC4/USBFS_std.c ****     uint32 ep;
1117:Generated_Source\PSoC4/USBFS_std.c ****     
1118:Generated_Source\PSoC4/USBFS_std.c ****     /* Set endpoint halt */
1119:Generated_Source\PSoC4/USBFS_std.c ****     ep = USBFS_wIndexLoReg & USBFS_DIR_UNUSED;
 1210              		.loc 1 1119 0
 1211 0002 174B     		ldr	r3, .L87
 1212 0004 1B69     		ldr	r3, [r3, #16]
 1213 0006 7F22     		movs	r2, #127
 1214 0008 1340     		ands	r3, r2
 1215              	.LVL99:
1120:Generated_Source\PSoC4/USBFS_std.c **** 
1121:Generated_Source\PSoC4/USBFS_std.c ****     if ((ep > USBFS_EP0) && (ep < USBFS_MAX_EP))
 1216              		.loc 1 1121 0
 1217 000a 5A1E     		subs	r2, r3, #1
 1218 000c 072A     		cmp	r2, #7
 1219 000e 24D8     		bhi	.L86
1122:Generated_Source\PSoC4/USBFS_std.c ****     {
1123:Generated_Source\PSoC4/USBFS_std.c ****         /* Set the endpoint Halt */
1124:Generated_Source\PSoC4/USBFS_std.c ****         USBFS_EP[ep].hwEpState |= (USBFS_ENDPOINT_STATUS_HALT);
 1220              		.loc 1 1124 0
 1221 0010 5900     		lsls	r1, r3, #1
 1222 0012 C918     		adds	r1, r1, r3
 1223 0014 8A00     		lsls	r2, r1, #2
 1224 0016 1349     		ldr	r1, .L87+4
 1225 0018 8A18     		adds	r2, r1, r2
 1226 001a 9078     		ldrb	r0, [r2, #2]
 1227 001c 0121     		movs	r1, #1
 1228 001e 0143     		orrs	r1, r0
ARM GAS  C:\Users\TERENC~1\AppData\Local\Temp\ccVnttLg.s 			page 44


 1229 0020 C9B2     		uxtb	r1, r1
 1230 0022 9170     		strb	r1, [r2, #2]
1125:Generated_Source\PSoC4/USBFS_std.c **** 
1126:Generated_Source\PSoC4/USBFS_std.c ****         /* Clear the data toggle */
1127:Generated_Source\PSoC4/USBFS_std.c ****         USBFS_EP[ep].epToggle = 0u;
 1231              		.loc 1 1127 0
 1232 0024 0021     		movs	r1, #0
 1233 0026 D170     		strb	r1, [r2, #3]
1128:Generated_Source\PSoC4/USBFS_std.c ****         USBFS_EP[ep].apiEpState |= USBFS_NO_EVENT_ALLOWED;
 1234              		.loc 1 1128 0
 1235 0028 5078     		ldrb	r0, [r2, #1]
 1236 002a 0221     		movs	r1, #2
 1237 002c 0143     		orrs	r1, r0
 1238 002e C9B2     		uxtb	r1, r1
 1239 0030 5170     		strb	r1, [r2, #1]
1129:Generated_Source\PSoC4/USBFS_std.c **** 
1130:Generated_Source\PSoC4/USBFS_std.c ****         if ((USBFS_EP[ep].addr & USBFS_DIR_IN) != 0u)
 1240              		.loc 1 1130 0
 1241 0032 1279     		ldrb	r2, [r2, #4]
 1242 0034 52B2     		sxtb	r2, r2
 1243 0036 002A     		cmp	r2, #0
 1244 0038 06DA     		bge	.L84
1131:Generated_Source\PSoC4/USBFS_std.c ****         {
1132:Generated_Source\PSoC4/USBFS_std.c ****             /* IN Endpoint */
1133:Generated_Source\PSoC4/USBFS_std.c ****             USBFS_SIE_EP_BASE.sieEp[ep].epCr0 = (USBFS_MODE_STALL_DATA_EP | 
 1245              		.loc 1 1133 0
 1246 003a 9B01     		lsls	r3, r3, #6
 1247              	.LVL100:
 1248 003c 0A4A     		ldr	r2, .L87+8
 1249 003e 9446     		mov	ip, r2
 1250 0040 6344     		add	r3, r3, ip
 1251 0042 8D22     		movs	r2, #141
 1252 0044 9A60     		str	r2, [r3, #8]
 1253 0046 05E0     		b	.L85
 1254              	.LVL101:
 1255              	.L84:
1134:Generated_Source\PSoC4/USBFS_std.c ****                                                             USBFS_MODE_ACK_IN);
1135:Generated_Source\PSoC4/USBFS_std.c ****         }
1136:Generated_Source\PSoC4/USBFS_std.c ****         else
1137:Generated_Source\PSoC4/USBFS_std.c ****         {
1138:Generated_Source\PSoC4/USBFS_std.c ****             /* OUT Endpoint */
1139:Generated_Source\PSoC4/USBFS_std.c ****             USBFS_SIE_EP_BASE.sieEp[ep].epCr0 = (USBFS_MODE_STALL_DATA_EP | 
 1256              		.loc 1 1139 0
 1257 0048 9B01     		lsls	r3, r3, #6
 1258              	.LVL102:
 1259 004a 074A     		ldr	r2, .L87+8
 1260 004c 9446     		mov	ip, r2
 1261 004e 6344     		add	r3, r3, ip
 1262 0050 8922     		movs	r2, #137
 1263 0052 9A60     		str	r2, [r3, #8]
 1264              	.L85:
1140:Generated_Source\PSoC4/USBFS_std.c ****                                                             USBFS_MODE_ACK_OUT);
1141:Generated_Source\PSoC4/USBFS_std.c ****         }
1142:Generated_Source\PSoC4/USBFS_std.c ****         requestHandled = USBFS_InitNoDataControlTransfer();
 1265              		.loc 1 1142 0
 1266 0054 FFF7FEFF 		bl	USBFS_InitNoDataControlTransfer
 1267              	.LVL103:
ARM GAS  C:\Users\TERENC~1\AppData\Local\Temp\ccVnttLg.s 			page 45


 1268 0058 00E0     		b	.L83
 1269              	.LVL104:
 1270              	.L86:
1115:Generated_Source\PSoC4/USBFS_std.c ****     uint32 ep;
 1271              		.loc 1 1115 0
 1272 005a 0020     		movs	r0, #0
 1273              	.LVL105:
 1274              	.L83:
1143:Generated_Source\PSoC4/USBFS_std.c ****     }
1144:Generated_Source\PSoC4/USBFS_std.c **** 
1145:Generated_Source\PSoC4/USBFS_std.c ****     return (requestHandled);
1146:Generated_Source\PSoC4/USBFS_std.c **** }
 1275              		.loc 1 1146 0
 1276              		@ sp needed
 1277 005c 10BD     		pop	{r4, pc}
 1278              	.L88:
 1279 005e C046     		.align	2
 1280              	.L87:
 1281 0060 00002C40 		.word	1076625408
 1282 0064 00000000 		.word	USBFS_EP
 1283 0068 F0FF2B40 		.word	1076625392
 1284              		.cfi_endproc
 1285              	.LFE171:
 1286              		.size	USBFS_SetEndpointHalt, .-USBFS_SetEndpointHalt
 1287              		.section	.text.USBFS_ClearEndpointHalt,"ax",%progbits
 1288              		.align	2
 1289              		.global	USBFS_ClearEndpointHalt
 1290              		.code	16
 1291              		.thumb_func
 1292              		.type	USBFS_ClearEndpointHalt, %function
 1293              	USBFS_ClearEndpointHalt:
 1294              	.LFB172:
1147:Generated_Source\PSoC4/USBFS_std.c **** 
1148:Generated_Source\PSoC4/USBFS_std.c **** 
1149:Generated_Source\PSoC4/USBFS_std.c **** /*******************************************************************************
1150:Generated_Source\PSoC4/USBFS_std.c **** * Function Name: USBFS_ClearEndpointHalt
1151:Generated_Source\PSoC4/USBFS_std.c **** ****************************************************************************//**
1152:Generated_Source\PSoC4/USBFS_std.c **** *
1153:Generated_Source\PSoC4/USBFS_std.c **** *  This routine handles clear endpoint halt.
1154:Generated_Source\PSoC4/USBFS_std.c **** *
1155:Generated_Source\PSoC4/USBFS_std.c **** * \return
1156:Generated_Source\PSoC4/USBFS_std.c **** *  requestHandled.
1157:Generated_Source\PSoC4/USBFS_std.c **** *
1158:Generated_Source\PSoC4/USBFS_std.c **** * \reentrant
1159:Generated_Source\PSoC4/USBFS_std.c **** *  No.
1160:Generated_Source\PSoC4/USBFS_std.c **** *
1161:Generated_Source\PSoC4/USBFS_std.c **** *******************************************************************************/
1162:Generated_Source\PSoC4/USBFS_std.c **** uint8 USBFS_ClearEndpointHalt(void) 
1163:Generated_Source\PSoC4/USBFS_std.c **** {
 1295              		.loc 1 1163 0
 1296              		.cfi_startproc
 1297              		@ args = 0, pretend = 0, frame = 0
 1298              		@ frame_needed = 0, uses_anonymous_args = 0
 1299 0000 70B5     		push	{r4, r5, r6, lr}
 1300              		.cfi_def_cfa_offset 16
 1301              		.cfi_offset 4, -16
 1302              		.cfi_offset 5, -12
ARM GAS  C:\Users\TERENC~1\AppData\Local\Temp\ccVnttLg.s 			page 46


 1303              		.cfi_offset 6, -8
 1304              		.cfi_offset 14, -4
 1305              	.LVL106:
1164:Generated_Source\PSoC4/USBFS_std.c ****     uint8 requestHandled = USBFS_FALSE;
1165:Generated_Source\PSoC4/USBFS_std.c ****     uint32 ep;
1166:Generated_Source\PSoC4/USBFS_std.c **** 
1167:Generated_Source\PSoC4/USBFS_std.c ****     /* Clear endpoint halt */
1168:Generated_Source\PSoC4/USBFS_std.c ****     ep = USBFS_wIndexLoReg & USBFS_DIR_UNUSED;
 1306              		.loc 1 1168 0
 1307 0002 284B     		ldr	r3, .L96
 1308 0004 1B69     		ldr	r3, [r3, #16]
 1309 0006 7F22     		movs	r2, #127
 1310 0008 1340     		ands	r3, r2
 1311              	.LVL107:
1169:Generated_Source\PSoC4/USBFS_std.c **** 
1170:Generated_Source\PSoC4/USBFS_std.c ****     if ((ep > USBFS_EP0) && (ep < USBFS_MAX_EP))
 1312              		.loc 1 1170 0
 1313 000a 5A1E     		subs	r2, r3, #1
 1314 000c 072A     		cmp	r2, #7
 1315 000e 46D8     		bhi	.L95
1171:Generated_Source\PSoC4/USBFS_std.c ****     {
1172:Generated_Source\PSoC4/USBFS_std.c ****         /* Clear the endpoint Halt */
1173:Generated_Source\PSoC4/USBFS_std.c ****         USBFS_EP[ep].hwEpState &= (uint8) ~USBFS_ENDPOINT_STATUS_HALT;
 1316              		.loc 1 1173 0
 1317 0010 5900     		lsls	r1, r3, #1
 1318 0012 C918     		adds	r1, r1, r3
 1319 0014 8A00     		lsls	r2, r1, #2
 1320 0016 2449     		ldr	r1, .L96+4
 1321 0018 8A18     		adds	r2, r1, r2
 1322 001a 9178     		ldrb	r1, [r2, #2]
 1323 001c 0120     		movs	r0, #1
 1324 001e 8143     		bics	r1, r0
 1325 0020 9170     		strb	r1, [r2, #2]
1174:Generated_Source\PSoC4/USBFS_std.c **** 
1175:Generated_Source\PSoC4/USBFS_std.c ****         /* Clear the data toggle */
1176:Generated_Source\PSoC4/USBFS_std.c ****         USBFS_EP[ep].epToggle = 0u;
 1326              		.loc 1 1176 0
 1327 0022 0021     		movs	r1, #0
 1328 0024 D170     		strb	r1, [r2, #3]
1177:Generated_Source\PSoC4/USBFS_std.c ****         
1178:Generated_Source\PSoC4/USBFS_std.c ****         /* Clear toggle bit for already armed packet */
1179:Generated_Source\PSoC4/USBFS_std.c ****         USBFS_SIE_EP_BASE.sieEp[ep].epCnt0 &= (uint32) ~(uint32)USBFS_EPX_CNT_DATA_TOGGLE;
 1329              		.loc 1 1179 0
 1330 0026 2148     		ldr	r0, .L96+8
 1331 0028 9C01     		lsls	r4, r3, #6
 1332 002a 2158     		ldr	r1, [r4, r0]
 1333 002c 8025     		movs	r5, #128
 1334 002e A943     		bics	r1, r5
 1335 0030 2150     		str	r1, [r4, r0]
1180:Generated_Source\PSoC4/USBFS_std.c ****         
1181:Generated_Source\PSoC4/USBFS_std.c ****         /* Return API State as it was defined before */
1182:Generated_Source\PSoC4/USBFS_std.c ****         USBFS_EP[ep].apiEpState &= (uint8) ~USBFS_NO_EVENT_ALLOWED;
 1336              		.loc 1 1182 0
 1337 0032 5178     		ldrb	r1, [r2, #1]
 1338 0034 0220     		movs	r0, #2
 1339 0036 8143     		bics	r1, r0
 1340 0038 5170     		strb	r1, [r2, #1]
ARM GAS  C:\Users\TERENC~1\AppData\Local\Temp\ccVnttLg.s 			page 47


1183:Generated_Source\PSoC4/USBFS_std.c **** 
1184:Generated_Source\PSoC4/USBFS_std.c ****         if ((USBFS_EP[ep].addr & USBFS_DIR_IN) != 0u)
 1341              		.loc 1 1184 0
 1342 003a 1279     		ldrb	r2, [r2, #4]
 1343 003c 52B2     		sxtb	r2, r2
 1344 003e 002A     		cmp	r2, #0
 1345 0040 15DA     		bge	.L91
1185:Generated_Source\PSoC4/USBFS_std.c ****         {
1186:Generated_Source\PSoC4/USBFS_std.c ****             /* IN Endpoint */
1187:Generated_Source\PSoC4/USBFS_std.c ****             if(USBFS_EP[ep].apiEpState == USBFS_IN_BUFFER_EMPTY)
 1346              		.loc 1 1187 0
 1347 0042 5900     		lsls	r1, r3, #1
 1348 0044 C918     		adds	r1, r1, r3
 1349 0046 8A00     		lsls	r2, r1, #2
 1350 0048 1749     		ldr	r1, .L96+4
 1351 004a 8A18     		adds	r2, r1, r2
 1352 004c 5278     		ldrb	r2, [r2, #1]
 1353 004e 012A     		cmp	r2, #1
 1354 0050 06D1     		bne	.L92
1188:Generated_Source\PSoC4/USBFS_std.c ****             {       
1189:Generated_Source\PSoC4/USBFS_std.c ****                 /* Wait for next packet from application */
1190:Generated_Source\PSoC4/USBFS_std.c ****                 USBFS_SIE_EP_BASE.sieEp[ep].epCr0 = USBFS_MODE_NAK_IN;
 1355              		.loc 1 1190 0
 1356 0052 2300     		movs	r3, r4
 1357              	.LVL108:
 1358 0054 154A     		ldr	r2, .L96+8
 1359 0056 9446     		mov	ip, r2
 1360 0058 6344     		add	r3, r3, ip
 1361 005a 0C22     		movs	r2, #12
 1362 005c 9A60     		str	r2, [r3, #8]
 1363 005e 1BE0     		b	.L93
 1364              	.LVL109:
 1365              	.L92:
1191:Generated_Source\PSoC4/USBFS_std.c ****             }
1192:Generated_Source\PSoC4/USBFS_std.c ****             else    /* Continue armed transfer */
1193:Generated_Source\PSoC4/USBFS_std.c ****             {
1194:Generated_Source\PSoC4/USBFS_std.c ****                 USBFS_SIE_EP_BASE.sieEp[ep].epCr0 = USBFS_MODE_ACK_IN;
 1366              		.loc 1 1194 0
 1367 0060 9B01     		lsls	r3, r3, #6
 1368              	.LVL110:
 1369 0062 124A     		ldr	r2, .L96+8
 1370 0064 9446     		mov	ip, r2
 1371 0066 6344     		add	r3, r3, ip
 1372 0068 0D22     		movs	r2, #13
 1373 006a 9A60     		str	r2, [r3, #8]
 1374 006c 14E0     		b	.L93
 1375              	.LVL111:
 1376              	.L91:
1195:Generated_Source\PSoC4/USBFS_std.c ****             }
1196:Generated_Source\PSoC4/USBFS_std.c ****         }
1197:Generated_Source\PSoC4/USBFS_std.c ****         else
1198:Generated_Source\PSoC4/USBFS_std.c ****         {
1199:Generated_Source\PSoC4/USBFS_std.c ****             /* OUT Endpoint */
1200:Generated_Source\PSoC4/USBFS_std.c ****             if (USBFS_EP[ep].apiEpState == USBFS_OUT_BUFFER_FULL)
 1377              		.loc 1 1200 0
 1378 006e 5900     		lsls	r1, r3, #1
 1379 0070 C918     		adds	r1, r1, r3
ARM GAS  C:\Users\TERENC~1\AppData\Local\Temp\ccVnttLg.s 			page 48


 1380 0072 8A00     		lsls	r2, r1, #2
 1381 0074 0C49     		ldr	r1, .L96+4
 1382 0076 8A18     		adds	r2, r1, r2
 1383 0078 5278     		ldrb	r2, [r2, #1]
 1384 007a 012A     		cmp	r2, #1
 1385 007c 06D1     		bne	.L94
1201:Generated_Source\PSoC4/USBFS_std.c ****             {       
1202:Generated_Source\PSoC4/USBFS_std.c ****                 /* Allow application to read full buffer */
1203:Generated_Source\PSoC4/USBFS_std.c ****                 USBFS_SIE_EP_BASE.sieEp[ep].epCr0 = USBFS_MODE_NAK_OUT;
 1386              		.loc 1 1203 0
 1387 007e 9B01     		lsls	r3, r3, #6
 1388              	.LVL112:
 1389 0080 0A4A     		ldr	r2, .L96+8
 1390 0082 9446     		mov	ip, r2
 1391 0084 6344     		add	r3, r3, ip
 1392 0086 0822     		movs	r2, #8
 1393 0088 9A60     		str	r2, [r3, #8]
 1394 008a 05E0     		b	.L93
 1395              	.LVL113:
 1396              	.L94:
1204:Generated_Source\PSoC4/USBFS_std.c ****             }
1205:Generated_Source\PSoC4/USBFS_std.c ****             else    /* Mark endpoint as empty, so it will be reloaded */
1206:Generated_Source\PSoC4/USBFS_std.c ****             {
1207:Generated_Source\PSoC4/USBFS_std.c ****                 USBFS_SIE_EP_BASE.sieEp[ep].epCr0 = USBFS_MODE_ACK_OUT;
 1397              		.loc 1 1207 0
 1398 008c 9B01     		lsls	r3, r3, #6
 1399              	.LVL114:
 1400 008e 074A     		ldr	r2, .L96+8
 1401 0090 9446     		mov	ip, r2
 1402 0092 6344     		add	r3, r3, ip
 1403 0094 0922     		movs	r2, #9
 1404 0096 9A60     		str	r2, [r3, #8]
 1405              	.L93:
1208:Generated_Source\PSoC4/USBFS_std.c ****             }
1209:Generated_Source\PSoC4/USBFS_std.c ****         }
1210:Generated_Source\PSoC4/USBFS_std.c ****         
1211:Generated_Source\PSoC4/USBFS_std.c ****         requestHandled = USBFS_InitNoDataControlTransfer();
 1406              		.loc 1 1211 0
 1407 0098 FFF7FEFF 		bl	USBFS_InitNoDataControlTransfer
 1408              	.LVL115:
 1409 009c 00E0     		b	.L90
 1410              	.LVL116:
 1411              	.L95:
1164:Generated_Source\PSoC4/USBFS_std.c ****     uint32 ep;
 1412              		.loc 1 1164 0
 1413 009e 0020     		movs	r0, #0
 1414              	.LVL117:
 1415              	.L90:
1212:Generated_Source\PSoC4/USBFS_std.c ****     }
1213:Generated_Source\PSoC4/USBFS_std.c **** 
1214:Generated_Source\PSoC4/USBFS_std.c ****     return(requestHandled);
1215:Generated_Source\PSoC4/USBFS_std.c **** }
 1416              		.loc 1 1215 0
 1417              		@ sp needed
 1418 00a0 70BD     		pop	{r4, r5, r6, pc}
 1419              	.L97:
 1420 00a2 C046     		.align	2
ARM GAS  C:\Users\TERENC~1\AppData\Local\Temp\ccVnttLg.s 			page 49


 1421              	.L96:
 1422 00a4 00002C40 		.word	1076625408
 1423 00a8 00000000 		.word	USBFS_EP
 1424 00ac F0FF2B40 		.word	1076625392
 1425              		.cfi_endproc
 1426              	.LFE172:
 1427              		.size	USBFS_ClearEndpointHalt, .-USBFS_ClearEndpointHalt
 1428              		.section	.text.USBFS_ValidateAlternateSetting,"ax",%progbits
 1429              		.align	2
 1430              		.global	USBFS_ValidateAlternateSetting
 1431              		.code	16
 1432              		.thumb_func
 1433              		.type	USBFS_ValidateAlternateSetting, %function
 1434              	USBFS_ValidateAlternateSetting:
 1435              	.LFB173:
1216:Generated_Source\PSoC4/USBFS_std.c **** 
1217:Generated_Source\PSoC4/USBFS_std.c **** 
1218:Generated_Source\PSoC4/USBFS_std.c **** /*******************************************************************************
1219:Generated_Source\PSoC4/USBFS_std.c **** * Function Name: USBFS_ValidateAlternateSetting
1220:Generated_Source\PSoC4/USBFS_std.c **** ****************************************************************************//**
1221:Generated_Source\PSoC4/USBFS_std.c **** *
1222:Generated_Source\PSoC4/USBFS_std.c **** *  Validates (and records) a SET INTERFACE request.
1223:Generated_Source\PSoC4/USBFS_std.c **** *
1224:Generated_Source\PSoC4/USBFS_std.c **** * \return
1225:Generated_Source\PSoC4/USBFS_std.c **** *  requestHandled.
1226:Generated_Source\PSoC4/USBFS_std.c **** *
1227:Generated_Source\PSoC4/USBFS_std.c **** * \reentrant
1228:Generated_Source\PSoC4/USBFS_std.c **** *  No.
1229:Generated_Source\PSoC4/USBFS_std.c **** *
1230:Generated_Source\PSoC4/USBFS_std.c **** *******************************************************************************/
1231:Generated_Source\PSoC4/USBFS_std.c **** uint8 USBFS_ValidateAlternateSetting(void) 
1232:Generated_Source\PSoC4/USBFS_std.c **** {
 1436              		.loc 1 1232 0
 1437              		.cfi_startproc
 1438              		@ args = 0, pretend = 0, frame = 0
 1439              		@ frame_needed = 0, uses_anonymous_args = 0
 1440 0000 70B5     		push	{r4, r5, r6, lr}
 1441              		.cfi_def_cfa_offset 16
 1442              		.cfi_offset 4, -16
 1443              		.cfi_offset 5, -12
 1444              		.cfi_offset 6, -8
 1445              		.cfi_offset 14, -4
 1446              	.LVL118:
1233:Generated_Source\PSoC4/USBFS_std.c ****     uint8 requestHandled = USBFS_FALSE;
1234:Generated_Source\PSoC4/USBFS_std.c ****     
1235:Generated_Source\PSoC4/USBFS_std.c ****     uint8 interfaceNum;
1236:Generated_Source\PSoC4/USBFS_std.c ****     uint8 curInterfacesNum;
1237:Generated_Source\PSoC4/USBFS_std.c ****     const T_USBFS_LUT CYCODE *pTmp;
1238:Generated_Source\PSoC4/USBFS_std.c ****     
1239:Generated_Source\PSoC4/USBFS_std.c ****     /* Get interface number from the request. */
1240:Generated_Source\PSoC4/USBFS_std.c ****     interfaceNum = (uint8) USBFS_wIndexLoReg;
 1447              		.loc 1 1240 0
 1448 0002 0F4B     		ldr	r3, .L102
 1449 0004 1C69     		ldr	r4, [r3, #16]
 1450 0006 E5B2     		uxtb	r5, r4
 1451              	.LVL119:
1241:Generated_Source\PSoC4/USBFS_std.c ****     
ARM GAS  C:\Users\TERENC~1\AppData\Local\Temp\ccVnttLg.s 			page 50


1242:Generated_Source\PSoC4/USBFS_std.c ****     /* Get number of interfaces for current configuration. */
1243:Generated_Source\PSoC4/USBFS_std.c ****     pTmp = USBFS_GetConfigTablePtr(USBFS_configuration - 1u);
 1452              		.loc 1 1243 0
 1453 0008 0E4B     		ldr	r3, .L102+4
 1454 000a 1878     		ldrb	r0, [r3]
 1455 000c 0138     		subs	r0, r0, #1
 1456 000e C0B2     		uxtb	r0, r0
 1457 0010 FFF7FEFF 		bl	USBFS_GetConfigTablePtr
 1458              	.LVL120:
1244:Generated_Source\PSoC4/USBFS_std.c ****     curInterfacesNum  = ((const uint8 *) pTmp->p_list)[USBFS_CONFIG_DESCR_NUM_INTERFACES];
 1459              		.loc 1 1244 0
 1460 0014 4368     		ldr	r3, [r0, #4]
 1461 0016 1B79     		ldrb	r3, [r3, #4]
 1462              	.LVL121:
1245:Generated_Source\PSoC4/USBFS_std.c **** 
1246:Generated_Source\PSoC4/USBFS_std.c ****     /* Validate that interface number is within range. */
1247:Generated_Source\PSoC4/USBFS_std.c ****     if ((interfaceNum <= curInterfacesNum) || (interfaceNum <= USBFS_MAX_INTERFACES_NUMBER))
 1463              		.loc 1 1247 0
 1464 0018 9D42     		cmp	r5, r3
 1465 001a 01D9     		bls	.L99
 1466              		.loc 1 1247 0 is_stmt 0 discriminator 1
 1467 001c 042D     		cmp	r5, #4
 1468 001e 0CD8     		bhi	.L101
 1469              	.L99:
1248:Generated_Source\PSoC4/USBFS_std.c ****     {
1249:Generated_Source\PSoC4/USBFS_std.c ****         /* Save current and new alternate settings (come with request) to make 
1250:Generated_Source\PSoC4/USBFS_std.c ****         * desicion about following endpoint re-configuration.
1251:Generated_Source\PSoC4/USBFS_std.c ****         */
1252:Generated_Source\PSoC4/USBFS_std.c ****         USBFS_interfaceSettingLast[interfaceNum] = USBFS_interfaceSetting[interfaceNum];
 1470              		.loc 1 1252 0 is_stmt 1
 1471 0020 FF23     		movs	r3, #255
 1472              	.LVL122:
 1473 0022 2340     		ands	r3, r4
 1474 0024 0849     		ldr	r1, .L102+8
 1475 0026 CA5C     		ldrb	r2, [r1, r3]
 1476 0028 D2B2     		uxtb	r2, r2
 1477 002a 0848     		ldr	r0, .L102+12
 1478              	.LVL123:
 1479 002c C254     		strb	r2, [r0, r3]
1253:Generated_Source\PSoC4/USBFS_std.c ****         USBFS_interfaceSetting[interfaceNum]     = (uint8) USBFS_wValueLoReg;
 1480              		.loc 1 1253 0
 1481 002e 044A     		ldr	r2, .L102
 1482 0030 9268     		ldr	r2, [r2, #8]
 1483 0032 D2B2     		uxtb	r2, r2
 1484 0034 CA54     		strb	r2, [r1, r3]
 1485              	.LVL124:
1254:Generated_Source\PSoC4/USBFS_std.c ****         
1255:Generated_Source\PSoC4/USBFS_std.c ****         requestHandled = USBFS_TRUE;
 1486              		.loc 1 1255 0
 1487 0036 0120     		movs	r0, #1
 1488 0038 00E0     		b	.L100
 1489              	.LVL125:
 1490              	.L101:
1233:Generated_Source\PSoC4/USBFS_std.c ****     
 1491              		.loc 1 1233 0
 1492 003a 0020     		movs	r0, #0
 1493              	.LVL126:
ARM GAS  C:\Users\TERENC~1\AppData\Local\Temp\ccVnttLg.s 			page 51


 1494              	.L100:
1256:Generated_Source\PSoC4/USBFS_std.c ****     }
1257:Generated_Source\PSoC4/USBFS_std.c **** 
1258:Generated_Source\PSoC4/USBFS_std.c ****     return (requestHandled);
1259:Generated_Source\PSoC4/USBFS_std.c **** }
 1495              		.loc 1 1259 0
 1496              		@ sp needed
 1497              	.LVL127:
 1498 003c 70BD     		pop	{r4, r5, r6, pc}
 1499              	.L103:
 1500 003e C046     		.align	2
 1501              	.L102:
 1502 0040 00002C40 		.word	1076625408
 1503 0044 00000000 		.word	USBFS_configuration
 1504 0048 00000000 		.word	USBFS_interfaceSetting
 1505 004c 00000000 		.word	USBFS_interfaceSettingLast
 1506              		.cfi_endproc
 1507              	.LFE173:
 1508              		.size	USBFS_ValidateAlternateSetting, .-USBFS_ValidateAlternateSetting
 1509              		.section	.text.USBFS_HandleStandardRqst,"ax",%progbits
 1510              		.align	2
 1511              		.global	USBFS_HandleStandardRqst
 1512              		.code	16
 1513              		.thumb_func
 1514              		.type	USBFS_HandleStandardRqst, %function
 1515              	USBFS_HandleStandardRqst:
 1516              	.LFB161:
  85:Generated_Source\PSoC4/USBFS_std.c ****     uint8 requestHandled = USBFS_FALSE;
 1517              		.loc 1 85 0
 1518              		.cfi_startproc
 1519              		@ args = 0, pretend = 0, frame = 0
 1520              		@ frame_needed = 0, uses_anonymous_args = 0
 1521 0000 10B5     		push	{r4, lr}
 1522              		.cfi_def_cfa_offset 8
 1523              		.cfi_offset 4, -8
 1524              		.cfi_offset 14, -4
 1525              	.LVL128:
  89:Generated_Source\PSoC4/USBFS_std.c **** 
 1526              		.loc 1 89 0
 1527 0002 B34B     		ldr	r3, .L158
 1528 0004 1B68     		ldr	r3, [r3]
 1529              	.LVL129:
 102:Generated_Source\PSoC4/USBFS_std.c **** 
 1530              		.loc 1 102 0
 1531 0006 0021     		movs	r1, #0
 1532 0008 B24A     		ldr	r2, .L158+4
 1533 000a 1180     		strh	r1, [r2]
 104:Generated_Source\PSoC4/USBFS_std.c ****     {
 1534              		.loc 1 104 0
 1535 000c 1A06     		lsls	r2, r3, #24
 1536 000e 00D4     		bmi	.LCB1553
 1537 0010 A1E0     		b	.L105	@long jump
 1538              	.LCB1553:
 107:Generated_Source\PSoC4/USBFS_std.c ****         {
 1539              		.loc 1 107 0
 1540 0012 AF4A     		ldr	r2, .L158
 1541 0014 5268     		ldr	r2, [r2, #4]
ARM GAS  C:\Users\TERENC~1\AppData\Local\Temp\ccVnttLg.s 			page 52


 1542 0016 062A     		cmp	r2, #6
 1543 0018 0AD0     		beq	.L107
 1544 001a 02D8     		bhi	.L108
 1545 001c 002A     		cmp	r2, #0
 1546 001e 5ED0     		beq	.L109
 1547 0020 37E1     		b	.L138
 1548              	.L108:
 1549 0022 082A     		cmp	r2, #8
 1550 0024 00D1     		bne	.LCB1567
 1551 0026 83E0     		b	.L110	@long jump
 1552              	.LCB1567:
 1553 0028 0A2A     		cmp	r2, #10
 1554 002a 00D1     		bne	.LCB1569
 1555 002c 88E0     		b	.L111	@long jump
 1556              	.LCB1569:
 1557 002e 30E1     		b	.L138
 1558              	.L107:
 110:Generated_Source\PSoC4/USBFS_std.c ****                 {
 1559              		.loc 1 110 0
 1560 0030 A74B     		ldr	r3, .L158
 1561              	.LVL130:
 1562 0032 DB68     		ldr	r3, [r3, #12]
 1563 0034 012B     		cmp	r3, #1
 1564 0036 09D1     		bne	.L112
 112:Generated_Source\PSoC4/USBFS_std.c ****                     USBFS_currentTD.pData = (volatile uint8 *)pTmp->p_list;
 1565              		.loc 1 112 0
 1566 0038 FFF7FEFF 		bl	USBFS_GetDeviceTablePtr
 1567              	.LVL131:
 113:Generated_Source\PSoC4/USBFS_std.c ****                     USBFS_currentTD.count = USBFS_DEVICE_DESCR_LENGTH;
 1568              		.loc 1 113 0
 1569 003c 4268     		ldr	r2, [r0, #4]
 1570 003e A54B     		ldr	r3, .L158+4
 1571 0040 5A60     		str	r2, [r3, #4]
 114:Generated_Source\PSoC4/USBFS_std.c ****                     
 1572              		.loc 1 114 0
 1573 0042 1222     		movs	r2, #18
 1574 0044 1A80     		strh	r2, [r3]
 116:Generated_Source\PSoC4/USBFS_std.c ****                 }
 1575              		.loc 1 116 0
 1576 0046 FFF7FEFF 		bl	USBFS_InitControlRead
 1577              	.LVL132:
 1578 004a 3FE1     		b	.L106
 1579              	.LVL133:
 1580              	.L112:
 118:Generated_Source\PSoC4/USBFS_std.c ****                 {
 1581              		.loc 1 118 0
 1582 004c A04B     		ldr	r3, .L158
 1583 004e DB68     		ldr	r3, [r3, #12]
 1584 0050 022B     		cmp	r3, #2
 1585 0052 14D1     		bne	.L113
 120:Generated_Source\PSoC4/USBFS_std.c ****                     
 1586              		.loc 1 120 0
 1587 0054 9E4B     		ldr	r3, .L158
 1588 0056 9868     		ldr	r0, [r3, #8]
 1589 0058 C0B2     		uxtb	r0, r0
 1590 005a FFF7FEFF 		bl	USBFS_GetConfigTablePtr
 1591              	.LVL134:
ARM GAS  C:\Users\TERENC~1\AppData\Local\Temp\ccVnttLg.s 			page 53


 123:Generated_Source\PSoC4/USBFS_std.c ****                     {
 1592              		.loc 1 123 0
 1593 005e 0028     		cmp	r0, #0
 1594 0060 00D1     		bne	.LCB1608
 1595 0062 18E1     		b	.L139	@long jump
 1596              	.LCB1608:
 125:Generated_Source\PSoC4/USBFS_std.c ****                         USBFS_currentTD.count = (uint16)((uint16)(USBFS_currentTD.pData)[USBFS_CONF
 1597              		.loc 1 125 0
 1598 0064 4368     		ldr	r3, [r0, #4]
 1599 0066 9B4A     		ldr	r2, .L158+4
 1600 0068 5360     		str	r3, [r2, #4]
 126:Generated_Source\PSoC4/USBFS_std.c ****                                                                             (USBFS_currentTD.pData)
 1601              		.loc 1 126 0
 1602 006a 5368     		ldr	r3, [r2, #4]
 1603 006c DB78     		ldrb	r3, [r3, #3]
 1604 006e 1B02     		lsls	r3, r3, #8
 127:Generated_Source\PSoC4/USBFS_std.c ****                         requestHandled  = USBFS_InitControlRead();
 1605              		.loc 1 127 0
 1606 0070 5168     		ldr	r1, [r2, #4]
 1607 0072 8978     		ldrb	r1, [r1, #2]
 126:Generated_Source\PSoC4/USBFS_std.c ****                                                                             (USBFS_currentTD.pData)
 1608              		.loc 1 126 0
 1609 0074 0B43     		orrs	r3, r1
 1610 0076 1380     		strh	r3, [r2]
 128:Generated_Source\PSoC4/USBFS_std.c ****                     }
 1611              		.loc 1 128 0
 1612 0078 FFF7FEFF 		bl	USBFS_InitControlRead
 1613              	.LVL135:
 1614 007c 26E1     		b	.L106
 1615              	.LVL136:
 1616              	.L113:
 149:Generated_Source\PSoC4/USBFS_std.c ****                 {
 1617              		.loc 1 149 0
 1618 007e 944B     		ldr	r3, .L158
 1619 0080 DB68     		ldr	r3, [r3, #12]
 1620 0082 032B     		cmp	r3, #3
 1621 0084 05D0     		beq	.L140
 1622 0086 27E0     		b	.L154
 1623              	.LVL137:
 1624              	.L117:
 159:Generated_Source\PSoC4/USBFS_std.c ****                         /* Move to next string descriptor */
 1625              		.loc 1 159 0
 1626 0088 1178     		ldrb	r1, [r2]
 1627              	.LVL138:
 161:Generated_Source\PSoC4/USBFS_std.c ****                         nStr++;
 1628              		.loc 1 161 0
 1629 008a 5218     		adds	r2, r2, r1
 1630              	.LVL139:
 162:Generated_Source\PSoC4/USBFS_std.c ****                     }
 1631              		.loc 1 162 0
 1632 008c 0133     		adds	r3, r3, #1
 1633              	.LVL140:
 1634 008e DBB2     		uxtb	r3, r3
 1635              	.LVL141:
 1636 0090 01E0     		b	.L114
 1637              	.LVL142:
 1638              	.L140:
ARM GAS  C:\Users\TERENC~1\AppData\Local\Temp\ccVnttLg.s 			page 54


 1639 0092 0023     		movs	r3, #0
 1640 0094 904A     		ldr	r2, .L158+8
 1641              	.LVL143:
 1642              	.L114:
 156:Generated_Source\PSoC4/USBFS_std.c ****                     {
 1643              		.loc 1 156 0
 1644 0096 8E49     		ldr	r1, .L158
 1645 0098 8968     		ldr	r1, [r1, #8]
 1646 009a 9942     		cmp	r1, r3
 1647 009c 02D9     		bls	.L116
 156:Generated_Source\PSoC4/USBFS_std.c ****                     {
 1648              		.loc 1 156 0 is_stmt 0 discriminator 1
 1649 009e 1178     		ldrb	r1, [r2]
 1650 00a0 0029     		cmp	r1, #0
 1651 00a2 F1D1     		bne	.L117
 1652              	.L116:
 176:Generated_Source\PSoC4/USBFS_std.c ****                         (USBFS_wValueLoReg == USBFS_DEVICE0_DESCR[USBFS_DEVICE_DESCR_SN_SHIFT]))
 1653              		.loc 1 176 0 is_stmt 1
 1654 00a4 8A4B     		ldr	r3, .L158
 1655              	.LVL144:
 1656 00a6 9B68     		ldr	r3, [r3, #8]
 1657 00a8 002B     		cmp	r3, #0
 1658 00aa 0AD0     		beq	.L118
 177:Generated_Source\PSoC4/USBFS_std.c ****                     {
 1659              		.loc 1 177 0 discriminator 1
 1660 00ac 884B     		ldr	r3, .L158
 1661 00ae 9968     		ldr	r1, [r3, #8]
 1662 00b0 8A4B     		ldr	r3, .L158+12
 1663 00b2 1B7C     		ldrb	r3, [r3, #16]
 176:Generated_Source\PSoC4/USBFS_std.c ****                         (USBFS_wValueLoReg == USBFS_DEVICE0_DESCR[USBFS_DEVICE_DESCR_SN_SHIFT]))
 1664              		.loc 1 176 0 discriminator 1
 1665 00b4 9942     		cmp	r1, r3
 1666 00b6 04D1     		bne	.L118
 181:Generated_Source\PSoC4/USBFS_std.c ****                         pStr = USBFS_idSerialNumberStringDescriptor;
 1667              		.loc 1 181 0
 1668 00b8 894C     		ldr	r4, .L158+16
 1669 00ba 2000     		movs	r0, r4
 1670 00bc FFF7FEFF 		bl	USBFS_ReadDieID
 1671              	.LVL145:
 182:Generated_Source\PSoC4/USBFS_std.c ****                     #elif defined(USBFS_ENABLE_FWSN_STRING)
 1672              		.loc 1 182 0
 1673 00c0 2200     		movs	r2, r4
 1674              	.LVL146:
 1675              	.L118:
 199:Generated_Source\PSoC4/USBFS_std.c ****                     {
 1676              		.loc 1 199 0
 1677 00c2 1378     		ldrb	r3, [r2]
 1678 00c4 002B     		cmp	r3, #0
 1679 00c6 00D1     		bne	.LCB1701
 1680 00c8 E7E0     		b	.L141	@long jump
 1681              	.LCB1701:
 201:Generated_Source\PSoC4/USBFS_std.c ****                         USBFS_currentTD.pData = pStr;
 1682              		.loc 1 201 0
 1683 00ca 1378     		ldrb	r3, [r2]
 1684 00cc 8149     		ldr	r1, .L158+4
 1685 00ce 0B80     		strh	r3, [r1]
 202:Generated_Source\PSoC4/USBFS_std.c ****                         requestHandled  = USBFS_InitControlRead();
ARM GAS  C:\Users\TERENC~1\AppData\Local\Temp\ccVnttLg.s 			page 55


 1686              		.loc 1 202 0
 1687 00d0 4A60     		str	r2, [r1, #4]
 203:Generated_Source\PSoC4/USBFS_std.c ****                     }
 1688              		.loc 1 203 0
 1689 00d2 FFF7FEFF 		bl	USBFS_InitControlRead
 1690              	.LVL147:
 1691 00d6 F9E0     		b	.L106
 1692              	.LVL148:
 1693              	.L154:
 209:Generated_Source\PSoC4/USBFS_std.c ****                 }
 1694              		.loc 1 209 0
 1695 00d8 FFF7FEFF 		bl	USBFS_DispatchClassRqst
 1696              	.LVL149:
 1697 00dc F6E0     		b	.L106
 1698              	.LVL150:
 1699              	.L109:
 214:Generated_Source\PSoC4/USBFS_std.c ****                 {
 1700              		.loc 1 214 0
 1701 00de 0322     		movs	r2, #3
 1702 00e0 1340     		ands	r3, r2
 1703              	.LVL151:
 1704 00e2 17D0     		beq	.L119
 1705 00e4 022B     		cmp	r3, #2
 1706 00e6 00D0     		beq	.LCB1733
 1707 00e8 D9E0     		b	.L155	@long jump
 1708              	.LCB1733:
 217:Generated_Source\PSoC4/USBFS_std.c ****                         USBFS_tBuffer[0u]     = USBFS_EP[USBFS_wIndexLoReg & USBFS_DIR_UNUSED].hwEp
 1709              		.loc 1 217 0
 1710 00ea 7A49     		ldr	r1, .L158+4
 1711 00ec 0B80     		strh	r3, [r1]
 218:Generated_Source\PSoC4/USBFS_std.c ****                         USBFS_tBuffer[1u]     = 0u;
 1712              		.loc 1 218 0
 1713 00ee 784B     		ldr	r3, .L158
 1714 00f0 1B69     		ldr	r3, [r3, #16]
 1715 00f2 7C32     		adds	r2, r2, #124
 1716 00f4 1340     		ands	r3, r2
 1717 00f6 5A00     		lsls	r2, r3, #1
 1718 00f8 D318     		adds	r3, r2, r3
 1719 00fa 9A00     		lsls	r2, r3, #2
 1720 00fc 794B     		ldr	r3, .L158+20
 1721 00fe 9A18     		adds	r2, r3, r2
 1722 0100 9278     		ldrb	r2, [r2, #2]
 1723 0102 D2B2     		uxtb	r2, r2
 1724 0104 784B     		ldr	r3, .L158+24
 1725 0106 1A70     		strb	r2, [r3]
 219:Generated_Source\PSoC4/USBFS_std.c ****                         USBFS_currentTD.pData = &USBFS_tBuffer[0u];
 1726              		.loc 1 219 0
 1727 0108 0022     		movs	r2, #0
 1728 010a 5A70     		strb	r2, [r3, #1]
 220:Generated_Source\PSoC4/USBFS_std.c ****                         
 1729              		.loc 1 220 0
 1730 010c 4B60     		str	r3, [r1, #4]
 222:Generated_Source\PSoC4/USBFS_std.c ****                         break;
 1731              		.loc 1 222 0
 1732 010e FFF7FEFF 		bl	USBFS_InitControlRead
 1733              	.LVL152:
 223:Generated_Source\PSoC4/USBFS_std.c ****                     case USBFS_RQST_RCPT_DEV:
ARM GAS  C:\Users\TERENC~1\AppData\Local\Temp\ccVnttLg.s 			page 56


 1734              		.loc 1 223 0
 1735 0112 DBE0     		b	.L106
 1736              	.LVL153:
 1737              	.L119:
 225:Generated_Source\PSoC4/USBFS_std.c ****                         USBFS_tBuffer[0u]     = USBFS_deviceStatus;
 1738              		.loc 1 225 0
 1739 0114 6F49     		ldr	r1, .L158+4
 1740 0116 0223     		movs	r3, #2
 1741 0118 0B80     		strh	r3, [r1]
 226:Generated_Source\PSoC4/USBFS_std.c ****                         USBFS_tBuffer[1u]     = 0u;
 1742              		.loc 1 226 0
 1743 011a 744B     		ldr	r3, .L158+28
 1744 011c 1A78     		ldrb	r2, [r3]
 1745 011e D2B2     		uxtb	r2, r2
 1746 0120 714B     		ldr	r3, .L158+24
 1747 0122 1A70     		strb	r2, [r3]
 227:Generated_Source\PSoC4/USBFS_std.c ****                         USBFS_currentTD.pData = &USBFS_tBuffer[0u];
 1748              		.loc 1 227 0
 1749 0124 0022     		movs	r2, #0
 1750 0126 5A70     		strb	r2, [r3, #1]
 228:Generated_Source\PSoC4/USBFS_std.c ****                         
 1751              		.loc 1 228 0
 1752 0128 4B60     		str	r3, [r1, #4]
 230:Generated_Source\PSoC4/USBFS_std.c ****                         break;
 1753              		.loc 1 230 0
 1754 012a FFF7FEFF 		bl	USBFS_InitControlRead
 1755              	.LVL154:
 231:Generated_Source\PSoC4/USBFS_std.c ****                     default:    /* requestHandled is initialized as FALSE by default */
 1756              		.loc 1 231 0
 1757 012e CDE0     		b	.L106
 1758              	.LVL155:
 1759              	.L110:
 238:Generated_Source\PSoC4/USBFS_std.c ****                 USBFS_currentTD.pData = (volatile uint8 *) &USBFS_configuration;
 1760              		.loc 1 238 0
 1761 0130 684B     		ldr	r3, .L158+4
 1762              	.LVL156:
 1763 0132 0122     		movs	r2, #1
 1764 0134 1A80     		strh	r2, [r3]
 239:Generated_Source\PSoC4/USBFS_std.c ****                 requestHandled  = USBFS_InitControlRead();
 1765              		.loc 1 239 0
 1766 0136 6E4A     		ldr	r2, .L158+32
 1767 0138 5A60     		str	r2, [r3, #4]
 240:Generated_Source\PSoC4/USBFS_std.c ****                 break;
 1768              		.loc 1 240 0
 1769 013a FFF7FEFF 		bl	USBFS_InitControlRead
 1770              	.LVL157:
 241:Generated_Source\PSoC4/USBFS_std.c ****                 
 1771              		.loc 1 241 0
 1772 013e C5E0     		b	.L106
 1773              	.LVL158:
 1774              	.L111:
 244:Generated_Source\PSoC4/USBFS_std.c ****                 USBFS_currentTD.pData = (volatile uint8 *) &USBFS_interfaceSetting[USBFS_wIndexLoRe
 1775              		.loc 1 244 0
 1776 0140 644A     		ldr	r2, .L158+4
 1777 0142 0123     		movs	r3, #1
 1778              	.LVL159:
 1779 0144 1380     		strh	r3, [r2]
ARM GAS  C:\Users\TERENC~1\AppData\Local\Temp\ccVnttLg.s 			page 57


 245:Generated_Source\PSoC4/USBFS_std.c ****                 requestHandled  = USBFS_InitControlRead();
 1780              		.loc 1 245 0
 1781 0146 624B     		ldr	r3, .L158
 1782 0148 1969     		ldr	r1, [r3, #16]
 1783 014a 6A4B     		ldr	r3, .L158+36
 1784 014c CB18     		adds	r3, r1, r3
 1785 014e 5360     		str	r3, [r2, #4]
 246:Generated_Source\PSoC4/USBFS_std.c ****                 break;
 1786              		.loc 1 246 0
 1787 0150 FFF7FEFF 		bl	USBFS_InitControlRead
 1788              	.LVL160:
 247:Generated_Source\PSoC4/USBFS_std.c ****                 
 1789              		.loc 1 247 0
 1790 0154 BAE0     		b	.L106
 1791              	.LVL161:
 1792              	.L105:
 256:Generated_Source\PSoC4/USBFS_std.c ****         {
 1793              		.loc 1 256 0
 1794 0156 5E4A     		ldr	r2, .L158
 1795 0158 5268     		ldr	r2, [r2, #4]
 1796 015a 0B2A     		cmp	r2, #11
 1797 015c 00D9     		bls	.LCB1816
 1798 015e A0E0     		b	.L143	@long jump
 1799              	.LCB1816:
 1800 0160 9200     		lsls	r2, r2, #2
 1801 0162 6549     		ldr	r1, .L158+40
 1802 0164 8A58     		ldr	r2, [r1, r2]
 1803 0166 9746     		mov	pc, r2
 1804              		.section	.rodata
 1805              		.align	2
 1806              	.L122:
 1807 0000 A2020000 		.word	.L143
 1808 0004 EC010000 		.word	.L121
 1809 0008 A2020000 		.word	.L143
 1810 000c 3E020000 		.word	.L123
 1811 0010 A2020000 		.word	.L143
 1812 0014 68010000 		.word	.L124
 1813 0018 A2020000 		.word	.L143
 1814 001c A2020000 		.word	.L143
 1815 0020 A2020000 		.word	.L143
 1816 0024 78010000 		.word	.L125
 1817 0028 A2020000 		.word	.L143
 1818 002c B8010000 		.word	.L126
 1819              		.section	.text.USBFS_HandleStandardRqst
 1820              	.L124:
 260:Generated_Source\PSoC4/USBFS_std.c ****                 requestHandled = USBFS_InitNoDataControlTransfer();
 1821              		.loc 1 260 0
 1822 0168 594B     		ldr	r3, .L158
 1823              	.LVL162:
 1824 016a 9B68     		ldr	r3, [r3, #8]
 1825 016c DBB2     		uxtb	r3, r3
 1826 016e 634A     		ldr	r2, .L158+44
 1827 0170 1370     		strb	r3, [r2]
 261:Generated_Source\PSoC4/USBFS_std.c ****                 break;
 1828              		.loc 1 261 0
 1829 0172 FFF7FEFF 		bl	USBFS_InitNoDataControlTransfer
 1830              	.LVL163:
ARM GAS  C:\Users\TERENC~1\AppData\Local\Temp\ccVnttLg.s 			page 58


 262:Generated_Source\PSoC4/USBFS_std.c ****                 
 1831              		.loc 1 262 0
 1832 0176 A9E0     		b	.L106
 1833              	.LVL164:
 1834              	.L125:
 265:Generated_Source\PSoC4/USBFS_std.c ****                 
 1835              		.loc 1 265 0
 1836 0178 554B     		ldr	r3, .L158
 1837              	.LVL165:
 1838 017a 9C68     		ldr	r4, [r3, #8]
 1839              	.LVL166:
 268:Generated_Source\PSoC4/USBFS_std.c ****                 {
 1840              		.loc 1 268 0
 1841 017c 002C     		cmp	r4, #0
 1842 017e 03D0     		beq	.L127
 270:Generated_Source\PSoC4/USBFS_std.c ****                 }
 1843              		.loc 1 270 0
 1844 0180 601E     		subs	r0, r4, #1
 1845 0182 C0B2     		uxtb	r0, r0
 1846 0184 FFF7FEFF 		bl	USBFS_GetConfigTablePtr
 1847              	.LVL167:
 1848              	.L127:
 274:Generated_Source\PSoC4/USBFS_std.c ****                 {
 1849              		.loc 1 274 0
 1850 0188 002C     		cmp	r4, #0
 1851 018a 01D0     		beq	.L128
 274:Generated_Source\PSoC4/USBFS_std.c ****                 {
 1852              		.loc 1 274 0 is_stmt 0 discriminator 1
 1853 018c 0028     		cmp	r0, #0
 1854 018e 02D1     		bne	.L129
 1855              	.L128:
 274:Generated_Source\PSoC4/USBFS_std.c ****                 {
 1856              		.loc 1 274 0 discriminator 3
 1857 0190 002C     		cmp	r4, #0
 1858 0192 00D0     		beq	.LCB1864
 1859 0194 87E0     		b	.L144	@long jump
 1860              	.LCB1864:
 1861              	.L129:
 277:Generated_Source\PSoC4/USBFS_std.c ****                     {
 1862              		.loc 1 277 0 is_stmt 1
 1863 0196 564B     		ldr	r3, .L158+32
 1864 0198 1B78     		ldrb	r3, [r3]
 1865 019a DBB2     		uxtb	r3, r3
 1866 019c 9C42     		cmp	r4, r3
 1867 019e 08D0     		beq	.L130
 279:Generated_Source\PSoC4/USBFS_std.c ****                         USBFS_configurationChanged = USBFS_TRUE;
 1868              		.loc 1 279 0
 1869 01a0 E4B2     		uxtb	r4, r4
 1870              	.LVL168:
 1871 01a2 534B     		ldr	r3, .L158+32
 1872 01a4 1C70     		strb	r4, [r3]
 280:Generated_Source\PSoC4/USBFS_std.c ****                         USBFS_Config(USBFS_TRUE);
 1873              		.loc 1 280 0
 1874 01a6 0122     		movs	r2, #1
 1875 01a8 554B     		ldr	r3, .L158+48
 1876 01aa 1A70     		strb	r2, [r3]
 281:Generated_Source\PSoC4/USBFS_std.c ****                     }
ARM GAS  C:\Users\TERENC~1\AppData\Local\Temp\ccVnttLg.s 			page 59


 1877              		.loc 1 281 0
 1878 01ac 0120     		movs	r0, #1
 1879              	.LVL169:
 1880 01ae FFF7FEFF 		bl	USBFS_Config
 1881              	.LVL170:
 1882              	.L130:
 283:Generated_Source\PSoC4/USBFS_std.c ****                 }
 1883              		.loc 1 283 0
 1884 01b2 FFF7FEFF 		bl	USBFS_InitNoDataControlTransfer
 1885              	.LVL171:
 1886 01b6 89E0     		b	.L106
 1887              	.LVL172:
 1888              	.L126:
 288:Generated_Source\PSoC4/USBFS_std.c ****                 {
 1889              		.loc 1 288 0
 1890 01b8 FFF7FEFF 		bl	USBFS_ValidateAlternateSetting
 1891              	.LVL173:
 1892 01bc 0028     		cmp	r0, #0
 1893 01be 74D0     		beq	.L145
 291:Generated_Source\PSoC4/USBFS_std.c ****                     USBFS_interfaceNumber = (uint8) USBFS_wIndexLoReg;
 1894              		.loc 1 291 0
 1895 01c0 434B     		ldr	r3, .L158
 1896 01c2 1969     		ldr	r1, [r3, #16]
 1897              	.LVL174:
 292:Generated_Source\PSoC4/USBFS_std.c ****                      
 1898              		.loc 1 292 0
 1899 01c4 1B69     		ldr	r3, [r3, #16]
 1900 01c6 DBB2     		uxtb	r3, r3
 1901 01c8 4E4A     		ldr	r2, .L158+52
 1902 01ca 1370     		strb	r3, [r2]
 295:Generated_Source\PSoC4/USBFS_std.c ****                     {
 1903              		.loc 1 295 0
 1904 01cc 4E4B     		ldr	r3, .L158+56
 1905 01ce 5A5C     		ldrb	r2, [r3, r1]
 1906 01d0 D2B2     		uxtb	r2, r2
 1907 01d2 484B     		ldr	r3, .L158+36
 1908 01d4 5B5C     		ldrb	r3, [r3, r1]
 1909 01d6 DBB2     		uxtb	r3, r3
 1910 01d8 9A42     		cmp	r2, r3
 1911 01da 04D0     		beq	.L131
 297:Generated_Source\PSoC4/USBFS_std.c ****                     
 1912              		.loc 1 297 0
 1913 01dc 0122     		movs	r2, #1
 1914 01de 484B     		ldr	r3, .L158+48
 1915 01e0 1A70     		strb	r2, [r3]
 303:Generated_Source\PSoC4/USBFS_std.c ****                     #endif /* (USBFS_EP_MANAGEMENT_MANUAL && USBFS_EP_ALLOC_DYNAMIC) */
 1916              		.loc 1 303 0
 1917 01e2 FFF7FEFF 		bl	USBFS_ConfigAltChanged
 1918              	.LVL175:
 1919              	.L131:
 307:Generated_Source\PSoC4/USBFS_std.c ****                 }
 1920              		.loc 1 307 0
 1921 01e6 FFF7FEFF 		bl	USBFS_InitNoDataControlTransfer
 1922              	.LVL176:
 1923 01ea 6FE0     		b	.L106
 1924              	.LVL177:
 1925              	.L121:
ARM GAS  C:\Users\TERENC~1\AppData\Local\Temp\ccVnttLg.s 			page 60


 312:Generated_Source\PSoC4/USBFS_std.c ****                 {
 1926              		.loc 1 312 0
 1927 01ec 0322     		movs	r2, #3
 1928 01ee 1340     		ands	r3, r2
 1929              	.LVL178:
 1930 01f0 012B     		cmp	r3, #1
 1931 01f2 16D0     		beq	.L132
 1932 01f4 002B     		cmp	r3, #0
 1933 01f6 08D0     		beq	.L133
 1934 01f8 022B     		cmp	r3, #2
 1935 01fa 58D1     		bne	.L156
 315:Generated_Source\PSoC4/USBFS_std.c ****                         {
 1936              		.loc 1 315 0
 1937 01fc 344B     		ldr	r3, .L158
 1938 01fe 9B68     		ldr	r3, [r3, #8]
 1939 0200 002B     		cmp	r3, #0
 1940 0202 56D1     		bne	.L147
 317:Generated_Source\PSoC4/USBFS_std.c ****                         }
 1941              		.loc 1 317 0
 1942 0204 FFF7FEFF 		bl	USBFS_ClearEndpointHalt
 1943              	.LVL179:
 1944 0208 60E0     		b	.L106
 1945              	.LVL180:
 1946              	.L133:
 322:Generated_Source\PSoC4/USBFS_std.c ****                         {
 1947              		.loc 1 322 0
 1948 020a 314B     		ldr	r3, .L158
 1949 020c 9B68     		ldr	r3, [r3, #8]
 1950 020e 012B     		cmp	r3, #1
 1951 0210 51D1     		bne	.L148
 324:Generated_Source\PSoC4/USBFS_std.c ****                             requestHandled = USBFS_InitNoDataControlTransfer();
 1952              		.loc 1 324 0
 1953 0212 364A     		ldr	r2, .L158+28
 1954 0214 1378     		ldrb	r3, [r2]
 1955 0216 0221     		movs	r1, #2
 1956 0218 8B43     		bics	r3, r1
 1957 021a 1370     		strb	r3, [r2]
 325:Generated_Source\PSoC4/USBFS_std.c ****                         }
 1958              		.loc 1 325 0
 1959 021c FFF7FEFF 		bl	USBFS_InitNoDataControlTransfer
 1960              	.LVL181:
 1961 0220 54E0     		b	.L106
 1962              	.LVL182:
 1963              	.L132:
 330:Generated_Source\PSoC4/USBFS_std.c ****                         {
 1964              		.loc 1 330 0
 1965 0222 2B4B     		ldr	r3, .L158
 1966 0224 1B69     		ldr	r3, [r3, #16]
 1967 0226 032B     		cmp	r3, #3
 1968 0228 47D8     		bhi	.L149
 332:Generated_Source\PSoC4/USBFS_std.c ****                             requestHandled = USBFS_InitNoDataControlTransfer();
 1969              		.loc 1 332 0
 1970 022a 294B     		ldr	r3, .L158
 1971 022c 9868     		ldr	r0, [r3, #8]
 1972 022e 1A69     		ldr	r2, [r3, #16]
 1973 0230 3649     		ldr	r1, .L158+60
 1974 0232 8B5C     		ldrb	r3, [r1, r2]
ARM GAS  C:\Users\TERENC~1\AppData\Local\Temp\ccVnttLg.s 			page 61


 1975 0234 8343     		bics	r3, r0
 1976 0236 8B54     		strb	r3, [r1, r2]
 333:Generated_Source\PSoC4/USBFS_std.c ****                         }
 1977              		.loc 1 333 0
 1978 0238 FFF7FEFF 		bl	USBFS_InitNoDataControlTransfer
 1979              	.LVL183:
 1980 023c 46E0     		b	.L106
 1981              	.LVL184:
 1982              	.L123:
 342:Generated_Source\PSoC4/USBFS_std.c ****                 {
 1983              		.loc 1 342 0
 1984 023e 0322     		movs	r2, #3
 1985 0240 1340     		ands	r3, r2
 1986              	.LVL185:
 1987 0242 012B     		cmp	r3, #1
 1988 0244 17D0     		beq	.L135
 1989 0246 002B     		cmp	r3, #0
 1990 0248 08D0     		beq	.L136
 1991 024a 022B     		cmp	r3, #2
 1992 024c 37D1     		bne	.L157
 345:Generated_Source\PSoC4/USBFS_std.c ****                         {
 1993              		.loc 1 345 0
 1994 024e 204B     		ldr	r3, .L158
 1995 0250 9B68     		ldr	r3, [r3, #8]
 1996 0252 002B     		cmp	r3, #0
 1997 0254 35D1     		bne	.L151
 347:Generated_Source\PSoC4/USBFS_std.c ****                         }
 1998              		.loc 1 347 0
 1999 0256 FFF7FEFF 		bl	USBFS_SetEndpointHalt
 2000              	.LVL186:
 2001 025a 37E0     		b	.L106
 2002              	.LVL187:
 2003              	.L136:
 353:Generated_Source\PSoC4/USBFS_std.c ****                         {
 2004              		.loc 1 353 0
 2005 025c 1C4B     		ldr	r3, .L158
 2006 025e 9B68     		ldr	r3, [r3, #8]
 2007 0260 012B     		cmp	r3, #1
 2008 0262 30D1     		bne	.L152
 355:Generated_Source\PSoC4/USBFS_std.c ****                             requestHandled = USBFS_InitNoDataControlTransfer();
 2009              		.loc 1 355 0
 2010 0264 214A     		ldr	r2, .L158+28
 2011 0266 1178     		ldrb	r1, [r2]
 2012 0268 0223     		movs	r3, #2
 2013 026a 0B43     		orrs	r3, r1
 2014 026c DBB2     		uxtb	r3, r3
 2015 026e 1370     		strb	r3, [r2]
 356:Generated_Source\PSoC4/USBFS_std.c ****                         }
 2016              		.loc 1 356 0
 2017 0270 FFF7FEFF 		bl	USBFS_InitNoDataControlTransfer
 2018              	.LVL188:
 2019 0274 2AE0     		b	.L106
 2020              	.LVL189:
 2021              	.L135:
 362:Generated_Source\PSoC4/USBFS_std.c ****                         {
 2022              		.loc 1 362 0
 2023 0276 164B     		ldr	r3, .L158
ARM GAS  C:\Users\TERENC~1\AppData\Local\Temp\ccVnttLg.s 			page 62


 2024 0278 1B69     		ldr	r3, [r3, #16]
 2025 027a 032B     		cmp	r3, #3
 2026 027c 25D8     		bhi	.L153
 364:Generated_Source\PSoC4/USBFS_std.c ****                             requestHandled = USBFS_InitNoDataControlTransfer();
 2027              		.loc 1 364 0
 2028 027e 144B     		ldr	r3, .L158
 2029 0280 9868     		ldr	r0, [r3, #8]
 2030 0282 1A69     		ldr	r2, [r3, #16]
 2031 0284 2149     		ldr	r1, .L158+60
 2032 0286 8B5C     		ldrb	r3, [r1, r2]
 2033 0288 8343     		bics	r3, r0
 2034 028a 8B54     		strb	r3, [r1, r2]
 365:Generated_Source\PSoC4/USBFS_std.c ****                         }
 2035              		.loc 1 365 0
 2036 028c FFF7FEFF 		bl	USBFS_InitNoDataControlTransfer
 2037              	.LVL190:
 2038 0290 1CE0     		b	.L106
 2039              	.LVL191:
 2040              	.L138:
  86:Generated_Source\PSoC4/USBFS_std.c ****     uint32 interfaceNumber;
 2041              		.loc 1 86 0
 2042 0292 0020     		movs	r0, #0
 2043 0294 1AE0     		b	.L106
 2044              	.LVL192:
 2045              	.L139:
 2046 0296 0020     		movs	r0, #0
 2047              	.LVL193:
 2048 0298 18E0     		b	.L106
 2049              	.LVL194:
 2050              	.L141:
 2051 029a 0020     		movs	r0, #0
 2052 029c 16E0     		b	.L106
 2053              	.LVL195:
 2054              	.L155:
 2055 029e 0020     		movs	r0, #0
 2056 02a0 14E0     		b	.L106
 2057              	.LVL196:
 2058              	.L143:
 2059 02a2 0020     		movs	r0, #0
 2060 02a4 12E0     		b	.L106
 2061              	.LVL197:
 2062              	.L144:
 2063 02a6 0020     		movs	r0, #0
 2064              	.LVL198:
 2065 02a8 10E0     		b	.L106
 2066              	.LVL199:
 2067              	.L145:
 2068 02aa 0020     		movs	r0, #0
 2069 02ac 0EE0     		b	.L106
 2070              	.L156:
 2071 02ae 0020     		movs	r0, #0
 2072 02b0 0CE0     		b	.L106
 2073              	.L147:
 2074 02b2 0020     		movs	r0, #0
 2075 02b4 0AE0     		b	.L106
 2076              	.L148:
 2077 02b6 0020     		movs	r0, #0
ARM GAS  C:\Users\TERENC~1\AppData\Local\Temp\ccVnttLg.s 			page 63


 2078 02b8 08E0     		b	.L106
 2079              	.L149:
 2080 02ba 0020     		movs	r0, #0
 2081 02bc 06E0     		b	.L106
 2082              	.L157:
 2083 02be 0020     		movs	r0, #0
 2084 02c0 04E0     		b	.L106
 2085              	.L151:
 2086 02c2 0020     		movs	r0, #0
 2087 02c4 02E0     		b	.L106
 2088              	.L152:
 2089 02c6 0020     		movs	r0, #0
 2090 02c8 00E0     		b	.L106
 2091              	.L153:
 2092 02ca 0020     		movs	r0, #0
 2093              	.LVL200:
 2094              	.L106:
 380:Generated_Source\PSoC4/USBFS_std.c **** 
 2095              		.loc 1 380 0
 2096              		@ sp needed
 2097 02cc 10BD     		pop	{r4, pc}
 2098              	.L159:
 2099 02ce C046     		.align	2
 2100              	.L158:
 2101 02d0 00002C40 		.word	1076625408
 2102 02d4 00000000 		.word	USBFS_currentTD
 2103 02d8 00000000 		.word	USBFS_STRING_DESCRIPTORS
 2104 02dc 00000000 		.word	USBFS_DEVICE0_DESCR
 2105 02e0 00000000 		.word	USBFS_idSerialNumberStringDescriptor
 2106 02e4 00000000 		.word	USBFS_EP
 2107 02e8 00000000 		.word	.LANCHOR0
 2108 02ec 00000000 		.word	USBFS_deviceStatus
 2109 02f0 00000000 		.word	USBFS_configuration
 2110 02f4 00000000 		.word	USBFS_interfaceSetting
 2111 02f8 00000000 		.word	.L122
 2112 02fc 00000000 		.word	USBFS_deviceAddress
 2113 0300 00000000 		.word	USBFS_configurationChanged
 2114 0304 00000000 		.word	USBFS_interfaceNumber
 2115 0308 00000000 		.word	USBFS_interfaceSettingLast
 2116 030c 00000000 		.word	USBFS_interfaceStatus
 2117              		.cfi_endproc
 2118              	.LFE161:
 2119              		.size	USBFS_HandleStandardRqst, .-USBFS_HandleStandardRqst
 2120              		.section	.rodata.str1.4,"aMS",%progbits,1
 2121              		.align	2
 2122              	.LC0:
 2123 0000 30313233 		.ascii	"0123456789ABCDEF\000"
 2123      34353637 
 2123      38394142 
 2123      43444546 
 2123      00
 2124              		.bss
 2125              		.align	2
 2126              		.set	.LANCHOR0,. + 0
 2127              		.type	USBFS_tBuffer.6333, %object
 2128              		.size	USBFS_tBuffer.6333, 2
 2129              	USBFS_tBuffer.6333:
ARM GAS  C:\Users\TERENC~1\AppData\Local\Temp\ccVnttLg.s 			page 64


 2130 0000 0000     		.space	2
 2131              		.text
 2132              	.Letext0:
 2133              		.file 2 "Generated_Source\\PSoC4\\cytypes.h"
 2134              		.file 3 "Generated_Source\\PSoC4\\USBFS.h"
 2135              		.file 4 "Generated_Source\\PSoC4\\USBFS_pvt.h"
 2136              		.file 5 "Generated_Source\\PSoC4\\CyLib.h"