ARM GAS  C:\Users\TERENC~1\AppData\Local\Temp\ccLnQ76v.s 			page 1


   1              		.syntax unified
   2              		.cpu cortex-m0
   3              		.fpu softvfp
   4              		.eabi_attribute 20, 1
   5              		.eabi_attribute 21, 1
   6              		.eabi_attribute 23, 3
   7              		.eabi_attribute 24, 1
   8              		.eabi_attribute 25, 1
   9              		.eabi_attribute 26, 1
  10              		.eabi_attribute 30, 1
  11              		.eabi_attribute 34, 0
  12              		.eabi_attribute 18, 4
  13              		.thumb
  14              		.syntax unified
  15              		.file	"USBInterface.c"
  16              		.text
  17              	.Ltext0:
  18              		.cfi_sections	.debug_frame
  19              		.section	.text.UpdateFeedbackCount,"ax",%progbits
  20              		.align	2
  21              		.global	UpdateFeedbackCount
  22              		.code	16
  23              		.thumb_func
  24              		.type	UpdateFeedbackCount, %function
  25              	UpdateFeedbackCount:
  26              	.LFB324:
  27              		.file 1 "USBInterface.c"
   1:USBInterface.c **** /*******************************************************************************
   2:USBInterface.c **** * File Name: USBInterface.c
   3:USBInterface.c **** *
   4:USBInterface.c **** * Version 1.0
   5:USBInterface.c **** *
   6:USBInterface.c **** * Description: This file contains routines for handling PC/Mac/any USB Host
   7:USBInterface.c **** *              USB interface requests.
   8:USBInterface.c **** *
   9:USBInterface.c **** *******************************************************************************
  10:USBInterface.c **** * Copyright (2018), Cypress Semiconductor Corporation. All rights reserved.
  11:USBInterface.c **** *******************************************************************************
  12:USBInterface.c **** * This software, including source code, documentation and related materials
  13:USBInterface.c **** * (“Software”), is owned by Cypress Semiconductor Corporation or one of its
  14:USBInterface.c **** * subsidiaries (“Cypress”) and is protected by and subject to worldwide patent
  15:USBInterface.c **** * protection (United States and foreign), United States copyright laws and
  16:USBInterface.c **** * international treaty provisions. Therefore, you may use this Software only
  17:USBInterface.c **** * as provided in the license agreement accompanying the software package from
  18:USBInterface.c **** * which you obtained this Software (“EULA”).
  19:USBInterface.c **** *
  20:USBInterface.c **** * If no EULA applies, Cypress hereby grants you a personal, nonexclusive,
  21:USBInterface.c **** * non-transferable license to copy, modify, and compile the Software source
  22:USBInterface.c **** * code solely for use in connection with Cypress’s integrated circuit products.
  23:USBInterface.c **** * Any reproduction, modification, translation, compilation, or representation
  24:USBInterface.c **** * of this Software except as specified above is prohibited without the express
  25:USBInterface.c **** * written permission of Cypress.
  26:USBInterface.c **** *
  27:USBInterface.c **** * Disclaimer: THIS SOFTWARE IS PROVIDED AS-IS, WITH NO WARRANTY OF ANY KIND, 
  28:USBInterface.c **** * EXPRESS OR IMPLIED, INCLUDING, BUT NOT LIMITED TO, NONINFRINGEMENT, IMPLIED 
  29:USBInterface.c **** * WARRANTIES OF MERCHANTABILITY AND FITNESS FOR A PARTICULAR PURPOSE. Cypress 
  30:USBInterface.c **** * reserves the right to make changes to the Software without notice. Cypress 
ARM GAS  C:\Users\TERENC~1\AppData\Local\Temp\ccLnQ76v.s 			page 2


  31:USBInterface.c **** * does not assume any liability arising out of the application or use of the 
  32:USBInterface.c **** * Software or any product or circuit described in the Software. Cypress does 
  33:USBInterface.c **** * not authorize its products for use in any products where a malfunction or 
  34:USBInterface.c **** * failure of the Cypress product may reasonably be expected to result in 
  35:USBInterface.c **** * significant property damage, injury or death (“High Risk Product”). By 
  36:USBInterface.c **** * including Cypress’s product in a High Risk Product, the manufacturer of such 
  37:USBInterface.c **** * system or application assumes all risk of such use and in doing so agrees to 
  38:USBInterface.c **** * indemnify Cypress against all liability.
  39:USBInterface.c **** *******************************************************************************/
  40:USBInterface.c **** #include <Application.h>
  41:USBInterface.c **** #include <AudioControl.h>
  42:USBInterface.c **** #include <AudioIn.h>
  43:USBInterface.c **** #include <AudioOut.h>
  44:USBInterface.c **** #include <Config.h>
  45:USBInterface.c **** #include <USBInterface.h>
  46:USBInterface.c **** #include <Codec.h>
  47:USBInterface.c **** 
  48:USBInterface.c **** extern volatile uint8 USBFS_interfaceSetting[];
  49:USBInterface.c **** 
  50:USBInterface.c **** extern uint8 USBFS_initVar;
  51:USBInterface.c **** extern uint8 playlistControlReport;
  52:USBInterface.c **** extern CYBIT outPlaying;
  53:USBInterface.c **** extern CYBIT inPlaying;
  54:USBInterface.c **** 
  55:USBInterface.c **** extern CYBIT codecInit;  
  56:USBInterface.c **** 
  57:USBInterface.c **** uint8 USBDeviceState = USB_INTERFACE_INACTIVE;
  58:USBInterface.c **** 
  59:USBInterface.c **** #if(USBFS_EP_MM == USBFS__EP_DMAAUTO) 
  60:USBInterface.c **** 	uint8 outRam[OUT_AUDIOMAXPKT];
  61:USBInterface.c **** 	uint8 inRam[IN_AUDIOMAXPKT];
  62:USBInterface.c ****     uint16 inCnt;    
  63:USBInterface.c **** #endif
  64:USBInterface.c **** 
  65:USBInterface.c **** uint8 freeRunningLRCLKCount;
  66:USBInterface.c **** uint8 audioSamples;
  67:USBInterface.c **** uint8 lastFreeRunningLRCLKCount = MAX_UINT8_COUNT-1;
  68:USBInterface.c **** uint8 explicitFeedback[3] = {0x00,0x00, 0x0C}; /* 48 bytes explicit feedback */
  69:USBInterface.c **** uint16 explicitFeedbackSamples;
  70:USBInterface.c **** uint8 updated = FALSE;
  71:USBInterface.c **** 
  72:USBInterface.c **** extern uint16 outLevel;
  73:USBInterface.c **** CYBIT audioAsync = IMPLICIT_FEEDBACK ;
  74:USBInterface.c **** extern uint8 setRate;
  75:USBInterface.c **** uint8 asyncready = FALSE;
  76:USBInterface.c **** 
  77:USBInterface.c **** uint8 altSetting[NO_OF_AUDIO_STREAM_INTERFACE] = {ALT_SETTING_INVALID, ALT_SETTING_INVALID};
  78:USBInterface.c **** 
  79:USBInterface.c **** /*******************************************************************************
  80:USBInterface.c **** * Function Name: ServiceUSB
  81:USBInterface.c **** ********************************************************************************
  82:USBInterface.c **** * Summary: This routine performs tasks that should be done soon after USB 
  83:USBInterface.c **** *          enumeration is completed (configure DMA, initialize state machine, etc.).
  84:USBInterface.c **** *          When the USB configuration is changed, this routine reinitializes all
  85:USBInterface.c **** *          the USB endpoints as required by the application.       
  86:USBInterface.c **** *
  87:USBInterface.c **** * Parameters:
ARM GAS  C:\Users\TERENC~1\AppData\Local\Temp\ccLnQ76v.s 			page 3


  88:USBInterface.c **** *  void
  89:USBInterface.c **** *
  90:USBInterface.c **** * Return:
  91:USBInterface.c **** *  void
  92:USBInterface.c **** *
  93:USBInterface.c **** *******************************************************************************/
  94:USBInterface.c **** void ServiceUSB(void)
  95:USBInterface.c **** {
  96:USBInterface.c **** 	audioAsync = EXPLICIT_FEEDBACK;
  97:USBInterface.c **** 	
  98:USBInterface.c **** 	if(USB_INTERFACE_INACTIVE == USBDeviceState)
  99:USBInterface.c ****     {
 100:USBInterface.c ****         USBDeviceState = USB_INIT_AFTER_ENUMERATION_REQUIRED;
 101:USBInterface.c ****     }
 102:USBInterface.c **** 	
 103:USBInterface.c **** 	/* Initialization sequence for every USB host enumeration event */
 104:USBInterface.c ****     if(USBDeviceState == USB_INIT_AFTER_ENUMERATION_REQUIRED)
 105:USBInterface.c ****     {
 106:USBInterface.c ****         uint16 index = 0;
 107:USBInterface.c ****         
 108:USBInterface.c ****         USBDeviceState = USB_INIT_AFTER_ENUMERATION_COMPLETED;
 109:USBInterface.c ****         
 110:USBInterface.c ****         #if(USBFS_EP_MM == USBFS__EP_DMAAUTO)
 111:USBInterface.c ****             
 112:USBInterface.c **** 			for(index=0; index< AUDIOMAXPKT; index++)
 113:USBInterface.c ****             {
 114:USBInterface.c **** 				outRam[index] = 0;
 115:USBInterface.c ****                 inRam[index] = 0;                
 116:USBInterface.c ****             }	
 117:USBInterface.c ****             
 118:USBInterface.c **** 		  	inCnt = AUDIOMAXPKT;            
 119:USBInterface.c ****         #endif		
 120:USBInterface.c ****     }
 121:USBInterface.c ****     
 122:USBInterface.c ****    
 123:USBInterface.c ****     /* USBFS_IsConfigurationChanged() is a clear on read status update therefore, only one read of 
 124:USBInterface.c ****      * USBFS_IsConfigurationChanged() should ever exist in user code */
 125:USBInterface.c ****     if(USBFS_IsConfigurationChanged())
 126:USBInterface.c ****     {	                    
 127:USBInterface.c ****         if(altSetting[AUDIO_OUT_INTERFACE_INDEX] != USBFS_GetInterfaceSetting(1))
 128:USBInterface.c **** 		{
 129:USBInterface.c **** 	        /* Get Alternate setting */	        
 130:USBInterface.c ****             altSetting[AUDIO_OUT_INTERFACE_INDEX] = USBFS_GetInterfaceSetting(1); 
 131:USBInterface.c **** 			
 132:USBInterface.c **** 			/* Set 24-bit mode for I2S */
 133:USBInterface.c **** 			/* Clear internal pointers */			
 134:USBInterface.c **** 			Stop_I2S_Rx();			  
 135:USBInterface.c **** 			Stop_I2S_Tx();
 136:USBInterface.c **** 			
 137:USBInterface.c **** 			/* Stop component */
 138:USBInterface.c **** 			I2S_Stop();
 139:USBInterface.c **** 
 140:USBInterface.c **** 			/* Note: ByteCounter is stopped in Stop_I2S_Tx(); */        
 141:USBInterface.c **** 	        ByteCounter_Tx_WritePeriod((OUT_TRANS_SIZE) - 1);
 142:USBInterface.c **** 	        ByteCounter_Tx_Enable();
 143:USBInterface.c **** 
 144:USBInterface.c **** 			/* Restart I2S*/
ARM GAS  C:\Users\TERENC~1\AppData\Local\Temp\ccLnQ76v.s 			page 4


 145:USBInterface.c **** 			I2S_Start();
 146:USBInterface.c **** 						
 147:USBInterface.c **** 	        
 148:USBInterface.c **** 	        /* Arming the audio out EP if it is not zero bandwidth alt setting */
 149:USBInterface.c **** 	        if (altSetting[AUDIO_OUT_INTERFACE_INDEX]!= ALT_SETTING_ZERO_BANDWIDTH)           
 150:USBInterface.c **** 	        {
 151:USBInterface.c **** 	            /* Init DMA configurations for audio OUT EP */
 152:USBInterface.c **** 	            USBFS_ReadOutEP(AUDIO_OUT_ENDPOINT, &outRam[0], OUT_AUDIOMAXPKT);
 153:USBInterface.c **** 	            USBFS_EnableOutEP(AUDIO_OUT_ENDPOINT);                   
 154:USBInterface.c ****                 
 155:USBInterface.c ****                 if (EXPLICIT_FEEDBACK == audioAsync )
 156:USBInterface.c ****     			{
 157:USBInterface.c ****     	            USBFS_LoadInEP(ASYNC_EXPLICIT_FEEDBACK_ENDPOINT, &explicitFeedback[0], sizeof(expl
 158:USBInterface.c ****     				USBFS_LoadInEP(ASYNC_EXPLICIT_FEEDBACK_ENDPOINT, USBFS_NULL, sizeof(explicitFeedback));
 159:USBInterface.c ****     	        }
 160:USBInterface.c **** 	        }
 161:USBInterface.c ****             else
 162:USBInterface.c ****             {                
 163:USBInterface.c ****                 /* Trigger USB Audio OUT EP DMA to flush out the data before entering zero bandwidt
 164:USBInterface.c ****                 USBFS_CyDmaTriggerIn(USBFS_DmaReqOut[AUDIO_OUT_ENDPOINT]);
 165:USBInterface.c ****                 USBFS_CyDmaTriggerIn(USBFS_DmaReqOut[ASYNC_EXPLICIT_FEEDBACK_ENDPOINT]);
 166:USBInterface.c ****             }
 167:USBInterface.c **** 			
 168:USBInterface.c **** 			processAsyncFeedbackTransfer(DO_NOT_CLEAR_UPDATE_FLAG);        
 169:USBInterface.c ****         }        
 170:USBInterface.c ****         
 171:USBInterface.c ****         if(altSetting[AUDIO_IN_INTERFACE_INDEX] != USBFS_GetInterfaceSetting(2))
 172:USBInterface.c ****     	{            
 173:USBInterface.c ****             altSetting[AUDIO_IN_INTERFACE_INDEX] = USBFS_GetInterfaceSetting(2);           
 174:USBInterface.c **** 		
 175:USBInterface.c **** 			Stop_I2S_Rx();			
 176:USBInterface.c **** 			
 177:USBInterface.c ****             ByteCounter_Rx_WritePeriod((IN_TRANS_SIZE) - 1);
 178:USBInterface.c ****             
 179:USBInterface.c ****             /* Arming the audio in EP if it is not zero bandwidth alt setting */
 180:USBInterface.c ****             if (altSetting[AUDIO_IN_INTERFACE_INDEX] != ALT_SETTING_ZERO_BANDWIDTH)               
 181:USBInterface.c ****             {
 182:USBInterface.c ****                 /* Init DMA configurations for audio IN EP */  
 183:USBInterface.c ****                 inCnt = IN_AUDIOMAXPKT;
 184:USBInterface.c ****                 USBFS_LoadInEP(AUDIO_IN_ENDPOINT, &inRam[0], inCnt);
 185:USBInterface.c ****                 
 186:USBInterface.c ****                 /* Pre-arm first audio IN request */
 187:USBInterface.c ****                 USBFS_LoadInEP(AUDIO_IN_ENDPOINT, USBFS_NULL, inCnt);                
 188:USBInterface.c ****             }
 189:USBInterface.c ****             else
 190:USBInterface.c ****             {
 191:USBInterface.c ****                  /* Trigger USB Audio IN EP DMA to flush out the data before entering zero bandwidt
 192:USBInterface.c ****                 USBFS_CyDmaTriggerIn(USBFS_DmaReqOut[AUDIO_IN_ENDPOINT]);
 193:USBInterface.c ****             }
 194:USBInterface.c **** 		}       
 195:USBInterface.c **** 	}
 196:USBInterface.c **** }
 197:USBInterface.c **** 
 198:USBInterface.c **** /*******************************************************************************
 199:USBInterface.c **** * Function Name: UpdateFeedbackCount
 200:USBInterface.c **** ********************************************************************************
 201:USBInterface.c **** * Summary: This routine calculates the total number of audio samples consumed
ARM GAS  C:\Users\TERENC~1\AppData\Local\Temp\ccLnQ76v.s 			page 5


 202:USBInterface.c **** *          by PSoC per SOF interval. The number of audio samples consumed
 203:USBInterface.c **** *          determines the explicit feedback count to be sent to the USB host
 204:USBInterface.c **** *          over the feedback endpoint
 205:USBInterface.c **** *
 206:USBInterface.c **** * Parameters:
 207:USBInterface.c **** *  None
 208:USBInterface.c **** *
 209:USBInterface.c **** * Return:
 210:USBInterface.c **** *  None
 211:USBInterface.c **** *
 212:USBInterface.c **** *******************************************************************************/
 213:USBInterface.c **** void UpdateFeedbackCount(void)
 214:USBInterface.c **** {	
  28              		.loc 1 214 0
  29              		.cfi_startproc
  30              		@ args = 0, pretend = 0, frame = 0
  31              		@ frame_needed = 0, uses_anonymous_args = 0
  32 0000 10B5     		push	{r4, lr}
  33              		.cfi_def_cfa_offset 8
  34              		.cfi_offset 4, -8
  35              		.cfi_offset 14, -4
 215:USBInterface.c **** 	/* Feedback calculation logic for both implicit and explicit feedback on every SOF interrupt */
 216:USBInterface.c **** 	/* Get the Async_Feedback_Counter current count value */
 217:USBInterface.c **** 	freeRunningLRCLKCount = Async_Feedback_Counter_ReadCounter();
  36              		.loc 1 217 0
  37 0002 FFF7FEFF 		bl	Async_Feedback_Counter_ReadCounter
  38              	.LVL0:
  39 0006 224B     		ldr	r3, .L5
  40 0008 1870     		strb	r0, [r3]
 218:USBInterface.c **** 	
 219:USBInterface.c **** 	/* Calculate the number of audio samples transferred from last SOF interrupt */
 220:USBInterface.c ****     audioSamples = (((uint32)lastFreeRunningLRCLKCount) + MAX_UINT8_COUNT - ((uint32)freeRunningLRC
  41              		.loc 1 220 0
  42 000a 224A     		ldr	r2, .L5+4
  43 000c 1378     		ldrb	r3, [r2]
  44 000e 1B1A     		subs	r3, r3, r0
  45 0010 2149     		ldr	r1, .L5+8
  46 0012 0B70     		strb	r3, [r1]
 221:USBInterface.c **** 	
 222:USBInterface.c **** 	/* Store the read counter value for next cycle */
 223:USBInterface.c **** 	lastFreeRunningLRCLKCount = freeRunningLRCLKCount;
  47              		.loc 1 223 0
  48 0014 1070     		strb	r0, [r2]
 224:USBInterface.c **** 	
 225:USBInterface.c **** 	/* If clocks and Async endpoint are configured, process Async data */
 226:USBInterface.c ****     if(asyncready)
  49              		.loc 1 226 0
  50 0016 214B     		ldr	r3, .L5+12
  51 0018 1B78     		ldrb	r3, [r3]
  52 001a 002B     		cmp	r3, #0
  53 001c 37D0     		beq	.L1
 227:USBInterface.c ****     {
 228:USBInterface.c **** 	    /* Process only for explicit feedback */
 229:USBInterface.c **** 		if (EXPLICIT_FEEDBACK == audioAsync )
  54              		.loc 1 229 0
  55 001e 1F4B     		ldr	r3, .L5+12
  56 0020 5B78     		ldrb	r3, [r3, #1]
ARM GAS  C:\Users\TERENC~1\AppData\Local\Temp\ccLnQ76v.s 			page 6


  57 0022 012B     		cmp	r3, #1
  58 0024 33D1     		bne	.L1
 230:USBInterface.c **** 	    {	 	        
 231:USBInterface.c **** 			/* Read the feedback count value */
 232:USBInterface.c **** 			explicitFeedbackSamples = ((uint16)explicitFeedback[2]) << 8 | explicitFeedback[1];
  59              		.loc 1 232 0
  60 0026 9379     		ldrb	r3, [r2, #6]
  61 0028 1B02     		lsls	r3, r3, #8
  62 002a 5279     		ldrb	r2, [r2, #5]
  63 002c 1343     		orrs	r3, r2
  64 002e 1C4A     		ldr	r2, .L5+16
  65 0030 1380     		strh	r3, [r2]
 233:USBInterface.c **** 			
 234:USBInterface.c **** 			/* Increment or decrement the feedback count value depending on whether the audio out buffer is 
 235:USBInterface.c **** 				The update happens only once every Async feedback point read from the host */
 236:USBInterface.c **** 	        if((outLevel < OUT_HALF) && (updated == FALSE))
  66              		.loc 1 236 0
  67 0032 1C4A     		ldr	r2, .L5+20
  68 0034 1288     		ldrh	r2, [r2]
  69 0036 1C49     		ldr	r1, .L5+24
  70 0038 8A42     		cmp	r2, r1
  71 003a 0AD8     		bhi	.L3
  72              		.loc 1 236 0 is_stmt 0 discriminator 1
  73 003c 1749     		ldr	r1, .L5+12
  74 003e 8978     		ldrb	r1, [r1, #2]
  75 0040 0029     		cmp	r1, #0
  76 0042 06D1     		bne	.L3
 237:USBInterface.c **** 	        {	            
 238:USBInterface.c **** 				explicitFeedbackSamples += MINIMUM_FEEDBACK_REQUEST;					
  77              		.loc 1 238 0 is_stmt 1
  78 0044 0833     		adds	r3, r3, #8
  79 0046 164A     		ldr	r2, .L5+16
  80 0048 1380     		strh	r3, [r2]
 239:USBInterface.c **** 	            updated = TRUE;
  81              		.loc 1 239 0
  82 004a 0122     		movs	r2, #1
  83 004c 134B     		ldr	r3, .L5+12
  84 004e 9A70     		strb	r2, [r3, #2]
  85 0050 0DE0     		b	.L4
  86              	.L3:
 240:USBInterface.c **** 	        }
 241:USBInterface.c **** 	        else if((outLevel > (OUT_HALF + AUDIOMAXPKT))&& (updated == FALSE))
  87              		.loc 1 241 0
  88 0052 D821     		movs	r1, #216
  89 0054 8900     		lsls	r1, r1, #2
  90 0056 8A42     		cmp	r2, r1
  91 0058 09D9     		bls	.L4
  92              		.loc 1 241 0 is_stmt 0 discriminator 1
  93 005a 104A     		ldr	r2, .L5+12
  94 005c 9278     		ldrb	r2, [r2, #2]
  95 005e 002A     		cmp	r2, #0
  96 0060 05D1     		bne	.L4
 242:USBInterface.c **** 	        {				
 243:USBInterface.c **** 				explicitFeedbackSamples -= MINIMUM_FEEDBACK_REQUEST;			
  97              		.loc 1 243 0 is_stmt 1
  98 0062 083B     		subs	r3, r3, #8
  99 0064 0E4A     		ldr	r2, .L5+16
ARM GAS  C:\Users\TERENC~1\AppData\Local\Temp\ccLnQ76v.s 			page 7


 100 0066 1380     		strh	r3, [r2]
 244:USBInterface.c **** 	            updated = TRUE;				
 101              		.loc 1 244 0
 102 0068 0122     		movs	r2, #1
 103 006a 0C4B     		ldr	r3, .L5+12
 104 006c 9A70     		strb	r2, [r3, #2]
 105              	.L4:
 245:USBInterface.c **** 	        }
 246:USBInterface.c **** 			
 247:USBInterface.c **** 			/* Update the feedback count back */
 248:USBInterface.c **** 			explicitFeedback[2] = HI8(explicitFeedbackSamples);
 106              		.loc 1 248 0
 107 006e 0C4B     		ldr	r3, .L5+16
 108 0070 1A88     		ldrh	r2, [r3]
 109 0072 110A     		lsrs	r1, r2, #8
 110 0074 074B     		ldr	r3, .L5+4
 111 0076 9971     		strb	r1, [r3, #6]
 249:USBInterface.c **** 			explicitFeedback[1] = LO8(explicitFeedbackSamples);
 112              		.loc 1 249 0
 113 0078 5A71     		strb	r2, [r3, #5]
 250:USBInterface.c **** 	        	        	        
 251:USBInterface.c **** 	        /* Arm the feedback endpoint */
 252:USBInterface.c **** 	        if((USBFS_GetEPState(ASYNC_EXPLICIT_FEEDBACK_ENDPOINT) == USBFS_IN_BUFFER_EMPTY))
 114              		.loc 1 252 0
 115 007a 0320     		movs	r0, #3
 116 007c FFF7FEFF 		bl	USBFS_GetEPState
 117              	.LVL1:
 118 0080 0128     		cmp	r0, #1
 119 0082 04D1     		bne	.L1
 253:USBInterface.c **** 	        {		            
 254:USBInterface.c **** 				USBFS_LoadInEP(ASYNC_EXPLICIT_FEEDBACK_ENDPOINT, USBFS_NULL, sizeof(explicitFeedback));
 120              		.loc 1 254 0
 121 0084 0322     		movs	r2, #3
 122 0086 0021     		movs	r1, #0
 123 0088 0230     		adds	r0, r0, #2
 124 008a FFF7FEFF 		bl	USBFS_LoadInEP
 125              	.LVL2:
 126              	.L1:
 255:USBInterface.c **** 	        }
 256:USBInterface.c **** 	    
 257:USBInterface.c **** 	    }
 258:USBInterface.c ****     }
 259:USBInterface.c **** 
 260:USBInterface.c **** }
 127              		.loc 1 260 0
 128              		@ sp needed
 129 008e 10BD     		pop	{r4, pc}
 130              	.L6:
 131              		.align	2
 132              	.L5:
 133 0090 00000000 		.word	freeRunningLRCLKCount
 134 0094 00000000 		.word	.LANCHOR0
 135 0098 00000000 		.word	audioSamples
 136 009c 00000000 		.word	.LANCHOR1
 137 00a0 00000000 		.word	explicitFeedbackSamples
 138 00a4 00000000 		.word	outLevel
 139 00a8 3F020000 		.word	575
ARM GAS  C:\Users\TERENC~1\AppData\Local\Temp\ccLnQ76v.s 			page 8


 140              		.cfi_endproc
 141              	.LFE324:
 142              		.size	UpdateFeedbackCount, .-UpdateFeedbackCount
 143              		.section	.text.processAsyncFeedbackTransfer,"ax",%progbits
 144              		.align	2
 145              		.global	processAsyncFeedbackTransfer
 146              		.code	16
 147              		.thumb_func
 148              		.type	processAsyncFeedbackTransfer, %function
 149              	processAsyncFeedbackTransfer:
 150              	.LFB325:
 261:USBInterface.c **** 
 262:USBInterface.c **** /*******************************************************************************
 263:USBInterface.c **** * Function Name: processAsyncFeedbackTransfer
 264:USBInterface.c **** ********************************************************************************
 265:USBInterface.c **** * Summary: This routine uses the Async explicit feedback endpoint data transfer
 266:USBInterface.c **** *          completion interrupt to update the explicit feedback count to it's
 267:USBInterface.c **** *          default value corresponding to system sampling rate
 268:USBInterface.c ****     *
 269:USBInterface.c **** * Parameters:
 270:USBInterface.c **** *  None
 271:USBInterface.c **** *
 272:USBInterface.c **** * Return:   
 273:USBInterface.c **** *  None
 274:USBInterface.c **** *
 275:USBInterface.c **** *******************************************************************************/
 276:USBInterface.c **** void processAsyncFeedbackTransfer(uint32 clearFlag)
 277:USBInterface.c **** {
 151              		.loc 1 277 0
 152              		.cfi_startproc
 153              		@ args = 0, pretend = 0, frame = 0
 154              		@ frame_needed = 0, uses_anonymous_args = 0
 155              		@ link register save eliminated.
 156              	.LVL3:
 278:USBInterface.c ****     /* Reset the feedback count every time the host reads the feedback count data */
 279:USBInterface.c **** 	
 280:USBInterface.c **** 	if (EXPLICIT_FEEDBACK == audioAsync )
 157              		.loc 1 280 0
 158 0000 0F4B     		ldr	r3, .L12
 159 0002 5B78     		ldrb	r3, [r3, #1]
 160 0004 012B     		cmp	r3, #1
 161 0006 19D1     		bne	.L7
 281:USBInterface.c **** 	{				
 282:USBInterface.c **** 		switch(setRate)
 162              		.loc 1 282 0
 163 0008 0E4B     		ldr	r3, .L12+4
 164 000a 1B78     		ldrb	r3, [r3]
 165 000c 002B     		cmp	r3, #0
 166 000e 02D0     		beq	.L10
 167 0010 012B     		cmp	r3, #1
 168 0012 07D0     		beq	.L11
 169 0014 0DE0     		b	.L9
 170              	.L10:
 283:USBInterface.c **** 		{
 284:USBInterface.c **** 			case RATE_48KHZ:
 285:USBInterface.c **** 				explicitFeedback[0] = 0x00;
 171              		.loc 1 285 0
ARM GAS  C:\Users\TERENC~1\AppData\Local\Temp\ccLnQ76v.s 			page 9


 172 0016 0C4B     		ldr	r3, .L12+8
 173 0018 0022     		movs	r2, #0
 174 001a 1A71     		strb	r2, [r3, #4]
 286:USBInterface.c **** 				explicitFeedback[1] = 0x00;
 175              		.loc 1 286 0
 176 001c 5A71     		strb	r2, [r3, #5]
 287:USBInterface.c **** 				explicitFeedback[2] = 0x0C; /* 48 samples explicit feedback */
 177              		.loc 1 287 0
 178 001e 0C32     		adds	r2, r2, #12
 179 0020 9A71     		strb	r2, [r3, #6]
 288:USBInterface.c **** 			break;
 180              		.loc 1 288 0
 181 0022 06E0     		b	.L9
 182              	.L11:
 289:USBInterface.c **** 				
 290:USBInterface.c **** 			case RATE_44KHZ:
 291:USBInterface.c **** 				explicitFeedback[0] = 0x66; 
 183              		.loc 1 291 0
 184 0024 084B     		ldr	r3, .L12+8
 185 0026 6622     		movs	r2, #102
 186 0028 1A71     		strb	r2, [r3, #4]
 292:USBInterface.c **** 				explicitFeedback[1] = 0x06;
 187              		.loc 1 292 0
 188 002a 603A     		subs	r2, r2, #96
 189 002c 5A71     		strb	r2, [r3, #5]
 293:USBInterface.c **** 				explicitFeedback[2] = 0x0B; /* 44.1 samples explicit feedback */
 190              		.loc 1 293 0
 191 002e 0532     		adds	r2, r2, #5
 192 0030 9A71     		strb	r2, [r3, #6]
 193              	.L9:
 294:USBInterface.c **** 			break;
 295:USBInterface.c **** 			
 296:USBInterface.c **** 			default:
 297:USBInterface.c **** 			break;
 298:USBInterface.c **** 		}	
 299:USBInterface.c **** 		
 300:USBInterface.c **** 		/* Clear the flag to indicate the data has been read by the host */
 301:USBInterface.c **** 		if(clearFlag)
 194              		.loc 1 301 0
 195 0032 0028     		cmp	r0, #0
 196 0034 02D0     		beq	.L7
 302:USBInterface.c **** 		{
 303:USBInterface.c **** 			updated = FALSE;
 197              		.loc 1 303 0
 198 0036 0022     		movs	r2, #0
 199 0038 014B     		ldr	r3, .L12
 200 003a 9A70     		strb	r2, [r3, #2]
 201              	.L7:
 304:USBInterface.c **** 		}
 305:USBInterface.c **** 	}
 306:USBInterface.c **** }
 202              		.loc 1 306 0
 203              		@ sp needed
 204 003c 7047     		bx	lr
 205              	.L13:
 206 003e C046     		.align	2
 207              	.L12:
ARM GAS  C:\Users\TERENC~1\AppData\Local\Temp\ccLnQ76v.s 			page 10


 208 0040 00000000 		.word	.LANCHOR1
 209 0044 00000000 		.word	setRate
 210 0048 00000000 		.word	.LANCHOR0
 211              		.cfi_endproc
 212              	.LFE325:
 213              		.size	processAsyncFeedbackTransfer, .-processAsyncFeedbackTransfer
 214              		.section	.text.ServiceUSB,"ax",%progbits
 215              		.align	2
 216              		.global	ServiceUSB
 217              		.code	16
 218              		.thumb_func
 219              		.type	ServiceUSB, %function
 220              	ServiceUSB:
 221              	.LFB323:
  95:USBInterface.c **** 	audioAsync = EXPLICIT_FEEDBACK;
 222              		.loc 1 95 0
 223              		.cfi_startproc
 224              		@ args = 0, pretend = 0, frame = 0
 225              		@ frame_needed = 0, uses_anonymous_args = 0
 226 0000 10B5     		push	{r4, lr}
 227              		.cfi_def_cfa_offset 8
 228              		.cfi_offset 4, -8
 229              		.cfi_offset 14, -4
  96:USBInterface.c **** 	
 230              		.loc 1 96 0
 231 0002 464B     		ldr	r3, .L24
 232 0004 0122     		movs	r2, #1
 233 0006 5A70     		strb	r2, [r3, #1]
  98:USBInterface.c ****     {
 234              		.loc 1 98 0
 235 0008 DB78     		ldrb	r3, [r3, #3]
 236 000a 002B     		cmp	r3, #0
 237 000c 01D1     		bne	.L15
 100:USBInterface.c ****     }
 238              		.loc 1 100 0
 239 000e 434B     		ldr	r3, .L24
 240 0010 DA70     		strb	r2, [r3, #3]
 241              	.L15:
 104:USBInterface.c ****     {
 242              		.loc 1 104 0
 243 0012 424B     		ldr	r3, .L24
 244 0014 DB78     		ldrb	r3, [r3, #3]
 245 0016 012B     		cmp	r3, #1
 246 0018 12D1     		bne	.L16
 247              	.LVL4:
 248              	.LBB2:
 108:USBInterface.c ****         
 249              		.loc 1 108 0
 250 001a 0222     		movs	r2, #2
 251 001c 3F4B     		ldr	r3, .L24
 252 001e DA70     		strb	r2, [r3, #3]
 112:USBInterface.c ****             {
 253              		.loc 1 112 0
 254 0020 0023     		movs	r3, #0
 255 0022 06E0     		b	.L17
 256              	.LVL5:
 257              	.L18:
ARM GAS  C:\Users\TERENC~1\AppData\Local\Temp\ccLnQ76v.s 			page 11


 114:USBInterface.c ****                 inRam[index] = 0;                
 258              		.loc 1 114 0 discriminator 3
 259 0024 0022     		movs	r2, #0
 260 0026 3E49     		ldr	r1, .L24+4
 261 0028 CA54     		strb	r2, [r1, r3]
 115:USBInterface.c ****             }	
 262              		.loc 1 115 0 discriminator 3
 263 002a 3E49     		ldr	r1, .L24+8
 264 002c CA54     		strb	r2, [r1, r3]
 112:USBInterface.c ****             {
 265              		.loc 1 112 0 discriminator 3
 266 002e 0133     		adds	r3, r3, #1
 267              	.LVL6:
 268 0030 9BB2     		uxth	r3, r3
 269              	.LVL7:
 270              	.L17:
 112:USBInterface.c ****             {
 271              		.loc 1 112 0 is_stmt 0 discriminator 1
 272 0032 2022     		movs	r2, #32
 273 0034 FF32     		adds	r2, r2, #255
 274 0036 9342     		cmp	r3, r2
 275 0038 F4D9     		bls	.L18
 118:USBInterface.c ****         #endif		
 276              		.loc 1 118 0 is_stmt 1
 277 003a 0132     		adds	r2, r2, #1
 278 003c 3A4B     		ldr	r3, .L24+12
 279              	.LVL8:
 280 003e 1A80     		strh	r2, [r3]
 281              	.L16:
 282              	.LBE2:
 125:USBInterface.c ****     {	                    
 283              		.loc 1 125 0
 284 0040 FFF7FEFF 		bl	USBFS_IsConfigurationChanged
 285              	.LVL9:
 286 0044 0028     		cmp	r0, #0
 287 0046 68D0     		beq	.L14
 127:USBInterface.c **** 		{
 288              		.loc 1 127 0
 289 0048 384B     		ldr	r3, .L24+16
 290 004a 1C7A     		ldrb	r4, [r3, #8]
 291 004c 0120     		movs	r0, #1
 292 004e FFF7FEFF 		bl	USBFS_GetInterfaceSetting
 293              	.LVL10:
 294 0052 8442     		cmp	r4, r0
 295 0054 39D0     		beq	.L20
 130:USBInterface.c **** 			
 296              		.loc 1 130 0
 297 0056 0120     		movs	r0, #1
 298 0058 FFF7FEFF 		bl	USBFS_GetInterfaceSetting
 299              	.LVL11:
 300 005c 334C     		ldr	r4, .L24+16
 301 005e 2072     		strb	r0, [r4, #8]
 134:USBInterface.c **** 			Stop_I2S_Tx();
 302              		.loc 1 134 0
 303 0060 FFF7FEFF 		bl	Stop_I2S_Rx
 304              	.LVL12:
 135:USBInterface.c **** 			
ARM GAS  C:\Users\TERENC~1\AppData\Local\Temp\ccLnQ76v.s 			page 12


 305              		.loc 1 135 0
 306 0064 FFF7FEFF 		bl	Stop_I2S_Tx
 307              	.LVL13:
 138:USBInterface.c **** 
 308              		.loc 1 138 0
 309 0068 FFF7FEFF 		bl	I2S_Stop
 310              	.LVL14:
 141:USBInterface.c **** 	        ByteCounter_Tx_Enable();
 311              		.loc 1 141 0
 312 006c 8F20     		movs	r0, #143
 313 006e FFF7FEFF 		bl	ByteCounter_Tx_WritePeriod
 314              	.LVL15:
 142:USBInterface.c **** 
 315              		.loc 1 142 0
 316 0072 FFF7FEFF 		bl	ByteCounter_Tx_Enable
 317              	.LVL16:
 145:USBInterface.c **** 						
 318              		.loc 1 145 0
 319 0076 FFF7FEFF 		bl	I2S_Start
 320              	.LVL17:
 149:USBInterface.c **** 	        {
 321              		.loc 1 149 0
 322 007a 237A     		ldrb	r3, [r4, #8]
 323 007c 002B     		cmp	r3, #0
 324 007e 18D0     		beq	.L21
 152:USBInterface.c **** 	            USBFS_EnableOutEP(AUDIO_OUT_ENDPOINT);                   
 325              		.loc 1 152 0
 326 0080 9322     		movs	r2, #147
 327 0082 5200     		lsls	r2, r2, #1
 328 0084 2649     		ldr	r1, .L24+4
 329 0086 0120     		movs	r0, #1
 330 0088 FFF7FEFF 		bl	USBFS_ReadOutEP
 331              	.LVL18:
 153:USBInterface.c ****                 
 332              		.loc 1 153 0
 333 008c 0120     		movs	r0, #1
 334 008e FFF7FEFF 		bl	USBFS_EnableOutEP
 335              	.LVL19:
 155:USBInterface.c ****     			{
 336              		.loc 1 155 0
 337 0092 224B     		ldr	r3, .L24
 338 0094 5B78     		ldrb	r3, [r3, #1]
 339 0096 012B     		cmp	r3, #1
 340 0098 14D1     		bne	.L22
 157:USBInterface.c ****     				USBFS_LoadInEP(ASYNC_EXPLICIT_FEEDBACK_ENDPOINT, USBFS_NULL, sizeof(explicitFeedback));
 341              		.loc 1 157 0
 342 009a 0322     		movs	r2, #3
 343 009c 2349     		ldr	r1, .L24+16
 344 009e 0431     		adds	r1, r1, #4
 345 00a0 0320     		movs	r0, #3
 346 00a2 FFF7FEFF 		bl	USBFS_LoadInEP
 347              	.LVL20:
 158:USBInterface.c ****     	        }
 348              		.loc 1 158 0
 349 00a6 0322     		movs	r2, #3
 350 00a8 0021     		movs	r1, #0
 351 00aa 0320     		movs	r0, #3
ARM GAS  C:\Users\TERENC~1\AppData\Local\Temp\ccLnQ76v.s 			page 13


 352 00ac FFF7FEFF 		bl	USBFS_LoadInEP
 353              	.LVL21:
 354 00b0 08E0     		b	.L22
 355              	.L21:
 164:USBInterface.c ****                 USBFS_CyDmaTriggerIn(USBFS_DmaReqOut[ASYNC_EXPLICIT_FEEDBACK_ENDPOINT]);
 356              		.loc 1 164 0
 357 00b2 1F4B     		ldr	r3, .L24+20
 358 00b4 5A78     		ldrb	r2, [r3, #1]
 359 00b6 1F48     		ldr	r0, .L24+24
 360 00b8 0243     		orrs	r2, r0
 361 00ba 1F49     		ldr	r1, .L24+28
 362 00bc 0A60     		str	r2, [r1]
 165:USBInterface.c ****             }
 363              		.loc 1 165 0
 364 00be DB78     		ldrb	r3, [r3, #3]
 365 00c0 0343     		orrs	r3, r0
 366 00c2 0B60     		str	r3, [r1]
 367              	.L22:
 168:USBInterface.c ****         }        
 368              		.loc 1 168 0
 369 00c4 0020     		movs	r0, #0
 370 00c6 FFF7FEFF 		bl	processAsyncFeedbackTransfer
 371              	.LVL22:
 372              	.L20:
 171:USBInterface.c ****     	{            
 373              		.loc 1 171 0
 374 00ca 184B     		ldr	r3, .L24+16
 375 00cc 5C7A     		ldrb	r4, [r3, #9]
 376 00ce 0220     		movs	r0, #2
 377 00d0 FFF7FEFF 		bl	USBFS_GetInterfaceSetting
 378              	.LVL23:
 379 00d4 8442     		cmp	r4, r0
 380 00d6 20D0     		beq	.L14
 173:USBInterface.c **** 		
 381              		.loc 1 173 0
 382 00d8 0220     		movs	r0, #2
 383 00da FFF7FEFF 		bl	USBFS_GetInterfaceSetting
 384              	.LVL24:
 385 00de 134C     		ldr	r4, .L24+16
 386 00e0 6072     		strb	r0, [r4, #9]
 175:USBInterface.c **** 			
 387              		.loc 1 175 0
 388 00e2 FFF7FEFF 		bl	Stop_I2S_Rx
 389              	.LVL25:
 177:USBInterface.c ****             
 390              		.loc 1 177 0
 391 00e6 8F20     		movs	r0, #143
 392 00e8 FFF7FEFF 		bl	ByteCounter_Rx_WritePeriod
 393              	.LVL26:
 180:USBInterface.c ****             {
 394              		.loc 1 180 0
 395 00ec 637A     		ldrb	r3, [r4, #9]
 396 00ee 002B     		cmp	r3, #0
 397 00f0 0DD0     		beq	.L23
 183:USBInterface.c ****                 USBFS_LoadInEP(AUDIO_IN_ENDPOINT, &inRam[0], inCnt);
 398              		.loc 1 183 0
 399 00f2 0D4C     		ldr	r4, .L24+12
ARM GAS  C:\Users\TERENC~1\AppData\Local\Temp\ccLnQ76v.s 			page 14


 400 00f4 9322     		movs	r2, #147
 401 00f6 5200     		lsls	r2, r2, #1
 402 00f8 2280     		strh	r2, [r4]
 184:USBInterface.c ****                 
 403              		.loc 1 184 0
 404 00fa 0A49     		ldr	r1, .L24+8
 405 00fc 0220     		movs	r0, #2
 406 00fe FFF7FEFF 		bl	USBFS_LoadInEP
 407              	.LVL27:
 187:USBInterface.c ****             }
 408              		.loc 1 187 0
 409 0102 2288     		ldrh	r2, [r4]
 410 0104 0021     		movs	r1, #0
 411 0106 0220     		movs	r0, #2
 412 0108 FFF7FEFF 		bl	USBFS_LoadInEP
 413              	.LVL28:
 414 010c 05E0     		b	.L14
 415              	.L23:
 192:USBInterface.c ****             }
 416              		.loc 1 192 0
 417 010e 084B     		ldr	r3, .L24+20
 418 0110 9B78     		ldrb	r3, [r3, #2]
 419 0112 084A     		ldr	r2, .L24+24
 420 0114 1343     		orrs	r3, r2
 421 0116 084A     		ldr	r2, .L24+28
 422 0118 1360     		str	r3, [r2]
 423              	.L14:
 196:USBInterface.c **** 
 424              		.loc 1 196 0
 425              		@ sp needed
 426 011a 10BD     		pop	{r4, pc}
 427              	.L25:
 428              		.align	2
 429              	.L24:
 430 011c 00000000 		.word	.LANCHOR1
 431 0120 00000000 		.word	outRam
 432 0124 00000000 		.word	inRam
 433 0128 00000000 		.word	inCnt
 434 012c 00000000 		.word	.LANCHOR0
 435 0130 00000000 		.word	USBFS_DmaReqOut
 436 0134 000102C0 		.word	-1073610496
 437 0138 00060140 		.word	1073808896
 438              		.cfi_endproc
 439              	.LFE323:
 440              		.size	ServiceUSB, .-ServiceUSB
 441              		.global	altSetting
 442              		.global	asyncready
 443              		.global	audioAsync
 444              		.global	updated
 445              		.comm	explicitFeedbackSamples,2,2
 446              		.global	explicitFeedback
 447              		.global	lastFreeRunningLRCLKCount
 448              		.comm	audioSamples,1,1
 449              		.comm	freeRunningLRCLKCount,1,1
 450              		.comm	inCnt,2,2
 451              		.comm	inRam,294,4
 452              		.comm	outRam,294,4
ARM GAS  C:\Users\TERENC~1\AppData\Local\Temp\ccLnQ76v.s 			page 15


 453              		.global	USBDeviceState
 454              		.data
 455              		.align	2
 456              		.set	.LANCHOR0,. + 0
 457              		.type	lastFreeRunningLRCLKCount, %object
 458              		.size	lastFreeRunningLRCLKCount, 1
 459              	lastFreeRunningLRCLKCount:
 460 0000 FF       		.byte	-1
 461 0001 000000   		.space	3
 462              		.type	explicitFeedback, %object
 463              		.size	explicitFeedback, 3
 464              	explicitFeedback:
 465 0004 00       		.byte	0
 466 0005 00       		.byte	0
 467 0006 0C       		.byte	12
 468 0007 00       		.space	1
 469              		.type	altSetting, %object
 470              		.size	altSetting, 2
 471              	altSetting:
 472 0008 FF       		.byte	-1
 473 0009 FF       		.byte	-1
 474              		.bss
 475              		.set	.LANCHOR1,. + 0
 476              		.type	asyncready, %object
 477              		.size	asyncready, 1
 478              	asyncready:
 479 0000 00       		.space	1
 480              		.type	audioAsync, %object
 481              		.size	audioAsync, 1
 482              	audioAsync:
 483 0001 00       		.space	1
 484              		.type	updated, %object
 485              		.size	updated, 1
 486              	updated:
 487 0002 00       		.space	1
 488              		.type	USBDeviceState, %object
 489              		.size	USBDeviceState, 1
 490              	USBDeviceState:
 491 0003 00       		.space	1
 492              		.text
 493              	.Letext0:
 494              		.file 2 "Generated_Source\\PSoC4/cytypes.h"
 495              		.file 3 "Generated_Source\\PSoC4/USBFS_pvt.h"
 496              		.file 4 "Generated_Source\\PSoC4/Async_Feedback_Counter.h"
 497              		.file 5 "Generated_Source\\PSoC4/USBFS.h"
 498              		.file 6 "./AudioIn.h"
 499              		.file 7 "./AudioOut.h"
 500              		.file 8 "Generated_Source\\PSoC4/I2S.h"
 501              		.file 9 "Generated_Source\\PSoC4/ByteCounter_Tx.h"
 502              		.file 10 "Generated_Source\\PSoC4/ByteCounter_Rx.h"